/*
 * Copyright (c) 2016-2017, Fuzhou Rockchip Electronics Co., Ltd
 *
 * This program is free software; you can redistribute it and/or modify
 * it under the terms of the GNU General Public License as published by
 * the Free Software Foundation; either version 2 of the License, or
 * (at your option) any later version.
 * date: 2021-01-07
 */
	.arch armv7-a
	.eabi_attribute 20, 1
	.eabi_attribute 21, 1
	.eabi_attribute 23, 3
	.eabi_attribute 24, 1
	.eabi_attribute 25, 1
	.eabi_attribute 26, 2
	.eabi_attribute 30, 4
	.eabi_attribute 34, 0
	.eabi_attribute 18, 2
	.file	"rk_zftl_arm_v7.S"
	.section	.text.flash_mem_cmp8,"ax",%progbits
	.align	1
	.syntax unified
	.thumb
	.thumb_func
	.fpu softvfp
	.type	flash_mem_cmp8, %function
flash_mem_cmp8:
	@ args = 0, pretend = 0, frame = 0
	@ frame_needed = 0, uses_anonymous_args = 0
	movs	r3, #0
	push	{r4, r5, lr}
.L2:
	cmp	r3, r2
	bne	.L5
	movs	r0, #0
	pop	{r4, r5, pc}
.L5:
	ldrb	r5, [r0, r3]	@ zero_extendqisi2
	ldrb	r4, [r1, r3]	@ zero_extendqisi2
	adds	r3, r3, #1
	cmp	r5, r4
	beq	.L2
	mov	r0, r3
	pop	{r4, r5, pc}
	.size	flash_mem_cmp8, .-flash_mem_cmp8
	.global	__aeabi_uidiv
	.global	__aeabi_uidivmod
	.section	.text.slc_phy_page_address_calc,"ax",%progbits
	.align	1
	.syntax unified
	.thumb
	.thumb_func
	.fpu softvfp
	.type	slc_phy_page_address_calc, %function
slc_phy_page_address_calc:
	@ args = 0, pretend = 0, frame = 0
	@ frame_needed = 0, uses_anonymous_args = 0
	push	{r3, r4, r5, r6, r7, lr}
	mov	r4, r0
	ldr	r3, .L16
	ldr	r7, .L16+4
	ldrb	r3, [r3]	@ zero_extendqisi2
	cbz	r3, .L7
	ldrb	r3, [r7]	@ zero_extendqisi2
	cbz	r3, .L8
.L7:
	ldr	r3, .L16+8
	mov	r0, r4
	ldrh	r5, [r3]
	mov	r1, r5
	bl	__aeabi_uidiv
	mov	r1, r5
	mul	r6, r5, r0
	mov	r0, r4
	bl	__aeabi_uidivmod
	ldrb	r3, [r7]	@ zero_extendqisi2
	cbz	r3, .L9
	add	r4, r6, r1, lsl #1
.L8:
	mov	r0, r4
	pop	{r3, r4, r5, r6, r7, pc}
.L9:
	ldr	r3, .L16+12
	ldrh	r4, [r3, r1, lsl #1]
	add	r4, r4, r6
	b	.L8
.L17:
	.align	2
.L16:
	.word	.LANCHOR0
	.word	.LANCHOR1
	.word	.LANCHOR2
	.word	.LANCHOR3
	.size	slc_phy_page_address_calc, .-slc_phy_page_address_calc
	.section	.text._list_remove_node,"ax",%progbits
	.align	1
	.syntax unified
	.thumb
	.thumb_func
	.fpu softvfp
	.type	_list_remove_node, %function
_list_remove_node:
	@ args = 0, pretend = 0, frame = 0
	@ frame_needed = 0, uses_anonymous_args = 0
	push	{r3, r4, r5, r6, r7, r8, r10, lr}
	movs	r5, #6
	ldr	r6, .L26
	muls	r5, r1, r5
	movw	r3, #65535
	mov	r8, r2
	mov	r10, r0
	ldr	r7, [r6]
	ldrh	r1, [r7, r5]
	adds	r4, r7, r5
	ldrh	r2, [r4, #2]
	cmp	r1, r3
	ldr	r3, [r0]
	bne	.L19
	cmp	r2, r1
	bne	.L19
	cmp	r4, r3
	bne	.L18
.L19:
	movw	r1, #65535
	cmp	r2, r1
	bne	.L21
	cmp	r4, r3
	beq	.L21
	movs	r2, #202
	ldr	r1, .L26+4
	ldr	r0, .L26+8
	bl	printf
.L21:
	ldr	r3, [r10]
	movw	r1, #65535
	cmp	r4, r3
	ldrh	r3, [r7, r5]
	bne	.L22
	cmp	r3, r1
	ittee	ne
	ldrne	r0, [r6]
	movne	r2, #6
	moveq	r3, #0
	streq	r3, [r10]
	ittt	ne
	mlane	r3, r2, r3, r0
	strne	r3, [r10]
	strhne	r1, [r3, #2]	@ movhi
.L24:
	movw	r3, #65535
	strh	r3, [r7, r5]	@ movhi
	strh	r3, [r4, #2]	@ movhi
	ldrh	r3, [r8]
	subs	r3, r3, #1
	strh	r3, [r8]	@ movhi
.L18:
	pop	{r3, r4, r5, r6, r7, r8, r10, pc}
.L22:
	cmp	r3, r1
	ldrh	r1, [r4, #2]
	bne	.L25
	cmp	r1, r3
	beq	.L24
	movs	r2, #6
	ldr	r0, [r6]
	muls	r1, r2, r1
	strh	r3, [r0, r1]	@ movhi
	b	.L24
.L25:
	ldr	r0, [r6]
	movs	r2, #6
	mla	r6, r2, r3, r0
	strh	r1, [r6, #2]	@ movhi
	ldrh	r1, [r4, #2]
	muls	r2, r1, r2
	strh	r3, [r0, r2]	@ movhi
	b	.L24
.L27:
	.align	2
.L26:
	.word	.LANCHOR4
	.word	.LANCHOR5
	.word	.LC0
	.size	_list_remove_node, .-_list_remove_node
	.section	.text.hynix_set_rr_para,"ax",%progbits
	.align	1
	.syntax unified
	.thumb
	.thumb_func
	.fpu softvfp
	.type	hynix_set_rr_para, %function
hynix_set_rr_para:
	@ args = 0, pretend = 0, frame = 0
	@ frame_needed = 0, uses_anonymous_args = 0
	push	{r3, r4, r5, r6, r7, r8, r10, lr}
	lsls	r7, r0, #8
	ldr	r3, .L33
	ldr	r4, .L33+4
	ldr	r6, [r3]
	ldr	r8, [r4]
	ldrb	r2, [r6, #113]	@ zero_extendqisi2
	add	r4, r6, #112
	ldrb	r5, [r6, #112]	@ zero_extendqisi2
	add	ip, r6, #128
	adds	r6, r6, #127
	muls	r1, r2, r1
	cmp	r5, #8
	it	ne
	movne	r5, #160
	add	r2, r2, #-1
	add	r10, ip, r2
	add	r1, r1, #32
	it	ne
	smlabbne	r1, r5, r0, r1
	add	r5, r8, r7
	add	r4, r4, r1
	movs	r1, #54
	subs	r4, r4, #1
	str	r1, [r5, #2056]
.L31:
	cmp	r6, r10
	bne	.L32
	add	r7, r7, r8
	movs	r3, #22
	str	r3, [r7, #2056]
	pop	{r3, r4, r5, r6, r7, r8, r10, pc}
.L32:
	ldrb	r3, [r6, #1]!	@ zero_extendqisi2
	movs	r0, #1
	str	r3, [r5, #2052]
	bl	udelay
	ldrsb	r3, [r4, #1]!
	str	r3, [r5, #2048]
	b	.L31
.L34:
	.align	2
.L33:
	.word	.LANCHOR6
	.word	.LANCHOR7
	.size	hynix_set_rr_para, .-hynix_set_rr_para
	.section	.text._insert_free_list,"ax",%progbits
	.align	1
	.syntax unified
	.thumb
	.thumb_func
	.fpu softvfp
	.type	_insert_free_list, %function
_insert_free_list:
	@ args = 0, pretend = 0, frame = 8
	@ frame_needed = 0, uses_anonymous_args = 0
	ldr	r3, .L43
	push	{r0, r1, r4, r5, r6, r7, r8, r10, fp, lr}
	ldrh	r3, [r3]
	cmp	r3, r1
	bls	.L35
	ldrh	r3, [r2]
	movw	r10, #65535
	ldr	r7, [r0]
	adds	r3, r3, #1
	strh	r3, [r2]	@ movhi
	movs	r2, #6
	ldr	r3, .L43+4
	mul	lr, r2, r1
	ldr	r5, [r3]
	add	r6, r5, lr
	strh	r10, [r6, #2]	@ movhi
	strh	r10, [r5, lr]	@ movhi
	cbnz	r7, .L37
.L42:
	str	r6, [r0]
	b	.L35
.L37:
	ldr	r3, .L43+8
	str	r2, [sp, #4]
	ldr	ip, [r3]
	ldr	r3, .L43+12
	ldrh	r4, [ip, r1, lsl #2]
	ldrh	r8, [r3]
	ldr	r3, [ip, r1, lsl #2]
	ubfx	r4, r4, #0, #11
	ubfx	r3, r3, #11, #8
	smulbb	r3, r3, r8
	add	r3, r3, r4
	uxth	r3, r3
	str	r3, [sp]
	subs	r3, r7, r5
	asrs	r4, r3, #1
	ldr	r3, .L43+16
	muls	r3, r4, r3
	mov	r4, r7
	uxth	r3, r3
.L40:
	ldr	r2, [ip, r3, lsl #2]
	ldrh	fp, [ip, r3, lsl #2]
	ubfx	r2, r2, #11, #8
	smulbb	r2, r2, r8
	ubfx	fp, fp, #0, #11
	add	r2, r2, fp
	uxth	fp, r2
	ldr	r2, [sp]
	cmp	r2, fp
	bls	.L38
	ldrh	r2, [r4]
	cmp	r2, r10
	bne	.L39
	strh	r3, [r6, #2]	@ movhi
	strh	r1, [r4]	@ movhi
.L35:
	add	sp, sp, #8
	@ sp needed
	pop	{r4, r5, r6, r7, r8, r10, fp, pc}
.L39:
	ldr	r3, [sp, #4]
	mla	r4, r3, r2, r5
	mov	r3, r2
	b	.L40
.L38:
	ldrh	r2, [r4, #2]
	cmp	r7, r4
	strh	r2, [r6, #2]	@ movhi
	strh	r3, [r5, lr]	@ movhi
	bne	.L41
	strh	r1, [r7, #2]	@ movhi
	b	.L42
.L41:
	ldrh	r2, [r4, #2]
	movs	r3, #6
	muls	r3, r2, r3
	strh	r1, [r5, r3]	@ movhi
	strh	r1, [r4, #2]	@ movhi
	b	.L35
.L44:
	.align	2
.L43:
	.word	.LANCHOR8
	.word	.LANCHOR4
	.word	.LANCHOR9
	.word	.LANCHOR10
	.word	-1431655765
	.size	_insert_free_list, .-_insert_free_list
	.section	.text._insert_data_list,"ax",%progbits
	.align	1
	.syntax unified
	.thumb
	.thumb_func
	.fpu softvfp
	.type	_insert_data_list, %function
_insert_data_list:
	@ args = 0, pretend = 0, frame = 24
	@ frame_needed = 0, uses_anonymous_args = 0
	ldr	r3, .L67
	push	{r4, r5, r6, r7, r8, r10, fp, lr}
	mov	lr, r0
	sub	sp, sp, #24
	ldrh	r3, [r3]
	cmp	r3, r1
	bls	.L45
	ldrh	r3, [r2]
	ldr	r0, [r0]
	adds	r3, r3, #1
	strh	r3, [r2]	@ movhi
	ldr	r3, .L67+4
	ldr	r5, [r3]
	movs	r3, #6
	mul	r10, r3, r1
	movw	r3, #65535
	add	r6, r5, r10
	strh	r3, [r6, #2]	@ movhi
	strh	r3, [r5, r10]	@ movhi
	cbnz	r0, .L48
.L66:
	str	r6, [lr]
	b	.L45
.L48:
	ldr	r3, .L67+8
	ldrh	r7, [r6, #4]
	ldr	r3, [r3]
	ldrh	r4, [r3, r1, lsl #1]
	muls	r4, r7, r4
	str	r3, [sp, #8]
	ldr	r3, .L67+12
	str	r4, [sp]
	ldr	r8, [r3]
	ldr	r3, [r8, r1, lsl #2]
	ubfx	r2, r3, #11, #8
	ldr	r3, .L67+16
	ldrh	r3, [r3]
	str	r3, [sp, #12]
	ldrh	r3, [r8, r1, lsl #2]
	ubfx	r3, r3, #0, #11
	beq	.L49
	ldrh	r4, [sp, #12]
	smulbb	r2, r2, r4
	add	r3, r3, r2
	ldr	r2, [sp]
	uxtah	r3, r2, r3
	str	r3, [sp]
.L49:
	ldr	r3, [sp]
	cmp	r7, #0
	it	eq
	moveq	r3, #-1
	movs	r7, #0
	str	r7, [sp, #4]
	str	r3, [sp]
	subs	r3, r0, r5
	asrs	r2, r3, #1
	ldr	r3, .L67+20
	muls	r3, r2, r3
	ldr	r2, .L67
	ldrh	r2, [r2]
	uxth	r3, r3
	str	r2, [sp, #20]
	mov	r2, r0
.L55:
	ldr	r7, [sp, #4]
	adds	r7, r7, #1
	uxth	r7, r7
	mov	r4, r7
	str	r7, [sp, #4]
	ldr	r7, [sp, #20]
	cmp	r4, r7
	bhi	.L45
	cmp	r1, r3
	beq	.L45
	ldrh	r7, [r2, #4]
	ldr	r4, [r8, r3, lsl #2]
	ldrh	ip, [r8, r3, lsl #2]
	str	r7, [sp, #16]
	ldr	r7, [sp, #8]
	ubfx	fp, r4, #11, #8
	ldr	r4, [sp, #16]
	ubfx	ip, ip, #0, #11
	ldrh	r7, [r7, r3, lsl #1]
	muls	r7, r4, r7
	itt	ne
	ldrhne	r4, [sp, #12]
	smulbbne	fp, fp, r4
	ldr	r4, [sp, #16]
	itt	ne
	addne	fp, fp, ip
	uxtahne	r7, r7, fp
	cbz	r4, .L53
	ldr	r4, [sp]
	cmp	r4, r7
	bls	.L53
	ldrh	r7, [r2]
	movw	r4, #65535
	cmp	r7, r4
	bne	.L54
	strh	r3, [r6, #2]	@ movhi
	strh	r1, [r2]	@ movhi
.L45:
	add	sp, sp, #24
	@ sp needed
	pop	{r4, r5, r6, r7, r8, r10, fp, pc}
.L54:
	movs	r3, #6
	mla	r2, r3, r7, r5
	mov	r3, r7
	b	.L55
.L53:
	ldrh	r4, [r2, #2]
	cmp	r0, r2
	strh	r4, [r6, #2]	@ movhi
	strh	r3, [r5, r10]	@ movhi
	bne	.L56
	strh	r1, [r0, #2]	@ movhi
	b	.L66
.L56:
	ldrh	r0, [r2, #2]
	movs	r3, #6
	muls	r3, r0, r3
	strh	r1, [r5, r3]	@ movhi
	strh	r1, [r2, #2]	@ movhi
	b	.L45
.L68:
	.align	2
.L67:
	.word	.LANCHOR8
	.word	.LANCHOR4
	.word	.LANCHOR11
	.word	.LANCHOR9
	.word	.LANCHOR10
	.word	-1431655765
	.size	_insert_data_list, .-_insert_data_list
	.section	.text._list_update_data_list,"ax",%progbits
	.align	1
	.syntax unified
	.thumb
	.thumb_func
	.fpu softvfp
	.type	_list_update_data_list, %function
_list_update_data_list:
	@ args = 0, pretend = 0, frame = 0
	@ frame_needed = 0, uses_anonymous_args = 0
	ldr	r3, .L79
	push	{r4, r5, r6, r7, r8, r10, fp, lr}
	mov	r6, r2
	mov	r7, r0
	mov	r4, r1
	ldr	r3, [r3]
	ldrh	r2, [r3, #16]
	cmp	r2, r1
	beq	.L69
	ldrh	r2, [r3, #48]
	cmp	r2, r1
	beq	.L69
	ldrh	r3, [r3, #80]
	cmp	r3, r1
	beq	.L69
	ldr	r3, .L79+4
	movs	r5, #6
	muls	r5, r1, r5
	ldr	r2, [r0]
	ldr	fp, [r3]
	mov	r8, r3
	add	r10, fp, r5
	cmp	r10, r2
	beq	.L69
	ldrh	r3, [r10, #2]
	movw	r2, #65535
	cmp	r3, r2
	bne	.L73
	ldrh	r2, [fp, r5]
	cmp	r2, r3
	bne	.L73
	movw	r2, #273
	ldr	r1, .L79+8
	ldr	r0, .L79+12
	bl	printf
.L73:
	ldrh	r3, [r10, #2]
	movw	r2, #65535
	cmp	r3, r2
	bne	.L74
	ldrh	r2, [fp, r5]
	cmp	r2, r3
	beq	.L69
.L74:
	ldr	r2, .L79+16
	ldr	r0, [r2]
	ldrh	r2, [r10, #4]
	ldrh	r1, [r0, r4, lsl #1]
	cbz	r2, .L77
	muls	r2, r1, r2
.L75:
	movs	r1, #6
	muls	r1, r3, r1
	ldr	r3, .L79+20
	asrs	r5, r1, #1
	muls	r3, r5, r3
	ldrh	r5, [r0, r3, lsl #1]
	ldr	r0, [r8]
	add	r1, r1, r0
	ldrh	r3, [r1, #4]
	cbz	r3, .L78
	muls	r3, r5, r3
.L76:
	cmp	r2, r3
	bcs	.L69
	mov	r2, r6
	mov	r1, r4
	mov	r0, r7
	bl	_list_remove_node
	mov	r2, r6
	mov	r1, r4
	mov	r0, r7
	pop	{r4, r5, r6, r7, r8, r10, fp, lr}
	b	_insert_data_list
.L77:
	mov	r2, #-1
	b	.L75
.L78:
	mov	r3, #-1
	b	.L76
.L69:
	pop	{r4, r5, r6, r7, r8, r10, fp, pc}
.L80:
	.align	2
.L79:
	.word	.LANCHOR12
	.word	.LANCHOR4
	.word	.LANCHOR13
	.word	.LC0
	.word	.LANCHOR11
	.word	-1431655765
	.size	_list_update_data_list, .-_list_update_data_list
	.section	.text.nandc_de_cs.constprop.32,"ax",%progbits
	.align	1
	.syntax unified
	.thumb
	.thumb_func
	.fpu softvfp
	.type	nandc_de_cs.constprop.32, %function
nandc_de_cs.constprop.32:
	@ args = 0, pretend = 0, frame = 0
	@ frame_needed = 0, uses_anonymous_args = 0
	@ link register save eliminated.
	ldr	r3, .L82
	ldr	r2, [r3]
	ldr	r3, [r2]
	bfc	r3, #0, #8
	bfc	r3, #17, #1
	str	r3, [r2]
	bx	lr
.L83:
	.align	2
.L82:
	.word	.LANCHOR7
	.size	nandc_de_cs.constprop.32, .-nandc_de_cs.constprop.32
	.section	.text.flash_read_status,"ax",%progbits
	.align	1
	.global	flash_read_status
	.syntax unified
	.thumb
	.thumb_func
	.fpu softvfp
	.type	flash_read_status, %function
flash_read_status:
	@ args = 0, pretend = 0, frame = 0
	@ frame_needed = 0, uses_anonymous_args = 0
	movs	r3, #112
	push	{r4, lr}
	mov	r4, r0
	str	r3, [r0, #8]
	movs	r0, #1
	bl	udelay
	ldr	r0, [r4]
	uxtb	r0, r0
	pop	{r4, pc}
	.size	flash_read_status, .-flash_read_status
	.section	.text.toshiba_set_rr_para,"ax",%progbits
	.align	1
	.global	toshiba_set_rr_para
	.syntax unified
	.thumb
	.thumb_func
	.fpu softvfp
	.type	toshiba_set_rr_para, %function
toshiba_set_rr_para:
	@ args = 0, pretend = 0, frame = 0
	@ frame_needed = 0, uses_anonymous_args = 0
	push	{r3, r4, r5, r6, r7, r8, r10, lr}
	add	r7, r1, r1, lsl #2
	ldr	r10, .L93+12
	mov	r5, r0
	mov	r6, r1
	movs	r4, #0
	ldr	r8, .L93+16
.L86:
	ldrb	r3, [r10]	@ zero_extendqisi2
	cmp	r4, r3
	bcc	.L90
	pop	{r3, r4, r5, r6, r7, r8, r10, pc}
.L90:
	movs	r3, #85
	movs	r0, #1
	str	r3, [r5, #8]
	ldrsb	r3, [r4, r8]
	str	r3, [r5, #4]
	bl	udelay
	ldr	r3, .L93
	ldrb	r3, [r3]	@ zero_extendqisi2
	cmp	r3, #34
	bne	.L87
	adds	r3, r4, r7
	add	r3, r3, r8
.L92:
	ldrsb	r3, [r3, #5]
.L91:
	str	r3, [r5]
	adds	r4, r4, #1
	b	.L86
.L87:
	cmp	r3, #35
	bne	.L89
	ldr	r3, .L93+4
	adds	r2, r4, r7
	add	r3, r3, r2
	b	.L92
.L89:
	ldr	r3, .L93+8
	ldrsb	r3, [r3, r6]
	b	.L91
.L94:
	.align	2
.L93:
	.word	.LANCHOR15
	.word	.LANCHOR16
	.word	.LANCHOR17
	.word	.LANCHOR18
	.word	.LANCHOR14
	.size	toshiba_set_rr_para, .-toshiba_set_rr_para
	.section	.text.hynix_reconfig_rr_para,"ax",%progbits
	.align	1
	.global	hynix_reconfig_rr_para
	.syntax unified
	.thumb
	.thumb_func
	.fpu softvfp
	.type	hynix_reconfig_rr_para, %function
hynix_reconfig_rr_para:
	@ args = 0, pretend = 0, frame = 0
	@ frame_needed = 0, uses_anonymous_args = 0
	push	{r3, r4, r5, lr}
	mov	r4, r0
	ldr	r3, .L100
	ldrb	r3, [r3]	@ zero_extendqisi2
	subs	r3, r3, #1
	cmp	r3, #7
	bhi	.L95
	ldr	r5, .L100+4
	ldr	r3, [r5]
	add	r3, r3, r0
	ldrb	r3, [r3, #120]	@ zero_extendqisi2
	cbz	r3, .L95
	movs	r1, #0
	bl	hynix_set_rr_para
	ldr	r0, [r5]
	movs	r3, #0
	add	r0, r0, r4
	strb	r3, [r0, #120]
.L95:
	pop	{r3, r4, r5, pc}
.L101:
	.align	2
.L100:
	.word	.LANCHOR15
	.word	.LANCHOR6
	.size	hynix_reconfig_rr_para, .-hynix_reconfig_rr_para
	.section	.text.nand_flash_print_info,"ax",%progbits
	.align	1
	.global	nand_flash_print_info
	.syntax unified
	.thumb
	.thumb_func
	.fpu softvfp
	.type	nand_flash_print_info, %function
nand_flash_print_info:
	@ args = 0, pretend = 0, frame = 0
	@ frame_needed = 0, uses_anonymous_args = 0
	push	{r4, r5, lr}
	sub	sp, sp, #20
	ldr	r4, .L220
	ldr	r3, [r4]
	lsls	r5, r3, #19
	bpl	.L103
	ldr	r1, .L220+4
	ldr	r0, .L220+8
	bl	printf
.L103:
	ldr	r3, [r4]
	lsls	r0, r3, #19
	bpl	.L104
	ldr	r3, .L220+12
	ldr	r0, [r3]
	ldrb	r5, [r0, #6]	@ zero_extendqisi2
	ldrb	r3, [r0, #3]	@ zero_extendqisi2
	ldrb	r2, [r0, #2]	@ zero_extendqisi2
	ldrb	r1, [r0, #1]	@ zero_extendqisi2
	str	r5, [sp, #8]
	ldrb	r5, [r0, #5]	@ zero_extendqisi2
	str	r5, [sp, #4]
	ldrb	r0, [r0, #4]	@ zero_extendqisi2
	str	r0, [sp]
	ldr	r0, .L220+16
	bl	printf
.L104:
	ldr	r3, [r4]
	lsls	r1, r3, #19
	bpl	.L105
	ldr	r3, .L220+12
	ldr	r0, .L220+20
	ldr	r3, [r3]
	ldrb	r1, [r3, #8]	@ zero_extendqisi2
	bl	printf
.L105:
	ldr	r3, [r4]
	lsls	r2, r3, #19
	bpl	.L106
	ldr	r3, .L220+12
	ldr	r0, .L220+24
	ldr	r3, [r3]
	ldrb	r1, [r3, #9]	@ zero_extendqisi2
	bl	printf
.L106:
	ldr	r3, [r4]
	lsls	r3, r3, #19
	bpl	.L107
	ldr	r3, .L220+12
	ldr	r0, .L220+28
	ldr	r3, [r3]
	ldrh	r1, [r3, #10]
	bl	printf
.L107:
	ldr	r3, [r4]
	lsls	r5, r3, #19
	bpl	.L108
	ldr	r3, .L220+12
	ldr	r0, .L220+32
	ldr	r3, [r3]
	ldrb	r1, [r3, #12]	@ zero_extendqisi2
	bl	printf
.L108:
	ldr	r3, [r4]
	lsls	r0, r3, #19
	bpl	.L109
	ldr	r3, .L220+12
	ldr	r0, .L220+36
	ldr	r3, [r3]
	ldrb	r1, [r3, #13]	@ zero_extendqisi2
	bl	printf
.L109:
	ldr	r3, [r4]
	lsls	r1, r3, #19
	bpl	.L110
	ldr	r3, .L220+12
	ldr	r0, .L220+40
	ldr	r3, [r3]
	ldrh	r1, [r3, #14]
	bl	printf
.L110:
	ldr	r3, [r4]
	lsls	r2, r3, #19
	bpl	.L111
	ldr	r3, .L220+12
	ldr	r0, .L220+44
	ldr	r3, [r3]
	ldrb	r1, [r3, #23]	@ zero_extendqisi2
	bl	printf
.L111:
	ldr	r3, [r4]
	lsls	r3, r3, #19
	bpl	.L112
	ldr	r3, .L220+12
	ldr	r0, .L220+48
	ldr	r3, [r3]
	ldrb	r1, [r3, #18]	@ zero_extendqisi2
	bl	printf
.L112:
	ldr	r3, [r4]
	lsls	r5, r3, #19
	bpl	.L113
	ldr	r3, .L220+12
	ldr	r0, .L220+52
	ldr	r3, [r3]
	ldrb	r1, [r3, #19]	@ zero_extendqisi2
	bl	printf
.L113:
	ldr	r3, [r4]
	lsls	r0, r3, #19
	bpl	.L114
	ldr	r3, .L220+12
	ldr	r0, .L220+56
	ldr	r3, [r3]
	ldrb	r1, [r3, #20]	@ zero_extendqisi2
	bl	printf
.L114:
	ldr	r3, [r4]
	lsls	r1, r3, #19
	bpl	.L115
	ldr	r3, .L220+60
	ldr	r0, .L220+64
	ldrb	r1, [r3]	@ zero_extendqisi2
	bl	printf
.L115:
	ldr	r3, [r4]
	lsls	r2, r3, #19
	bpl	.L116
	ldr	r3, .L220+12
	ldr	r0, .L220+68
	ldr	r3, [r3]
	ldrb	r1, [r3, #22]	@ zero_extendqisi2
	bl	printf
.L116:
	ldr	r3, [r4]
	lsls	r3, r3, #19
	bpl	.L117
	ldr	r3, .L220+72
	ldr	r0, .L220+76
	ldrb	r1, [r3]	@ zero_extendqisi2
	bl	printf
.L117:
	ldr	r3, [r4]
	lsls	r5, r3, #19
	bpl	.L118
	ldr	r3, .L220+12
	ldr	r0, .L220+80
	ldr	r3, [r3]
	ldrb	r1, [r3, #16]	@ zero_extendqisi2
	and	r1, r1, #1
	bl	printf
.L118:
	ldr	r3, [r4]
	lsls	r0, r3, #19
	bpl	.L119
	ldr	r3, .L220+12
	ldr	r0, .L220+84
	ldr	r3, [r3]
	ldrh	r1, [r3, #16]
	ubfx	r1, r1, #1, #1
	bl	printf
.L119:
	ldr	r3, [r4]
	lsls	r1, r3, #19
	bpl	.L120
	ldr	r3, .L220+12
	ldr	r0, .L220+88
	ldr	r3, [r3]
	ldrh	r1, [r3, #16]
	ubfx	r1, r1, #2, #1
	bl	printf
.L120:
	ldr	r3, [r4]
	lsls	r2, r3, #19
	bpl	.L121
	ldr	r3, .L220+12
	ldr	r0, .L220+92
	ldr	r3, [r3]
	ldrh	r1, [r3, #16]
	ubfx	r1, r1, #3, #1
	bl	printf
.L121:
	ldr	r3, [r4]
	lsls	r3, r3, #19
	bpl	.L122
	ldr	r3, .L220+12
	ldr	r0, .L220+96
	ldr	r3, [r3]
	ldrh	r1, [r3, #16]
	ubfx	r1, r1, #4, #1
	bl	printf
.L122:
	ldr	r3, [r4]
	lsls	r5, r3, #19
	bpl	.L123
	ldr	r3, .L220+12
	ldr	r0, .L220+100
	ldr	r3, [r3]
	ldrh	r1, [r3, #16]
	ubfx	r1, r1, #5, #1
	bl	printf
.L123:
	ldr	r3, [r4]
	lsls	r0, r3, #19
	bpl	.L124
	ldr	r3, .L220+12
	ldr	r0, .L220+104
	ldr	r3, [r3]
	ldrh	r1, [r3, #16]
	ubfx	r1, r1, #6, #1
	bl	printf
.L124:
	ldr	r3, [r4]
	lsls	r1, r3, #19
	bpl	.L125
	ldr	r3, .L220+12
	ldr	r0, .L220+108
	ldr	r3, [r3]
	ldrh	r1, [r3, #16]
	ubfx	r1, r1, #7, #1
	bl	printf
.L125:
	ldr	r3, [r4]
	lsls	r2, r3, #19
	bpl	.L126
	ldr	r3, .L220+12
	ldr	r0, .L220+112
	ldr	r3, [r3]
	ldrh	r1, [r3, #16]
	ubfx	r1, r1, #8, #1
	bl	printf
.L126:
	ldr	r3, [r4]
	lsls	r3, r3, #19
	bpl	.L127
	ldr	r3, .L220+12
	ldr	r0, .L220+116
	ldr	r3, [r3]
	ldrh	r1, [r3, #16]
	ubfx	r1, r1, #9, #1
	bl	printf
.L127:
	ldr	r3, [r4]
	lsls	r5, r3, #19
	bpl	.L128
	ldr	r3, .L220+12
	ldr	r0, .L220+120
	ldr	r3, [r3]
	ldrh	r1, [r3, #16]
	ubfx	r1, r1, #10, #1
	bl	printf
.L128:
	ldr	r3, [r4]
	lsls	r0, r3, #19
	bpl	.L129
	ldr	r3, .L220+124
	ldr	r0, .L220+128
	ldrb	r2, [r3]	@ zero_extendqisi2
	ldr	r3, .L220+132
	ldrb	r1, [r3]	@ zero_extendqisi2
	bl	printf
.L129:
	ldr	r3, [r4]
	lsls	r1, r3, #19
	bpl	.L130
	ldr	r3, .L220+136
	ldr	r0, .L220+140
	ldrb	r2, [r3, #11]	@ zero_extendqisi2
	ldrb	r1, [r3, #10]	@ zero_extendqisi2
	bl	printf
.L130:
	ldr	r3, [r4]
	lsls	r2, r3, #19
	bpl	.L131
	ldr	r3, .L220+136
	ldr	r0, .L220+144
	ldrb	r2, [r3, #9]	@ zero_extendqisi2
	ldrb	r1, [r3, #8]	@ zero_extendqisi2
	bl	printf
.L131:
	ldr	r3, [r4]
	lsls	r3, r3, #19
	bpl	.L102
	ldr	r3, .L220+148
	b	.L221
.L222:
	.align	2
.L220:
	.word	.LANCHOR19
	.word	.LANCHOR20
	.word	.LC1
	.word	.LANCHOR21
	.word	.LC2
	.word	.LC3
	.word	.LC4
	.word	.LC5
	.word	.LC6
	.word	.LC7
	.word	.LC8
	.word	.LC9
	.word	.LC10
	.word	.LC11
	.word	.LC12
	.word	.LANCHOR22
	.word	.LC13
	.word	.LC14
	.word	.LANCHOR23
	.word	.LC15
	.word	.LC16
	.word	.LC17
	.word	.LC18
	.word	.LC19
	.word	.LC20
	.word	.LC21
	.word	.LC22
	.word	.LC23
	.word	.LC24
	.word	.LC25
	.word	.LC26
	.word	.LANCHOR24
	.word	.LC27
	.word	.LANCHOR0
	.word	.LANCHOR25
	.word	.LC28
	.word	.LC29
	.word	.LANCHOR26
.L221:
	ldr	r0, .L223
	ldrb	r1, [r3]	@ zero_extendqisi2
	add	sp, sp, #20
	@ sp needed
	pop	{r4, r5, lr}
	b	printf
.L102:
	add	sp, sp, #20
	@ sp needed
	pop	{r4, r5, pc}
.L224:
	.align	2
.L223:
	.word	.LC30
	.size	nand_flash_print_info, .-nand_flash_print_info
	.section	.text.timer_delay_ns,"ax",%progbits
	.align	1
	.global	timer_delay_ns
	.syntax unified
	.thumb
	.thumb_func
	.fpu softvfp
	.type	timer_delay_ns, %function
timer_delay_ns:
	@ args = 0, pretend = 0, frame = 0
	@ frame_needed = 0, uses_anonymous_args = 0
	@ link register save eliminated.
	ldr	r3, .L226
	addw	r0, r0, #999
	umull	r0, r1, r0, r3
	lsrs	r0, r1, #6
	b	udelay
.L227:
	.align	2
.L226:
	.word	274877907
	.size	timer_delay_ns, .-timer_delay_ns
	.section	.text.nandc_set_ddr_para,"ax",%progbits
	.align	1
	.global	nandc_set_ddr_para
	.syntax unified
	.thumb
	.thumb_func
	.fpu softvfp
	.type	nandc_set_ddr_para, %function
nandc_set_ddr_para:
	@ args = 0, pretend = 0, frame = 0
	@ frame_needed = 0, uses_anonymous_args = 0
	@ link register save eliminated.
	ldr	r3, .L231
	ldr	r2, .L231+4
	ldrb	r3, [r3]	@ zero_extendqisi2
	ldr	r2, [r2]
	cmp	r3, #9
	lsl	r3, r0, #16
	lsl	r0, r0, #8
	orr	r3, r3, r0
	orr	r3, r3, #3
	ite	eq
	streq	r3, [r2, #80]
	strne	r3, [r2, #304]
	bx	lr
.L232:
	.align	2
.L231:
	.word	.LANCHOR27
	.word	.LANCHOR7
	.size	nandc_set_ddr_para, .-nandc_set_ddr_para
	.section	.text.nandc_get_ddr_para,"ax",%progbits
	.align	1
	.global	nandc_get_ddr_para
	.syntax unified
	.thumb
	.thumb_func
	.fpu softvfp
	.type	nandc_get_ddr_para, %function
nandc_get_ddr_para:
	@ args = 0, pretend = 0, frame = 0
	@ frame_needed = 0, uses_anonymous_args = 0
	@ link register save eliminated.
	ldr	r3, .L237
	ldrb	r3, [r3]	@ zero_extendqisi2
	cmp	r3, #9
	ldr	r3, .L237+4
	ldr	r3, [r3]
	ite	eq
	ldreq	r0, [r3, #80]
	ldrne	r0, [r3, #304]
	ubfx	r0, r0, #8, #8
	bx	lr
.L238:
	.align	2
.L237:
	.word	.LANCHOR27
	.word	.LANCHOR7
	.size	nandc_get_ddr_para, .-nandc_get_ddr_para
	.section	.text.nandc_set_if_mode,"ax",%progbits
	.align	1
	.global	nandc_set_if_mode
	.syntax unified
	.thumb
	.thumb_func
	.fpu softvfp
	.type	nandc_set_if_mode, %function
nandc_set_if_mode:
	@ args = 0, pretend = 0, frame = 0
	@ frame_needed = 0, uses_anonymous_args = 0
	@ link register save eliminated.
	ldr	r3, .L247
	ands	r1, r0, #6
	ldr	r3, [r3]
	ldr	r2, [r3]
	beq	.L240
	lsls	r1, r0, #29
	ldr	r1, .L247+4
	orr	r2, r2, #24576
	bfc	r2, #15, #1
	ldrb	r1, [r1]	@ zero_extendqisi2
	orr	r2, r2, #196608
	it	mi
	orrmi	r2, r2, #32768
	cmp	r1, #9
	ldr	r1, .L247+8
	bne	.L242
	movw	r0, #8321
	str	r0, [r3, #8]
	str	r1, [r3, #80]
	movs	r1, #38
	str	r1, [r3, #84]
	movs	r1, #39
	str	r1, [r3, #84]
.L243:
	str	r2, [r3]
	bx	lr
.L242:
	movw	r0, #8322
	str	r0, [r3, #344]
	str	r1, [r3, #304]
	movs	r1, #38
	str	r1, [r3, #308]
	movs	r1, #39
	str	r1, [r3, #308]
	b	.L243
.L240:
	bfi	r2, r1, #13, #1
	b	.L243
.L248:
	.align	2
.L247:
	.word	.LANCHOR7
	.word	.LANCHOR27
	.word	1052675
	.size	nandc_set_if_mode, .-nandc_set_if_mode
	.section	.text.nandc_cs,"ax",%progbits
	.align	1
	.global	nandc_cs
	.syntax unified
	.thumb
	.thumb_func
	.fpu softvfp
	.type	nandc_cs, %function
nandc_cs:
	@ args = 0, pretend = 0, frame = 0
	@ frame_needed = 0, uses_anonymous_args = 0
	@ link register save eliminated.
	ldr	r3, .L250
	movs	r2, #1
	lsl	r0, r2, r0
	ldr	r1, [r3]
	ldr	r3, [r1]
	bfi	r3, r0, #0, #8
	str	r3, [r1]
	bx	lr
.L251:
	.align	2
.L250:
	.word	.LANCHOR7
	.size	nandc_cs, .-nandc_cs
	.section	.text.flash_wait_device_ready_raw,"ax",%progbits
	.align	1
	.global	flash_wait_device_ready_raw
	.syntax unified
	.thumb
	.thumb_func
	.fpu softvfp
	.type	flash_wait_device_ready_raw, %function
flash_wait_device_ready_raw:
	@ args = 0, pretend = 0, frame = 0
	@ frame_needed = 0, uses_anonymous_args = 0
	ldr	r3, .L262
	push	{r4, r5, r6, r7, r8, r10, fp, lr}
	mov	r4, r0
	mov	r5, r1
	mov	fp, r2
	ldrb	r3, [r3]	@ zero_extendqisi2
	cmp	r3, r0
	bhi	.L253
	mov	r2, #812
	ldr	r1, .L262+4
	ldr	r0, .L262+8
	bl	printf
.L253:
	ldr	r3, .L262+12
	lsrs	r7, r5, #8
	lsr	r8, r5, #16
	lsr	r10, r5, #24
	ldrb	r6, [r3, r4]	@ zero_extendqisi2
	ldr	r3, .L262+16
	ldr	r4, [r3]
	add	r4, r4, r6, lsl #8
.L259:
	mov	r0, r6
	bl	nandc_cs
	movs	r3, #120
	str	r3, [r4, #2056]
	uxtb	r3, r5
	str	r3, [r4, #2052]
	ldr	r3, .L262+20
	str	r7, [r4, #2052]
	str	r8, [r4, #2052]
	ldrb	r3, [r3]	@ zero_extendqisi2
	cbz	r3, .L254
	str	r10, [r4, #2052]
.L254:
	movs	r0, #1
	bl	udelay
	ldr	r0, [r4, #2048]
	uxtb	r0, r0
	bl	nandc_de_cs.constprop.32
	bics	r3, fp, r0
	bne	.L259
	cmp	r0, #255
	beq	.L259
	pop	{r4, r5, r6, r7, r8, r10, fp, pc}
.L263:
	.align	2
.L262:
	.word	.LANCHOR23
	.word	.LANCHOR28
	.word	.LC0
	.word	.LANCHOR29
	.word	.LANCHOR7
	.word	.LANCHOR30
	.size	flash_wait_device_ready_raw, .-flash_wait_device_ready_raw
	.section	.text.flash_wait_device_ready,"ax",%progbits
	.align	1
	.global	flash_wait_device_ready
	.syntax unified
	.thumb
	.thumb_func
	.fpu softvfp
	.type	flash_wait_device_ready, %function
flash_wait_device_ready:
	@ args = 0, pretend = 0, frame = 0
	@ frame_needed = 0, uses_anonymous_args = 0
	push	{r3, r4, r5, r6, r7, r8, r10, lr}
	tst	r0, #50331648
	ldr	r3, .L274
	mov	r7, r1
	ldrb	r5, [r3]	@ zero_extendqisi2
	mov	r3, #1
	rsb	r6, r5, #24
	lsl	r5, r3, r5
	lsl	r4, r3, r6
	asr	r6, r0, r6
	add	r5, r5, #-1
	add	r4, r4, #-1
	and	r5, r5, r6
	and	r4, r4, r0
	uxtb	r5, r5
	bne	.L265
	ldr	r3, .L274+4
	ldr	r10, .L274+16
	ldrb	r3, [r3]	@ zero_extendqisi2
	cbz	r3, .L266
	ldrb	r3, [r10]	@ zero_extendqisi2
	cbz	r3, .L265
.L266:
	ldr	r3, .L274+8
	mov	r0, r4
	ldrh	r6, [r3]
	mov	r1, r6
	bl	__aeabi_uidiv
	mov	r1, r6
	mul	r8, r6, r0
	mov	r0, r4
	bl	__aeabi_uidivmod
	ldrb	r3, [r10]	@ zero_extendqisi2
	cbz	r3, .L267
	add	r4, r8, r1, lsl #1
.L265:
	mov	r2, r7
	mov	r1, r4
	mov	r0, r5
	pop	{r3, r4, r5, r6, r7, r8, r10, lr}
	b	flash_wait_device_ready_raw
.L267:
	ldr	r3, .L274+12
	ldrh	r4, [r3, r1, lsl #1]
	add	r4, r4, r8
	b	.L265
.L275:
	.align	2
.L274:
	.word	.LANCHOR31
	.word	.LANCHOR0
	.word	.LANCHOR2
	.word	.LANCHOR3
	.word	.LANCHOR1
	.size	flash_wait_device_ready, .-flash_wait_device_ready
	.section	.text.nandc_de_cs,"ax",%progbits
	.align	1
	.global	nandc_de_cs
	.syntax unified
	.thumb
	.thumb_func
	.fpu softvfp
	.type	nandc_de_cs, %function
nandc_de_cs:
	@ args = 0, pretend = 0, frame = 0
	@ frame_needed = 0, uses_anonymous_args = 0
	@ link register save eliminated.
	ldr	r3, .L277
	ldr	r2, [r3]
	ldr	r3, [r2]
	bfc	r3, #0, #8
	bfc	r3, #17, #1
	str	r3, [r2]
	bx	lr
.L278:
	.align	2
.L277:
	.word	.LANCHOR7
	.size	nandc_de_cs, .-nandc_de_cs
	.section	.text.nandc_wait_flash_ready_no_delay,"ax",%progbits
	.align	1
	.global	nandc_wait_flash_ready_no_delay
	.syntax unified
	.thumb
	.thumb_func
	.fpu softvfp
	.type	nandc_wait_flash_ready_no_delay, %function
nandc_wait_flash_ready_no_delay:
	@ args = 0, pretend = 0, frame = 8
	@ frame_needed = 0, uses_anonymous_args = 0
	push	{r0, r1, r2, r4, r5, lr}
	ldr	r4, .L284
	ldr	r5, .L284+4
.L281:
	ldr	r3, [r5]
	ldr	r3, [r3]
	str	r3, [sp, #4]
	ldr	r3, [sp, #4]
	lsls	r3, r3, #22
	bmi	.L282
	movs	r0, #1
	bl	udelay
	subs	r4, r4, #1
	bne	.L281
	mov	r0, #-1
.L279:
	add	sp, sp, #12
	@ sp needed
	pop	{r4, r5, pc}
.L282:
	movs	r0, #0
	b	.L279
.L285:
	.align	2
.L284:
	.word	100000
	.word	.LANCHOR7
	.size	nandc_wait_flash_ready_no_delay, .-nandc_wait_flash_ready_no_delay
	.section	.text.zftl_flash_enter_slc_mode,"ax",%progbits
	.align	1
	.global	zftl_flash_enter_slc_mode
	.syntax unified
	.thumb
	.thumb_func
	.fpu softvfp
	.type	zftl_flash_enter_slc_mode, %function
zftl_flash_enter_slc_mode:
	@ args = 0, pretend = 0, frame = 0
	@ frame_needed = 0, uses_anonymous_args = 0
	push	{r3, r4, r5, r6, r7, lr}
	mov	r7, r0
	ldr	r3, .L305
	ldrb	r3, [r3]	@ zero_extendqisi2
	cmp	r3, #0
	beq	.L286
	ldr	r2, .L305+4
	cmp	r3, #1
	ldr	r4, [r2]
	bne	.L289
	ldr	r3, .L305+8
	ldrb	r3, [r3, #29]	@ zero_extendqisi2
	cmp	r3, #0
	beq	.L286
.L304:
	add	r4, r4, r7, lsl #8
	str	r3, [r4, #2056]
	pop	{r3, r4, r5, r6, r7, pc}
.L289:
	cmp	r3, #2
	bne	.L291
	ldr	r3, .L305+12
	ldrb	r2, [r3, r0]	@ zero_extendqisi2
	cbz	r2, .L286
	ldr	r5, .L305+8
	movs	r2, #0
	strb	r2, [r3, r0]
	ldrb	r3, [r5, #29]	@ zero_extendqisi2
	cbz	r3, .L286
	bl	nandc_wait_flash_ready_no_delay
	ldrb	r3, [r5, #29]	@ zero_extendqisi2
	b	.L304
.L291:
	cmp	r3, #3
	bne	.L286
	ldr	r6, .L305+12
	ldrb	r3, [r6, r0]	@ zero_extendqisi2
	cbz	r3, .L286
	add	r4, r4, r7, lsl #8
	movs	r5, #0
	bl	nandc_wait_flash_ready_no_delay
	movs	r3, #239
	strb	r5, [r6, r7]
	str	r3, [r4, #2056]
	movs	r3, #145
	str	r3, [r4, #2052]
	movs	r6, #1
	movs	r0, #1
	bl	udelay
	str	r5, [r4, #2048]
	mov	r0, r6
	str	r6, [r4, #2048]
	str	r5, [r4, #2048]
	str	r5, [r4, #2048]
	bl	udelay
	bl	nandc_wait_flash_ready_no_delay
	movs	r3, #218
	mov	r0, r6
	str	r3, [r4, #2056]
	pop	{r3, r4, r5, r6, r7, lr}
	b	udelay
.L286:
	pop	{r3, r4, r5, r6, r7, pc}
.L306:
	.align	2
.L305:
	.word	.LANCHOR0
	.word	.LANCHOR7
	.word	.LANCHOR32
	.word	.LANCHOR33
	.size	zftl_flash_enter_slc_mode, .-zftl_flash_enter_slc_mode
	.section	.text.zftl_flash_exit_slc_mode,"ax",%progbits
	.align	1
	.global	zftl_flash_exit_slc_mode
	.syntax unified
	.thumb
	.thumb_func
	.fpu softvfp
	.type	zftl_flash_exit_slc_mode, %function
zftl_flash_exit_slc_mode:
	@ args = 0, pretend = 0, frame = 0
	@ frame_needed = 0, uses_anonymous_args = 0
	push	{r3, r4, r5, r6, r7, r8, r10, lr}
	mov	r4, r0
	ldr	r3, .L328
	ldrb	r3, [r3]	@ zero_extendqisi2
	cmp	r3, #0
	beq	.L307
	ldr	r2, .L328+4
	cmp	r3, #1
	ldr	r6, [r2]
	bne	.L310
	ldr	r3, .L328+8
	ldrb	r3, [r3, #30]	@ zero_extendqisi2
	cmp	r3, #0
	beq	.L307
.L327:
	add	r4, r6, r4, lsl #8
	str	r3, [r4, #2056]
	pop	{r3, r4, r5, r6, r7, r8, r10, pc}
.L310:
	cmp	r3, #2
	bne	.L312
	ldr	r2, .L328+12
	ldrb	r3, [r2, r0]	@ zero_extendqisi2
	cmp	r3, #0
	bne	.L307
	ldr	r5, .L328+8
	ldrb	r3, [r5, #12]	@ zero_extendqisi2
	cmp	r3, #2
	it	ne
	movne	r3, #4
	strb	r3, [r2, r0]
	ldrb	r3, [r5, #30]	@ zero_extendqisi2
	cmp	r3, #0
	beq	.L307
	bl	nandc_wait_flash_ready_no_delay
	ldrb	r3, [r5, #30]	@ zero_extendqisi2
	b	.L327
.L312:
	cmp	r3, #3
	bne	.L307
	ldr	r7, .L328+12
	ldrb	r3, [r7, r0]	@ zero_extendqisi2
	cbnz	r3, .L307
	ldr	r10, .L328+8
	lsl	r8, r4, #8
	bl	nandc_wait_flash_ready_no_delay
	ldrb	r3, [r10, #12]	@ zero_extendqisi2
	add	r5, r6, r8
	movs	r0, #1
	add	r6, r6, r8
	cmp	r3, #2
	it	ne
	movne	r3, #4
	strb	r3, [r7, r4]
	movs	r3, #239
	str	r3, [r5, #2056]
	movs	r3, #145
	str	r3, [r5, #2052]
	bl	udelay
	ldrb	r3, [r10, #7]	@ zero_extendqisi2
	movs	r0, #1
	cmp	r3, #9
	mov	r3, #1
	itet	ne
	ldrbne	r2, [r7, r4]	@ zero_extendqisi2
	streq	r3, [r5, #2048]
	strne	r2, [r5, #2048]
	str	r3, [r5, #2048]
	movs	r3, #0
	str	r3, [r5, #2048]
	str	r3, [r5, #2048]
	bl	udelay
	bl	nandc_wait_flash_ready_no_delay
	movs	r3, #223
	movs	r0, #1
	str	r3, [r6, #2056]
	pop	{r3, r4, r5, r6, r7, r8, r10, lr}
	b	udelay
.L307:
	pop	{r3, r4, r5, r6, r7, r8, r10, pc}
.L329:
	.align	2
.L328:
	.word	.LANCHOR0
	.word	.LANCHOR7
	.word	.LANCHOR32
	.word	.LANCHOR33
	.size	zftl_flash_exit_slc_mode, .-zftl_flash_exit_slc_mode
	.section	.text.flash_start_page_read,"ax",%progbits
	.align	1
	.global	flash_start_page_read
	.syntax unified
	.thumb
	.thumb_func
	.fpu softvfp
	.type	flash_start_page_read, %function
flash_start_page_read:
	@ args = 0, pretend = 0, frame = 0
	@ frame_needed = 0, uses_anonymous_args = 0
	ldr	r3, .L344
	push	{r4, r5, r6, r7, r8, r10, fp, lr}
	mov	r5, r0
	ldr	r4, .L344+4
	mov	fp, r1
	ldrb	r2, [r3]	@ zero_extendqisi2
	movs	r3, #1
	rsb	r7, r2, #24
	lsls	r3, r3, r2
	lsr	r2, r1, r7
	subs	r3, r3, #1
	ands	r3, r3, r2
	ldrb	r2, [r4]	@ zero_extendqisi2
	uxtb	r8, r3
	cmp	r2, r8
	bhi	.L331
	movw	r2, #1013
	ldr	r1, .L344+8
	ldr	r0, .L344+12
	bl	printf
.L331:
	ldrb	r3, [r4]	@ zero_extendqisi2
	cmp	r3, r8
	bls	.L330
	ldr	r3, .L344+16
	movs	r4, #1
	lsls	r4, r4, r7
	ldr	r6, .L344+20
	ldrb	r10, [r3, r8]	@ zero_extendqisi2
	subs	r4, r4, #1
	ldr	r3, .L344+24
	and	r4, r4, fp
	ubfx	fp, fp, #24, #2
	mov	r0, r10
	ldr	r7, [r3]
	lsl	r8, r10, #8
	bl	nandc_cs
	cmp	fp, #0
	bne	.L333
	mov	r0, r4
	bl	slc_phy_page_address_calc
	ldr	r3, .L344+28
	mov	r4, r0
	ldrb	r3, [r3]	@ zero_extendqisi2
	cbz	r3, .L334
	mov	r0, r10
	bl	zftl_flash_enter_slc_mode
.L334:
	ldr	r3, [r6]
	ldrb	r2, [r3, #7]	@ zero_extendqisi2
	cmp	r2, #1
	bne	.L336
	ldrb	r3, [r3, #12]	@ zero_extendqisi2
	cmp	r3, #2
	ittt	eq
	addeq	r3, r7, r8
	moveq	r2, #38
	streq	r2, [r3, #2056]
.L336:
	add	r3, r7, r8
	movs	r2, #0
	str	r2, [r3, #2056]
	str	r2, [r3, #2052]
	str	r2, [r3, #2052]
	uxtb	r2, r4
	str	r2, [r3, #2052]
	lsrs	r2, r4, #8
	str	r2, [r3, #2052]
	lsrs	r2, r4, #16
	str	r2, [r3, #2052]
	ldr	r2, .L344+32
	ldrb	r2, [r2]	@ zero_extendqisi2
	cbz	r2, .L337
	lsrs	r4, r4, #24
	str	r4, [r3, #2052]
.L337:
	add	r3, r7, r8
	str	r5, [r3, #2056]
.L330:
	pop	{r4, r5, r6, r7, r8, r10, fp, pc}
.L333:
	ldr	r3, [r6]
	ldrb	r3, [r3, #12]	@ zero_extendqisi2
	cmp	r3, #3
	bne	.L335
	ldr	r3, .L344+36
	ldrb	r3, [r3]	@ zero_extendqisi2
	cbnz	r3, .L335
	ldr	r3, .L344+40
	ldrb	r3, [r3]	@ zero_extendqisi2
	cbnz	r3, .L335
	add	r3, r7, r8
	str	fp, [r3, #2056]
	b	.L334
.L335:
	mov	r0, r10
	bl	zftl_flash_exit_slc_mode
	b	.L334
.L345:
	.align	2
.L344:
	.word	.LANCHOR31
	.word	.LANCHOR23
	.word	.LANCHOR34
	.word	.LC0
	.word	.LANCHOR29
	.word	.LANCHOR21
	.word	.LANCHOR7
	.word	.LANCHOR0
	.word	.LANCHOR30
	.word	.LANCHOR35
	.word	.LANCHOR36
	.size	flash_start_page_read, .-flash_start_page_read
	.section	.text.nandc_wait_flash_ready,"ax",%progbits
	.align	1
	.global	nandc_wait_flash_ready
	.syntax unified
	.thumb
	.thumb_func
	.fpu softvfp
	.type	nandc_wait_flash_ready, %function
nandc_wait_flash_ready:
	@ args = 0, pretend = 0, frame = 8
	@ frame_needed = 0, uses_anonymous_args = 0
	push	{r0, r1, r2, r4, r5, lr}
	movs	r0, #1
	ldr	r4, .L351
	ldr	r5, .L351+4
	bl	udelay
.L348:
	ldr	r3, [r5]
	ldr	r3, [r3]
	str	r3, [sp, #4]
	ldr	r3, [sp, #4]
	lsls	r3, r3, #22
	bmi	.L349
	movs	r0, #1
	bl	udelay
	subs	r4, r4, #1
	bne	.L348
	mov	r0, #-1
.L346:
	add	sp, sp, #12
	@ sp needed
	pop	{r4, r5, pc}
.L349:
	movs	r0, #0
	b	.L346
.L352:
	.align	2
.L351:
	.word	100000
	.word	.LANCHOR7
	.size	nandc_wait_flash_ready, .-nandc_wait_flash_ready
	.section	.text.sandisk_set_rr_para,"ax",%progbits
	.align	1
	.global	sandisk_set_rr_para
	.syntax unified
	.thumb
	.thumb_func
	.fpu softvfp
	.type	sandisk_set_rr_para, %function
sandisk_set_rr_para:
	@ args = 0, pretend = 0, frame = 0
	@ frame_needed = 0, uses_anonymous_args = 0
	push	{r3, r4, r5, r6, r7, lr}
	movs	r3, #239
	str	r3, [r0, #8]
	movs	r3, #17
	mov	r5, r0
	mov	r4, r1
	str	r3, [r0, #4]
	movs	r0, #1
	bl	udelay
	ldr	r3, .L359
	add	r4, r4, r4, lsl #2
	ldr	r6, .L359+4
	movs	r2, #0
	ldr	r7, .L359+8
	ldrb	r1, [r3]	@ zero_extendqisi2
	ldr	r3, .L359+12
	ldrb	r0, [r3]	@ zero_extendqisi2
.L354:
	cmp	r2, r1
	bcc	.L357
	pop	{r3, r4, r5, r6, r7, lr}
	b	nandc_wait_flash_ready
.L357:
	adds	r3, r2, r4
	cmp	r0, #67
	ite	eq
	addeq	r3, r3, r7
	addne	r3, r3, r6
	ldrsb	r3, [r3, #5]
	adds	r2, r2, #1
	str	r3, [r5]
	b	.L354
.L360:
	.align	2
.L359:
	.word	.LANCHOR18
	.word	.LANCHOR16
	.word	.LANCHOR14
	.word	.LANCHOR15
	.size	sandisk_set_rr_para, .-sandisk_set_rr_para
	.section	.text.toshiba_3d_set_tlc_rr_para,"ax",%progbits
	.align	1
	.global	toshiba_3d_set_tlc_rr_para
	.syntax unified
	.thumb
	.thumb_func
	.fpu softvfp
	.type	toshiba_3d_set_tlc_rr_para, %function
toshiba_3d_set_tlc_rr_para:
	@ args = 0, pretend = 0, frame = 0
	@ frame_needed = 0, uses_anonymous_args = 0
	push	{r3, r4, r5, r6, r7, lr}
	movs	r6, #0
	movs	r7, #213
	mvn	r3, #118
	adds	r1, r1, #1
	mov	r4, r0
	str	r7, [r0, #8]
	rsb	r1, r1, r1, lsl #3
	str	r6, [r0, #4]
	str	r3, [r0, #4]
	ldr	r3, .L362
	adds	r5, r3, r1
	ldrsb	r3, [r3, r1]
	str	r3, [r0]
	ldrsb	r3, [r5, #1]
	str	r3, [r0]
	ldrsb	r3, [r5, #2]
	str	r3, [r0]
	ldrsb	r3, [r5, #3]
	str	r3, [r0]
	bl	nandc_wait_flash_ready
	mvn	r3, #117
	str	r7, [r4, #8]
	str	r6, [r4, #4]
	str	r3, [r4, #4]
	ldrsb	r3, [r5, #4]
	str	r3, [r4]
	ldrsb	r3, [r5, #5]
	str	r3, [r4]
	ldrsb	r3, [r5, #6]
	str	r3, [r4]
	str	r6, [r4]
	pop	{r3, r4, r5, r6, r7, lr}
	b	nandc_wait_flash_ready
.L363:
	.align	2
.L362:
	.word	.LANCHOR37
	.size	toshiba_3d_set_tlc_rr_para, .-toshiba_3d_set_tlc_rr_para
	.section	.text.toshiba_3d_set_slc_rr_para,"ax",%progbits
	.align	1
	.global	toshiba_3d_set_slc_rr_para
	.syntax unified
	.thumb
	.thumb_func
	.fpu softvfp
	.type	toshiba_3d_set_slc_rr_para, %function
toshiba_3d_set_slc_rr_para:
	@ args = 0, pretend = 0, frame = 0
	@ frame_needed = 0, uses_anonymous_args = 0
	@ link register save eliminated.
	movs	r3, #213
	mvn	r2, #116
	str	r3, [r0, #8]
	movs	r3, #0
	str	r3, [r0, #4]
	str	r2, [r0, #4]
	ldr	r2, .L365
	add	r1, r1, r2
	ldrsb	r2, [r1, #1]
	str	r2, [r0]
	str	r3, [r0]
	str	r3, [r0]
	str	r3, [r0]
	b	nandc_wait_flash_ready
.L366:
	.align	2
.L365:
	.word	.LANCHOR38
	.size	toshiba_3d_set_slc_rr_para, .-toshiba_3d_set_slc_rr_para
	.section	.text.toshiba_tlc_set_rr_para,"ax",%progbits
	.align	1
	.global	toshiba_tlc_set_rr_para
	.syntax unified
	.thumb
	.thumb_func
	.fpu softvfp
	.type	toshiba_tlc_set_rr_para, %function
toshiba_tlc_set_rr_para:
	@ args = 0, pretend = 0, frame = 0
	@ frame_needed = 0, uses_anonymous_args = 0
	push	{r4, r5, r6, lr}
	movs	r6, #239
	mov	r4, r0
	str	r6, [r0, #8]
	cbz	r2, .L368
	movs	r3, #18
	rsb	r1, r1, r1, lsl #3
	str	r3, [r0, #4]
	ldr	r3, .L370
	adds	r5, r3, r1
	ldrb	r3, [r3, r1]	@ zero_extendqisi2
	str	r3, [r0]
	ldrb	r3, [r5, #1]	@ zero_extendqisi2
	str	r3, [r0]
	ldrb	r3, [r5, #2]	@ zero_extendqisi2
	str	r3, [r0]
	ldrb	r3, [r5, #3]	@ zero_extendqisi2
	str	r3, [r0]
	bl	nandc_wait_flash_ready
	movs	r3, #19
	str	r6, [r4, #8]
	str	r3, [r4, #4]
	ldrb	r3, [r5, #4]	@ zero_extendqisi2
	str	r3, [r4]
	ldrb	r3, [r5, #5]	@ zero_extendqisi2
	str	r3, [r4]
	ldrb	r3, [r5, #6]	@ zero_extendqisi2
	str	r3, [r4]
	movs	r3, #0
	str	r3, [r4]
.L369:
	pop	{r4, r5, r6, lr}
	b	nandc_wait_flash_ready
.L368:
	movs	r3, #20
	str	r3, [r0, #4]
	ldr	r3, .L370+4
	ldrb	r3, [r3, r1]	@ zero_extendqisi2
	str	r3, [r0]
	str	r2, [r0]
	str	r2, [r0]
	str	r2, [r0]
	b	.L369
.L371:
	.align	2
.L370:
	.word	.LANCHOR39
	.word	.LANCHOR40
	.size	toshiba_tlc_set_rr_para, .-toshiba_tlc_set_rr_para
	.section	.text.ymtc_3d_set_tlc_rr_para,"ax",%progbits
	.align	1
	.global	ymtc_3d_set_tlc_rr_para
	.syntax unified
	.thumb
	.thumb_func
	.fpu softvfp
	.type	ymtc_3d_set_tlc_rr_para, %function
ymtc_3d_set_tlc_rr_para:
	@ args = 0, pretend = 0, frame = 0
	@ frame_needed = 0, uses_anonymous_args = 0
	push	{r3, r4, r5, r6, r7, lr}
	movs	r7, #239
	movs	r3, #160
	str	r7, [r0, #8]
	rsb	r1, r1, r1, lsl #3
	movs	r6, #0
	str	r3, [r0, #4]
	mov	r4, r0
	ldr	r3, .L373
	adds	r5, r3, r1
	ldrsb	r3, [r3, r1]
	str	r3, [r0]
	ldrsb	r3, [r5, #4]
	str	r3, [r0]
	str	r6, [r0]
	str	r6, [r0]
	bl	nandc_wait_flash_ready
	movs	r3, #161
	str	r7, [r4, #8]
	str	r3, [r4, #4]
	ldrsb	r3, [r5, #1]
	str	r3, [r4]
	ldrsb	r3, [r5, #3]
	str	r3, [r4]
	ldrsb	r3, [r5, #5]
	str	r3, [r4]
	str	r6, [r4]
	bl	nandc_wait_flash_ready
	movs	r3, #162
	str	r7, [r4, #8]
	str	r3, [r4, #4]
	ldrsb	r3, [r5, #2]
	str	r3, [r4]
	ldrsb	r3, [r5, #6]
	str	r3, [r4]
	str	r6, [r4]
	str	r6, [r4]
	pop	{r3, r4, r5, r6, r7, lr}
	b	nandc_wait_flash_ready
.L374:
	.align	2
.L373:
	.word	.LANCHOR41
	.size	ymtc_3d_set_tlc_rr_para, .-ymtc_3d_set_tlc_rr_para
	.section	.text.ymtc_3d_set_slc_rr_para,"ax",%progbits
	.align	1
	.global	ymtc_3d_set_slc_rr_para
	.syntax unified
	.thumb
	.thumb_func
	.fpu softvfp
	.type	ymtc_3d_set_slc_rr_para, %function
ymtc_3d_set_slc_rr_para:
	@ args = 0, pretend = 0, frame = 0
	@ frame_needed = 0, uses_anonymous_args = 0
	@ link register save eliminated.
	movs	r3, #239
	str	r3, [r0, #8]
	movs	r3, #163
	str	r3, [r0, #4]
	ldr	r3, .L376
	ldrsb	r3, [r3, r1]
	str	r3, [r0]
	movs	r3, #0
	str	r3, [r0]
	str	r3, [r0]
	str	r3, [r0]
	b	nandc_wait_flash_ready
.L377:
	.align	2
.L376:
	.word	.LANCHOR42
	.size	ymtc_3d_set_slc_rr_para, .-ymtc_3d_set_slc_rr_para
	.section	.text.flash_erase_duplane_block,"ax",%progbits
	.align	1
	.global	flash_erase_duplane_block
	.syntax unified
	.thumb
	.thumb_func
	.fpu softvfp
	.type	flash_erase_duplane_block, %function
flash_erase_duplane_block:
	@ args = 0, pretend = 0, frame = 8
	@ frame_needed = 0, uses_anonymous_args = 0
	push	{r0, r1, r4, r5, r6, r7, r8, r10, fp, lr}
	mov	r5, r2
	ldr	r4, .L402
	mov	r7, r0
	mov	r6, r1
	mov	r10, r3
	ldrb	r2, [r4]	@ zero_extendqisi2
	cmp	r2, r0
	bhi	.L379
	movw	r2, #695
	ldr	r1, .L402+4
	ldr	r0, .L402+8
	bl	printf
.L379:
	ldrb	r3, [r4]	@ zero_extendqisi2
	cmp	r3, r7
	bls	.L388
	ldr	r3, .L402+12
	ldrb	r4, [r3, r7]	@ zero_extendqisi2
	ldr	r3, .L402+16
	add	r7, r4, #8
	ldr	r8, [r3]
	ldr	r3, .L402+20
	ldr	r3, [r3]
	add	r7, r8, r7, lsl #8
	lsls	r3, r3, #27
	bpl	.L381
	mov	r3, r10
	mov	r2, r5
	mov	r1, r4
	ldr	r0, .L402+24
	bl	printf
.L381:
	bl	nandc_wait_flash_ready
	mov	r0, r4
	bl	nandc_cs
	mov	r0, r4
	cmp	r6, #0
	bne	.L382
	bl	zftl_flash_enter_slc_mode
.L383:
	lsls	r4, r4, #8
	movs	r3, #96
	add	r6, r8, r4
	str	r3, [r6, #2056]
	uxtb	r3, r5
	str	r3, [r6, #2052]
	lsrs	r3, r5, #8
	str	r3, [r6, #2052]
	lsrs	r3, r5, #16
	str	r3, [r6, #2052]
	ldr	r3, .L402+28
	ldrb	r2, [r3]	@ zero_extendqisi2
	cbz	r2, .L384
	lsrs	r2, r5, #24
	str	r2, [r6, #2052]
.L384:
	ldr	r2, .L402+32
	ldrb	r2, [r2]	@ zero_extendqisi2
	cmp	r2, #0
	bne	.L389
	add	r2, r8, r4
	movs	r1, #208
	str	r1, [r2, #2056]
	str	r3, [sp, #4]
	bl	nandc_wait_flash_ready
	mov	r0, r7
	bl	flash_read_status
	ldr	r3, [sp, #4]
	and	fp, r0, #5
.L385:
	add	r2, r8, r4
	movs	r1, #96
	str	r1, [r2, #2056]
	uxtb	r2, r10
	ldrb	r3, [r3]	@ zero_extendqisi2
	str	r2, [r6, #2052]
	lsr	r2, r10, #8
	str	r2, [r6, #2052]
	lsr	r2, r10, #16
	str	r2, [r6, #2052]
	cbz	r3, .L386
	lsr	r2, r10, #24
	str	r2, [r6, #2052]
.L386:
	movs	r3, #208
	add	r0, r8, r4
	str	r3, [r0, #2056]
	bl	nandc_wait_flash_ready
	mov	r0, r7
	bl	flash_read_status
	bl	nandc_de_cs.constprop.32
	and	r3, r0, #5
	orrs	fp, r3, fp
	beq	.L387
	mov	r2, r0
	mov	r1, r5
	ldr	r0, .L402+36
	bl	printf
.L387:
	mov	r0, fp
.L378:
	add	sp, sp, #8
	@ sp needed
	pop	{r4, r5, r6, r7, r8, r10, fp, pc}
.L382:
	bl	zftl_flash_exit_slc_mode
	b	.L383
.L389:
	mov	fp, #0
	b	.L385
.L388:
	mov	r0, #-1
	b	.L378
.L403:
	.align	2
.L402:
	.word	.LANCHOR23
	.word	.LANCHOR43
	.word	.LC0
	.word	.LANCHOR29
	.word	.LANCHOR7
	.word	.LANCHOR19
	.word	.LC31
	.word	.LANCHOR30
	.word	.LANCHOR44
	.word	.LC32
	.size	flash_erase_duplane_block, .-flash_erase_duplane_block
	.section	.text.flash_erase_block_en,"ax",%progbits
	.align	1
	.global	flash_erase_block_en
	.syntax unified
	.thumb
	.thumb_func
	.fpu softvfp
	.type	flash_erase_block_en, %function
flash_erase_block_en:
	@ args = 0, pretend = 0, frame = 0
	@ frame_needed = 0, uses_anonymous_args = 0
	ldr	r3, .L422
	push	{r4, r5, r6, r7, r8, r10, fp, lr}
	mov	r7, r2
	ldr	r5, .L422+4
	mov	r6, r0
	mov	fp, r1
	ldrb	r4, [r3]	@ zero_extendqisi2
	rsb	r3, r4, #24
	movs	r4, #1
	lsls	r4, r4, r3
	subs	r4, r4, #1
	ands	r4, r4, r2
	ldrb	r2, [r5]	@ zero_extendqisi2
	cmp	r2, r0
	bhi	.L405
	movw	r2, #757
	ldr	r1, .L422+8
	ldr	r0, .L422+12
	bl	printf
.L405:
	ldrb	r3, [r5]	@ zero_extendqisi2
	cmp	r3, r6
	bls	.L412
	ldr	r3, .L422+16
	ldrb	r5, [r3, r6]	@ zero_extendqisi2
	ldr	r3, .L422+20
	add	r10, r5, #8
	ldr	r8, [r3]
	ldr	r3, .L422+24
	ldr	r3, [r3]
	add	r10, r8, r10, lsl #8
	lsls	r3, r3, #27
	bpl	.L407
	mov	r3, fp
	mov	r2, r7
	mov	r1, r5
	ldr	r0, .L422+28
	bl	printf
.L407:
	bl	nandc_wait_flash_ready
	mov	r0, r5
	bl	nandc_cs
	mov	r0, r5
	cmp	fp, #0
	bne	.L408
	bl	zftl_flash_enter_slc_mode
.L409:
	lsls	r5, r5, #8
	movs	r2, #96
	add	r3, r8, r5
	str	r2, [r3, #2056]
	uxtb	r2, r4
	str	r2, [r3, #2052]
	lsrs	r2, r4, #8
	str	r2, [r3, #2052]
	lsrs	r2, r4, #16
	str	r2, [r3, #2052]
	ldr	r2, .L422+32
	ldrb	r2, [r2]	@ zero_extendqisi2
	cbz	r2, .L410
	lsrs	r4, r4, #24
	str	r4, [r3, #2052]
.L410:
	movs	r3, #208
	add	r5, r5, r8
	str	r3, [r5, #2056]
	bl	nandc_wait_flash_ready
	mov	r0, r10
	bl	flash_read_status
	bl	nandc_de_cs.constprop.32
	ands	r4, r0, #5
	beq	.L411
	ldr	r3, .L422+36
	mov	r0, r7
	ldrh	r1, [r3]
	bl	__aeabi_uidiv
	mov	r3, r4
	mov	r4, #-1
	mov	r2, r0
	mov	r1, r6
	ldr	r0, .L422+40
	bl	printf
.L411:
	mov	r0, r4
	pop	{r4, r5, r6, r7, r8, r10, fp, pc}
.L408:
	bl	zftl_flash_exit_slc_mode
	b	.L409
.L412:
	mov	r0, #-1
	pop	{r4, r5, r6, r7, r8, r10, fp, pc}
.L423:
	.align	2
.L422:
	.word	.LANCHOR31
	.word	.LANCHOR23
	.word	.LANCHOR45
	.word	.LC0
	.word	.LANCHOR29
	.word	.LANCHOR7
	.word	.LANCHOR19
	.word	.LC33
	.word	.LANCHOR30
	.word	.LANCHOR2
	.word	.LC34
	.size	flash_erase_block_en, .-flash_erase_block_en
	.section	.text.flash_erase_block,"ax",%progbits
	.align	1
	.global	flash_erase_block
	.syntax unified
	.thumb
	.thumb_func
	.fpu softvfp
	.type	flash_erase_block, %function
flash_erase_block:
	@ args = 0, pretend = 0, frame = 0
	@ frame_needed = 0, uses_anonymous_args = 0
	@ link register save eliminated.
	mov	r2, r1
	movs	r1, #0
	b	flash_erase_block_en
	.size	flash_erase_block, .-flash_erase_block
	.section	.text.flash_erase_all,"ax",%progbits
	.align	1
	.global	flash_erase_all
	.syntax unified
	.thumb
	.thumb_func
	.fpu softvfp
	.type	flash_erase_all, %function
flash_erase_all:
	@ args = 0, pretend = 0, frame = 0
	@ frame_needed = 0, uses_anonymous_args = 0
	ldr	r3, .L430
	push	{r4, r5, r6, r7, r8, lr}
	movs	r5, #0
	ldr	r7, .L430+4
	ldrb	r4, [r3, #13]	@ zero_extendqisi2
	ldrh	r3, [r3, #14]
	smulbb	r4, r4, r3
	uxth	r4, r4
.L426:
	ldr	r3, .L430+8
	ldrb	r2, [r3]	@ zero_extendqisi2
	uxth	r3, r5
	cmp	r2, r3
	bhi	.L429
	movs	r1, #0
	ldr	r0, .L430+12
	pop	{r4, r5, r6, r7, r8, lr}
	b	printf
.L429:
	ldr	r2, .L430+16
	uxth	r3, r5
	movs	r6, #0
	ldrb	r8, [r2, r3]	@ zero_extendqisi2
.L427:
	uxth	r3, r6
	cmp	r4, r3
	bhi	.L428
	adds	r5, r5, #1
	b	.L426
.L428:
	ldrh	r1, [r7]
	mov	r0, r8
	muls	r1, r6, r1
	adds	r6, r6, #1
	bl	flash_erase_block
	b	.L427
.L431:
	.align	2
.L430:
	.word	.LANCHOR32
	.word	.LANCHOR2
	.word	.LANCHOR23
	.word	.LC35
	.word	.LANCHOR29
	.size	flash_erase_all, .-flash_erase_all
	.section	.text.flash_start_plane_read,"ax",%progbits
	.align	1
	.global	flash_start_plane_read
	.syntax unified
	.thumb
	.thumb_func
	.fpu softvfp
	.type	flash_start_plane_read, %function
flash_start_plane_read:
	@ args = 0, pretend = 0, frame = 8
	@ frame_needed = 0, uses_anonymous_args = 0
	ldr	r3, .L460
	push	{r0, r1, r4, r5, r6, r7, r8, r10, fp, lr}
	ubfx	r10, r0, #24, #2
	ldrb	r5, [r3]	@ zero_extendqisi2
	movs	r3, #1
	rsb	r2, r5, #24
	lsl	r4, r3, r2
	lsl	r5, r3, r5
	ldr	r3, .L460+4
	lsr	r2, r0, r2
	subs	r5, r5, #1
	ands	r5, r5, r2
	subs	r4, r4, #1
	ldrb	r3, [r3]	@ zero_extendqisi2
	uxtb	r5, r5
	and	r7, r4, r0
	ands	r4, r4, r1
	cmp	r3, r5
	bhi	.L433
	movw	r2, #1148
	ldr	r1, .L460+8
	ldr	r0, .L460+12
	bl	printf
.L433:
	ldr	r3, .L460+16
	ldr	fp, .L460+44
	ldrb	r5, [r3, r5]	@ zero_extendqisi2
	ldr	r3, .L460+20
	mov	r0, r5
	ldr	r6, [r3]
	lsl	r8, r5, #8
	bl	nandc_cs
	cmp	r10, #0
	bne	.L434
	mov	r0, r7
	bl	slc_phy_page_address_calc
	mov	r7, r0
	mov	r0, r4
	bl	slc_phy_page_address_calc
	ldr	r3, .L460+24
	mov	r4, r0
	ldrb	r3, [r3]	@ zero_extendqisi2
	cbz	r3, .L435
	mov	r0, r5
	bl	zftl_flash_enter_slc_mode
.L435:
	ldr	r2, .L460+28
	uxtb	ip, r7
	lsrs	r0, r7, #8
	ldrb	r3, [r2, #16]	@ zero_extendqisi2
	cmp	r3, #1
	bne	.L437
	ldrb	r3, [r2, #8]	@ zero_extendqisi2
	add	r5, r6, r8
	str	r3, [r5, #2056]
	movs	r3, #0
	str	r3, [r5, #2052]
	str	r3, [r5, #2052]
	lsrs	r3, r7, #16
	str	ip, [r5, #2052]
	str	r0, [r5, #2052]
	str	r3, [r5, #2052]
	ldr	r3, .L460+32
	ldrb	r1, [r3]	@ zero_extendqisi2
	cbz	r1, .L438
	lsrs	r7, r7, #24
	str	r7, [r5, #2052]
.L438:
	ldrb	r2, [r2, #9]	@ zero_extendqisi2
	add	r7, r6, r8
	str	r3, [sp, #4]
	str	r2, [r7, #2056]
	bl	nandc_wait_flash_ready
	ldr	r2, [fp]
	ldr	r3, [sp, #4]
	ldrb	r2, [r2, #12]	@ zero_extendqisi2
	cmp	r2, #3
	bne	.L439
	cmp	r10, #0
	beq	.L439
	str	r10, [r7, #2056]
.L439:
	movs	r2, #0
	add	r1, r6, r8
	str	r2, [r1, #2056]
	str	r2, [r5, #2052]
	str	r2, [r5, #2052]
	uxtb	r2, r4
	ldrb	r3, [r3]	@ zero_extendqisi2
	str	r2, [r5, #2052]
	lsrs	r2, r4, #8
	str	r2, [r5, #2052]
	lsrs	r2, r4, #16
	str	r2, [r5, #2052]
	cbz	r3, .L440
	lsrs	r4, r4, #24
	str	r4, [r5, #2052]
.L440:
	add	r6, r6, r8
.L459:
	movs	r3, #48
	str	r3, [r6, #2056]
	add	sp, sp, #8
	@ sp needed
	pop	{r4, r5, r6, r7, r8, r10, fp, pc}
.L434:
	ldr	r3, [fp]
	ldrb	r3, [r3, #12]	@ zero_extendqisi2
	cmp	r3, #3
	bne	.L436
	ldr	r3, .L460+36
	ldrb	r3, [r3]	@ zero_extendqisi2
	cbnz	r3, .L436
	ldr	r3, .L460+40
	ldrb	r3, [r3]	@ zero_extendqisi2
	cbnz	r3, .L436
	add	r3, r6, r8
	str	r10, [r3, #2056]
	b	.L435
.L436:
	mov	r0, r5
	bl	zftl_flash_exit_slc_mode
	b	.L435
.L437:
	ldr	r1, [fp]
	ldrb	r3, [r1, #7]	@ zero_extendqisi2
	cmp	r3, #1
	bne	.L442
	ldrb	r3, [r1, #12]	@ zero_extendqisi2
	cmp	r3, #2
	ittt	eq
	addeq	r3, r6, r8
	moveq	r5, #38
	streq	r5, [r3, #2056]
.L442:
	ldrb	r5, [r2, #8]	@ zero_extendqisi2
	lsrs	r7, r7, #16
	add	r3, r6, r8
	str	r5, [r3, #2056]
	str	ip, [r3, #2052]
	str	r0, [r3, #2052]
	str	r7, [r3, #2052]
	ldrb	r1, [r1, #12]	@ zero_extendqisi2
	cmp	r1, #3
	bne	.L443
	cmp	r10, #0
	beq	.L443
	str	r10, [r3, #2056]
.L443:
	ldrb	r2, [r2, #9]	@ zero_extendqisi2
	add	r6, r6, r8
	str	r2, [r6, #2056]
	uxtb	r2, r4
	str	r2, [r3, #2052]
	lsrs	r2, r4, #8
	lsrs	r4, r4, #16
	str	r2, [r3, #2052]
	str	r4, [r3, #2052]
	b	.L459
.L461:
	.align	2
.L460:
	.word	.LANCHOR31
	.word	.LANCHOR23
	.word	.LANCHOR46
	.word	.LC0
	.word	.LANCHOR29
	.word	.LANCHOR7
	.word	.LANCHOR0
	.word	.LANCHOR25
	.word	.LANCHOR30
	.word	.LANCHOR35
	.word	.LANCHOR36
	.word	.LANCHOR21
	.size	flash_start_plane_read, .-flash_start_plane_read
	.section	.text.flash_set_interface_mode,"ax",%progbits
	.align	1
	.global	flash_set_interface_mode
	.syntax unified
	.thumb
	.thumb_func
	.fpu softvfp
	.type	flash_set_interface_mode, %function
flash_set_interface_mode:
	@ args = 0, pretend = 0, frame = 0
	@ frame_needed = 0, uses_anonymous_args = 0
	push	{r3, r4, r5, r6, r7, r8, r10, lr}
	mov	r6, r0
	ldr	r7, .L506
	mov	r10, #0
	ldr	r8, .L506+24
.L476:
	ldrb	r5, [r7, r10, lsl #3]	@ zero_extendqisi2
	cmp	r5, #69
	beq	.L463
	cmp	r5, #44
	beq	.L463
	add	r3, r5, #119
	uxtb	r3, r3
	cmp	r3, #18
	bhi	.L464
	ldr	r2, .L506+4
	lsr	r3, r2, r3
	lsls	r2, r3, #31
	bpl	.L464
.L463:
	ldr	r3, .L506+8
	cmp	r6, #1
	ldr	r4, [r8]
	ldrb	r1, [r3]	@ zero_extendqisi2
	bne	.L465
	lsls	r3, r1, #31
	bpl	.L464
	ldr	r3, .L506+12
	ldr	r3, [r3]
	lsls	r0, r3, #19
	bpl	.L466
	ldr	r0, .L506+16
	bl	printf
.L466:
	lsl	r3, r10, #8
	cmp	r5, #44
	mov	r1, #239
	add	r2, r4, r3
	str	r1, [r2, #2056]
	beq	.L467
	cmp	r5, #137
	bne	.L468
.L467:
	adds	r2, r4, r3
.L505:
	movs	r1, #1
	str	r1, [r2, #2052]
	movs	r1, #5
.L502:
	add	r4, r4, r3
	str	r1, [r2, #2048]
.L504:
	movs	r3, #0
	str	r3, [r4, #2048]
	str	r3, [r4, #2048]
	str	r3, [r4, #2048]
.L464:
	add	r10, r10, #1
	cmp	r10, #4
	bne	.L476
	bl	nandc_wait_flash_ready
	movs	r0, #0
	pop	{r3, r4, r5, r6, r7, r8, r10, pc}
.L468:
	cmp	r5, #155
	beq	.L505
	movs	r1, #128
	str	r1, [r2, #2052]
	movs	r1, #1
	b	.L502
.L465:
	lsls	r2, r1, #29
	bpl	.L464
	ldr	r3, .L506+12
	ldr	r3, [r3]
	lsls	r3, r3, #19
	bpl	.L471
	ldr	r0, .L506+20
	bl	printf
.L471:
	lsl	r2, r10, #8
	cmp	r5, #44
	mov	r1, #239
	add	r3, r4, r2
	str	r1, [r3, #2056]
	beq	.L472
	cmp	r5, #137
	bne	.L473
.L472:
	movs	r1, #1
	adds	r3, r4, r2
	str	r1, [r3, #2052]
	movs	r1, #35
.L503:
	str	r1, [r3, #2048]
	add	r4, r4, r2
	b	.L504
.L473:
	cmp	r5, #155
	itett	eq
	moveq	r1, #1
	movne	r1, #128
	streq	r1, [r3, #2052]
	moveq	r1, #37
	itt	ne
	strne	r1, [r3, #2052]
	movne	r1, #0
	b	.L503
.L507:
	.align	2
.L506:
	.word	.LANCHOR47
	.word	294913
	.word	.LANCHOR48
	.word	.LANCHOR19
	.word	.LC36
	.word	.LC37
	.word	.LANCHOR7
	.size	flash_set_interface_mode, .-flash_set_interface_mode
	.section	.text.mt_auto_read_calibration_config,"ax",%progbits
	.align	1
	.syntax unified
	.thumb
	.thumb_func
	.fpu softvfp
	.type	mt_auto_read_calibration_config, %function
mt_auto_read_calibration_config:
	@ args = 0, pretend = 0, frame = 0
	@ frame_needed = 0, uses_anonymous_args = 0
	push	{r4, r5, r6, lr}
	mov	r5, r1
	mov	r6, r0
	bl	nandc_wait_flash_ready
	ldr	r3, .L509
	movs	r0, #1
	ldr	r4, [r3]
	movs	r3, #239
	add	r4, r4, r6, lsl #8
	str	r3, [r4, #2056]
	movs	r3, #150
	str	r3, [r4, #2052]
	bl	udelay
	movs	r3, #0
	str	r5, [r4, #2048]
	str	r3, [r4, #2048]
	str	r3, [r4, #2048]
	str	r3, [r4, #2048]
	pop	{r4, r5, r6, pc}
.L510:
	.align	2
.L509:
	.word	.LANCHOR7
	.size	mt_auto_read_calibration_config, .-mt_auto_read_calibration_config
	.section	.text.flash_reset,"ax",%progbits
	.align	1
	.global	flash_reset
	.syntax unified
	.thumb
	.thumb_func
	.fpu softvfp
	.type	flash_reset, %function
flash_reset:
	@ args = 0, pretend = 0, frame = 0
	@ frame_needed = 0, uses_anonymous_args = 0
	@ link register save eliminated.
	ldr	r3, .L512
	ldr	r3, [r3]
	add	r0, r3, r0, lsl #8
	movs	r3, #255
	str	r3, [r0, #2056]
	b	nandc_wait_flash_ready
.L513:
	.align	2
.L512:
	.word	.LANCHOR7
	.size	flash_reset, .-flash_reset
	.section	.text.flash_read_id,"ax",%progbits
	.align	1
	.global	flash_read_id
	.syntax unified
	.thumb
	.thumb_func
	.fpu softvfp
	.type	flash_read_id, %function
flash_read_id:
	@ args = 0, pretend = 0, frame = 0
	@ frame_needed = 0, uses_anonymous_args = 0
	push	{r0, r1, r2, r3, r4, r5, r6, lr}
	mov	r6, r0
	ldr	r3, .L516
	mov	r4, r1
	ldr	r5, [r3]
	bl	flash_reset
	mov	r0, r6
	bl	nandc_cs
	add	r5, r5, r6, lsl #8
	movs	r3, #144
	movs	r0, #1
	str	r3, [r5, #2056]
	movs	r3, #0
	str	r3, [r5, #2052]
	bl	udelay
	ldr	r3, [r5, #2048]
	strb	r3, [r4]
	ldr	r3, [r5, #2048]
	strb	r3, [r4, #1]
	ldr	r3, [r5, #2048]
	strb	r3, [r4, #2]
	ldr	r3, [r5, #2048]
	strb	r3, [r4, #3]
	ldr	r3, [r5, #2048]
	strb	r3, [r4, #4]
	ldr	r3, [r5, #2048]
	strb	r3, [r4, #5]
	ldr	r3, [r5, #2048]
	strb	r3, [r4, #6]
	ldr	r3, [r5, #2048]
	strb	r3, [r4, #7]
	bl	nandc_de_cs.constprop.32
	ldrb	r2, [r4]	@ zero_extendqisi2
	subs	r3, r2, #1
	uxtb	r3, r3
	cmp	r3, #253
	bhi	.L514
	ldrb	r1, [r4, #5]	@ zero_extendqisi2
	ldrb	r3, [r4, #1]	@ zero_extendqisi2
	ldr	r0, .L516+4
	str	r1, [sp, #12]
	ldrb	r1, [r4, #4]	@ zero_extendqisi2
	str	r1, [sp, #8]
	ldrb	r1, [r4, #3]	@ zero_extendqisi2
	str	r1, [sp, #4]
	ldrb	r1, [r4, #2]	@ zero_extendqisi2
	str	r1, [sp]
	adds	r1, r6, #1
	bl	printf
.L514:
	add	sp, sp, #16
	@ sp needed
	pop	{r4, r5, r6, pc}
.L517:
	.align	2
.L516:
	.word	.LANCHOR7
	.word	.LC38
	.size	flash_read_id, .-flash_read_id
	.section	.text.flash_read_spare,"ax",%progbits
	.align	1
	.global	flash_read_spare
	.syntax unified
	.thumb
	.thumb_func
	.fpu softvfp
	.type	flash_read_spare, %function
flash_read_spare:
	@ args = 0, pretend = 0, frame = 0
	@ frame_needed = 0, uses_anonymous_args = 0
	push	{r3, r4, r5, lr}
	mov	r5, r2
	ldr	r3, .L519
	ldr	r2, .L519+4
	ldrb	r3, [r3, #9]	@ zero_extendqisi2
	ldr	r4, [r2]
	movs	r2, #0
	lsls	r3, r3, #9
	add	r4, r4, r0, lsl #8
	str	r2, [r4, #2056]
	str	r3, [r4, #2052]
	lsrs	r3, r3, #8
	str	r3, [r4, #2052]
	uxtb	r3, r1
	str	r3, [r4, #2052]
	lsrs	r3, r1, #8
	lsrs	r1, r1, #16
	str	r3, [r4, #2052]
	movs	r3, #48
	str	r1, [r4, #2052]
	str	r3, [r4, #2056]
	bl	nandc_wait_flash_ready
	ldr	r3, [r4, #2048]
	strb	r3, [r5]
	pop	{r3, r4, r5, pc}
.L520:
	.align	2
.L519:
	.word	.LANCHOR32
	.word	.LANCHOR7
	.size	flash_read_spare, .-flash_read_spare
	.section	.text.flash_read_otp_data,"ax",%progbits
	.align	1
	.global	flash_read_otp_data
	.syntax unified
	.thumb
	.thumb_func
	.fpu softvfp
	.type	flash_read_otp_data, %function
flash_read_otp_data:
	@ args = 0, pretend = 0, frame = 0
	@ frame_needed = 0, uses_anonymous_args = 0
	ldr	r3, .L524
	push	{r0, r1, r4, r5, r6, r7, r8, r10, fp, lr}
	mov	r8, r0
	lsl	r8, r8, #8
	mov	r6, r1
	mov	r5, r2
	ldr	r7, [r3]
	mov	fp, #144
	bl	nandc_cs
	movs	r3, #239
	movs	r0, #1
	add	r4, r7, r8
	mov	r10, #0
	str	r3, [r4, #2056]
	str	fp, [r4, #2052]
	bl	udelay
	movs	r3, #1
	str	r3, [r4, #2048]
	str	r10, [r4, #2048]
	str	r10, [r4, #2048]
	str	r10, [r4, #2048]
	bl	nandc_wait_flash_ready
	movs	r3, #238
	ldr	r0, .L524+4
	str	r3, [r4, #2056]
	str	fp, [r4, #2052]
	ldr	r2, [r4, #2048]
	ldr	r3, [r4, #2048]
	ldr	r1, [r4, #2048]
	str	r1, [sp]
	mov	r1, r6
	bl	printf
	bl	nandc_wait_flash_ready
	uxtb	r3, r6
	str	r10, [r4, #2056]
	str	r10, [r4, #2052]
	str	r10, [r4, #2052]
	str	r3, [r4, #2052]
	lsrs	r3, r6, #8
	lsrs	r6, r6, #16
	str	r3, [r4, #2052]
	movs	r3, #48
	str	r6, [r4, #2052]
	str	r3, [r4, #2056]
	bl	nandc_wait_flash_ready
	add	r3, r5, #16384
	mov	r2, r5
.L522:
	ldr	r1, [r4, #2048]
	strb	r1, [r2], #1
	cmp	r2, r3
	bne	.L522
	add	r7, r7, r8
	movs	r3, #239
	str	r3, [r7, #2056]
	movs	r3, #144
	str	r3, [r4, #2052]
	movs	r0, #1
	bl	udelay
	movs	r3, #0
	str	r3, [r4, #2048]
	str	r3, [r4, #2048]
	str	r3, [r4, #2048]
	str	r3, [r4, #2048]
	add	sp, sp, #8
	@ sp needed
	pop	{r4, r5, r6, r7, r8, r10, fp, lr}
	b	nandc_de_cs.constprop.32
.L525:
	.align	2
.L524:
	.word	.LANCHOR7
	.word	.LC39
	.size	flash_read_otp_data, .-flash_read_otp_data
	.section	.text.sandisk_prog_test_bad_block,"ax",%progbits
	.align	1
	.global	sandisk_prog_test_bad_block
	.syntax unified
	.thumb
	.thumb_func
	.fpu softvfp
	.type	sandisk_prog_test_bad_block, %function
sandisk_prog_test_bad_block:
	@ args = 0, pretend = 0, frame = 0
	@ frame_needed = 0, uses_anonymous_args = 0
	push	{r4, r5, r6, r7, r8, lr}
	mov	r8, r1
	ldr	r3, .L541
	lsls	r6, r0, #8
	ldr	r7, .L541+4
	ldr	r5, [r3]
	ldrb	r3, [r7, #29]	@ zero_extendqisi2
	cmp	r3, #0
	beq	.L527
	adds	r2, r5, r6
	str	r3, [r2, #2056]
.L528:
	adds	r4, r5, r6
	movs	r3, #128
	str	r3, [r4, #2056]
	movs	r3, #0
	str	r3, [r4, #2052]
	str	r3, [r4, #2052]
	uxtb	r3, r8
	str	r3, [r4, #2052]
	lsr	r3, r8, #8
	str	r3, [r4, #2052]
	lsr	r3, r8, #16
	str	r3, [r4, #2052]
	movs	r3, #16
	str	r3, [r4, #2056]
	bl	nandc_wait_flash_ready
	movs	r3, #112
	movs	r0, #1
	str	r3, [r4, #2056]
	bl	udelay
	ldr	r2, [r4, #2048]
	cmp	r2, #255
	it	eq
	ldreq	r2, [r4, #2048]
	ands	r4, r2, #5
	beq	.L530
	ldr	r3, .L541+8
	ldr	r3, [r3]
	lsls	r3, r3, #19
	bpl	.L530
	mov	r1, r8
	ldr	r0, .L541+12
	bl	printf
.L530:
	ldrb	r3, [r7, #30]	@ zero_extendqisi2
	cbz	r3, .L526
	add	r5, r5, r6
	str	r3, [r5, #2056]
.L526:
	mov	r0, r4
	pop	{r4, r5, r6, r7, r8, pc}
.L527:
	adds	r3, r5, r6
	movs	r2, #162
	str	r2, [r3, #2056]
	b	.L528
.L542:
	.align	2
.L541:
	.word	.LANCHOR7
	.word	.LANCHOR32
	.word	.LANCHOR19
	.word	.LC40
	.size	sandisk_prog_test_bad_block, .-sandisk_prog_test_bad_block
	.section	.text.nandc_rdy_status,"ax",%progbits
	.align	1
	.global	nandc_rdy_status
	.syntax unified
	.thumb
	.thumb_func
	.fpu softvfp
	.type	nandc_rdy_status, %function
nandc_rdy_status:
	@ args = 0, pretend = 0, frame = 8
	@ frame_needed = 0, uses_anonymous_args = 0
	@ link register save eliminated.
	ldr	r3, .L544
	sub	sp, sp, #8
	ldr	r3, [r3]
	ldr	r3, [r3]
	str	r3, [sp, #4]
	ldr	r0, [sp, #4]
	ubfx	r0, r0, #9, #1
	add	sp, sp, #8
	@ sp needed
	bx	lr
.L545:
	.align	2
.L544:
	.word	.LANCHOR7
	.size	nandc_rdy_status, .-nandc_rdy_status
	.section	.text.nandc_bch_sel,"ax",%progbits
	.align	1
	.global	nandc_bch_sel
	.syntax unified
	.thumb
	.thumb_func
	.fpu softvfp
	.type	nandc_bch_sel, %function
nandc_bch_sel:
	@ args = 0, pretend = 0, frame = 8
	@ frame_needed = 0, uses_anonymous_args = 0
	movs	r3, #0
	push	{r0, r1, r4, lr}
	str	r3, [sp, #4]
	ldr	r2, [sp, #4]
	orr	r2, r2, #1
	str	r2, [sp, #4]
	ldr	r2, .L557
	strb	r0, [r2]
	ldr	r2, .L557+4
	ldrb	r2, [r2]	@ zero_extendqisi2
	cmp	r2, #9
	ldr	r2, .L557+8
	bne	.L547
	ldr	r2, [r2]
	cmp	r0, #70
	ldr	r1, [sp, #4]
	str	r1, [r2, #16]
	beq	.L548
	cmp	r0, #60
	beq	.L554
	cmp	r0, #40
	ite	eq
	moveq	r3, #2
	movne	r3, #1
.L548:
	movs	r1, #0
	str	r1, [sp]
	ldr	r1, [sp]
	bfi	r1, r3, #25, #3
	str	r1, [sp]
	ldr	r3, [sp]
	orr	r3, r3, #1
	str	r3, [sp]
	ldr	r3, [sp]
	str	r3, [r2, #32]
.L546:
	add	sp, sp, #8
	@ sp needed
	pop	{r4, pc}
.L554:
	movs	r3, #3
	b	.L548
.L547:
	ldr	r1, [r2]
	movs	r4, #16
	ldr	r2, [sp, #4]
	cmp	r0, r4
	str	r2, [r1, #8]
	str	r3, [sp]
	ldr	r2, [sp]
	bfi	r2, r4, #8, #8
	str	r2, [sp]
	ldr	r2, [sp]
	bfi	r2, r3, #18, #1
	str	r2, [sp]
	bne	.L550
.L556:
	ldr	r2, [sp]
	bfi	r2, r3, #4, #1
	str	r2, [sp]
	b	.L551
.L550:
	cmp	r0, #24
	bne	.L552
	ldr	r3, [sp]
	orr	r3, r3, #16
	str	r3, [sp]
.L551:
	ldr	r3, [sp]
	orr	r3, r3, #1
	str	r3, [sp]
	ldr	r3, [sp]
	str	r3, [r1, #12]
	b	.L546
.L552:
	ldr	r2, [sp]
	cmp	r0, #40
	orr	r2, r2, #262144
	str	r2, [sp]
	ldr	r2, [sp]
	orr	r2, r2, #16
	str	r2, [sp]
	bne	.L551
	b	.L556
.L558:
	.align	2
.L557:
	.word	.LANCHOR49
	.word	.LANCHOR27
	.word	.LANCHOR7
	.size	nandc_bch_sel, .-nandc_bch_sel
	.section	.text.zftl_nandc_get_irq_status,"ax",%progbits
	.align	1
	.global	zftl_nandc_get_irq_status
	.syntax unified
	.thumb
	.thumb_func
	.fpu softvfp
	.type	zftl_nandc_get_irq_status, %function
zftl_nandc_get_irq_status:
	@ args = 0, pretend = 0, frame = 0
	@ frame_needed = 0, uses_anonymous_args = 0
	@ link register save eliminated.
	ldr	r3, .L562
	ldrb	r3, [r3]	@ zero_extendqisi2
	cmp	r3, #9
	ite	eq
	ldreq	r0, [r0, #296]
	ldrne	r0, [r0, #372]
	bx	lr
.L563:
	.align	2
.L562:
	.word	.LANCHOR27
	.size	zftl_nandc_get_irq_status, .-zftl_nandc_get_irq_status
	.section	.text.rk_nandc_flash_ready,"ax",%progbits
	.align	1
	.global	rk_nandc_flash_ready
	.syntax unified
	.thumb
	.thumb_func
	.fpu softvfp
	.type	rk_nandc_flash_ready, %function
rk_nandc_flash_ready:
	@ args = 0, pretend = 0, frame = 0
	@ frame_needed = 0, uses_anonymous_args = 0
	@ link register save eliminated.
	bx	lr
	.size	rk_nandc_flash_ready, .-rk_nandc_flash_ready
	.section	.text.nandc_iqr_wait_flash_ready,"ax",%progbits
	.align	1
	.global	nandc_iqr_wait_flash_ready
	.syntax unified
	.thumb
	.thumb_func
	.fpu softvfp
	.type	nandc_iqr_wait_flash_ready, %function
nandc_iqr_wait_flash_ready:
	@ args = 0, pretend = 0, frame = 0
	@ frame_needed = 0, uses_anonymous_args = 0
	@ link register save eliminated.
	bx	lr
	.size	nandc_iqr_wait_flash_ready, .-nandc_iqr_wait_flash_ready
	.section	.text.rk_nandc_flash_xfer_completed,"ax",%progbits
	.align	1
	.global	rk_nandc_flash_xfer_completed
	.syntax unified
	.thumb
	.thumb_func
	.fpu softvfp
	.type	rk_nandc_flash_xfer_completed, %function
rk_nandc_flash_xfer_completed:
	@ args = 0, pretend = 0, frame = 0
	@ frame_needed = 0, uses_anonymous_args = 0
	@ link register save eliminated.
	bx	lr
	.size	rk_nandc_flash_xfer_completed, .-rk_nandc_flash_xfer_completed
	.section	.text.nandc_xfer_start,"ax",%progbits
	.align	1
	.global	nandc_xfer_start
	.syntax unified
	.thumb
	.thumb_func
	.fpu softvfp
	.type	nandc_xfer_start, %function
nandc_xfer_start:
	@ args = 0, pretend = 0, frame = 16
	@ frame_needed = 0, uses_anonymous_args = 0
	push	{r0, r1, r2, r3, r4, r5, r6, r7, r8, r10, fp, lr}
	mov	r5, r0
	ldr	r0, .L583
	and	lr, r5, #1
	ldr	r4, .L583+4
	ldrb	r0, [r0]	@ zero_extendqisi2
	ldr	r7, .L583+8
	cmp	r0, #9
	add	r0, r1, #1
	bne	.L568
	movs	r6, #0
	mov	ip, #1
	str	r6, [sp, #4]
	ubfx	r0, r0, #1, #6
	ldr	r1, [sp, #4]
	bfi	r1, lr, #1, #1
	str	r1, [sp, #4]
	ldr	r1, [sp, #4]
	orr	r1, r1, #8
	str	r1, [sp, #4]
	ldr	r1, [sp, #4]
	bfi	r1, ip, #5, #2
	str	r1, [sp, #4]
	ldr	r1, [sp, #4]
	orr	r1, r1, #536870912
	str	r1, [sp, #4]
	ldr	r1, [sp, #4]
	orr	r1, r1, #1024
	str	r1, [sp, #4]
	ldr	r1, [sp, #4]
	bfi	r1, r6, #4, #1
	str	r1, [sp, #4]
	ldr	r1, [sp, #4]
	bfi	r1, r0, #22, #6
	str	r1, [sp, #4]
	ldr	r1, [sp, #4]
	orr	r1, r1, #128
	str	r1, [sp, #4]
	ldr	r1, .L583+12
	ldrb	r1, [r1]	@ zero_extendqisi2
	cbz	r1, .L569
	ldr	r1, .L583+16
	ldrb	r1, [r1]	@ zero_extendqisi2
	cbz	r1, .L569
	ldr	r1, [sp, #4]
	orr	r1, r1, #512
	str	r1, [sp, #4]
.L569:
	ldr	r1, [sp, #4]
	bic	r0, r2, #63
	str	r3, [r4, #8]
	clz	r5, r5
	str	r3, [r4, #16]
	add	r3, r2, #63
	bic	r3, r3, #63
	ubfx	r1, r1, #22, #6
	add	r1, r3, r1, lsl #10
	str	r2, [r4, #4]
	str	r2, [r4, #12]
	lsrs	r5, r5, #5
	bl	flush_dcache_range
	ldr	r0, [r4, #8]
	add	r1, r0, #63
	bic	r0, r0, #63
	bic	r1, r1, #63
	adds	r1, r1, #64
	bl	flush_dcache_range
	movs	r3, #1
	ldr	r2, [r4, #12]
	str	r3, [r4, #20]
	movs	r1, #16
	ldr	r3, [r7]
	str	r2, [r3, #52]
	ldr	r2, [r4, #16]
	str	r2, [r3, #56]
	ldr	r2, [r3, #48]
	str	r2, [sp, #8]
	ldr	r2, [sp, #8]
	bfi	r2, r1, #9, #5
	movs	r1, #2
	str	r2, [sp, #8]
	ldr	r2, [sp, #8]
	orr	r2, r2, #448
	str	r2, [sp, #8]
	ldr	r2, [sp, #8]
	bfi	r2, r1, #3, #3
	str	r2, [sp, #8]
	ldr	r2, [sp, #8]
	orr	r2, r2, #4
	str	r2, [sp, #8]
	ldr	r2, [sp, #8]
	bfi	r2, r5, #1, #1
	str	r2, [sp, #8]
	ldr	r2, [sp, #8]
	orr	r2, r2, #1
	str	r2, [sp, #8]
	ldr	r2, .L583+20
	ldrh	r1, [r2]
	ldr	r2, [sp, #8]
	bfi	r2, r1, #16, #11
	str	r2, [sp, #8]
	ldr	r2, [sp, #8]
	str	r2, [r3, #48]
	ldr	r2, [sp, #4]
	str	r2, [r3, #16]
	ldr	r2, [sp, #4]
	orr	r2, r2, #4
	str	r2, [sp, #4]
	ldr	r2, [sp, #4]
	str	r2, [r3, #16]
.L567:
	add	sp, sp, #16
	@ sp needed
	pop	{r4, r5, r6, r7, r8, r10, fp, pc}
.L568:
	ldr	r6, [r7]
	mov	ip, #16
	ubfx	r0, r0, #1, #6
	ldr	r6, [r6, #12]
	str	r6, [sp, #12]
	ldr	r6, [sp, #12]
	bfi	r6, ip, #8, #8
	str	r6, [sp, #12]
	ldr	r6, [sp, #12]
	bfc	r6, #3, #1
	str	r6, [sp, #12]
	ldr	r6, [sp, #12]
	bfc	r6, #5, #3
	str	r6, [sp, #12]
	movs	r6, #0
	str	r6, [sp, #4]
	ldr	ip, [sp, #4]
	bfi	ip, lr, #1, #1
	mov	lr, #1
	str	ip, [sp, #4]
	ldr	ip, [sp, #4]
	orr	ip, ip, #8
	str	ip, [sp, #4]
	ldr	ip, [sp, #4]
	bfi	ip, lr, #5, #2
	str	ip, [sp, #4]
	ldr	ip, [sp, #4]
	orr	ip, ip, #536870912
	str	ip, [sp, #4]
	ldr	ip, [sp, #4]
	orr	ip, ip, #1024
	str	ip, [sp, #4]
	ldr	ip, [sp, #4]
	bfi	ip, r6, #4, #1
	str	ip, [sp, #4]
	ldr	ip, [sp, #4]
	bfi	ip, r0, #22, #6
	str	ip, [sp, #4]
	cmp	r5, #0
	beq	.L571
	ldr	r0, .L583+24
	lsrs	r1, r1, #1
	ldr	r8, [r4]
	ldrb	r0, [r0]	@ zero_extendqisi2
	cmp	r0, #25
	mov	r0, r6
	ite	cc
	movcc	lr, #64
	movcs	lr, #128
.L573:
	cmp	r0, r1
	add	fp, r3, r0, lsl #2
	add	r10, lr, r6
	blt	.L574
.L575:
	ldr	r3, [r4]
	bic	r0, r2, #63
	ldr	r1, [sp, #4]
	clz	r5, r5
	str	r2, [r4, #4]
	lsrs	r5, r5, #5
	str	r3, [r4, #8]
	str	r3, [r4, #16]
	add	r3, r2, #63
	bic	r3, r3, #63
	ubfx	r1, r1, #22, #6
	add	r1, r3, r1, lsl #10
	str	r2, [r4, #12]
	bl	flush_dcache_range
	ldr	r0, [r4, #8]
	ldr	r1, [sp, #4]
	add	r3, r0, #63
	bic	r0, r0, #63
	bic	r3, r3, #63
	ubfx	r1, r1, #22, #6
	add	r1, r3, r1, lsl #7
	bl	flush_dcache_range
	movs	r3, #1
	ldr	r2, [r4, #12]
	str	r3, [r4, #20]
	movs	r1, #16
	ldr	r3, [r7]
	str	r2, [r3, #20]
	ldr	r2, [r4, #16]
	str	r2, [r3, #24]
	movs	r2, #0
	str	r2, [sp, #8]
	ldr	r2, [sp, #8]
	bfi	r2, r1, #9, #5
	movs	r1, #2
	str	r2, [sp, #8]
	ldr	r2, [sp, #8]
	orr	r2, r2, #448
	str	r2, [sp, #8]
	ldr	r2, [sp, #8]
	bfi	r2, r1, #3, #3
	str	r2, [sp, #8]
	ldr	r2, [sp, #8]
	orr	r2, r2, #4
	str	r2, [sp, #8]
	ldr	r2, [sp, #8]
	bfi	r2, r5, #1, #1
	str	r2, [sp, #8]
	ldr	r2, [sp, #8]
	orr	r2, r2, #1
	str	r2, [sp, #8]
	ldr	r2, [sp, #8]
	str	r2, [r3, #16]
	ldr	r2, [sp, #12]
	str	r2, [r3, #12]
	ldr	r2, [sp, #4]
	str	r2, [r3, #8]
	ldr	r2, [sp, #4]
	orr	r2, r2, #4
	str	r2, [sp, #4]
	ldr	r2, [sp, #4]
	str	r2, [r3, #8]
	b	.L567
.L574:
	ldrh	ip, [r3, r0, lsl #2]
	bic	r6, r6, #3
	ldrh	fp, [fp, #2]
	adds	r0, r0, #1
	orr	ip, ip, fp, lsl #16
	str	ip, [r8, r6]
	mov	r6, r10
	b	.L573
.L571:
	ldr	r3, [r4]
	str	lr, [r3]
	b	.L575
.L584:
	.align	2
.L583:
	.word	.LANCHOR27
	.word	.LANCHOR52
	.word	.LANCHOR7
	.word	.LANCHOR50
	.word	.LANCHOR51
	.word	.LANCHOR53
	.word	.LANCHOR49
	.size	nandc_xfer_start, .-nandc_xfer_start
	.section	.text.nandc_set_seed,"ax",%progbits
	.align	1
	.global	nandc_set_seed
	.syntax unified
	.thumb
	.thumb_func
	.fpu softvfp
	.type	nandc_set_seed, %function
nandc_set_seed:
	@ args = 0, pretend = 0, frame = 0
	@ frame_needed = 0, uses_anonymous_args = 0
	@ link register save eliminated.
	ldr	r2, .L592
	and	r0, r0, #127
	ldr	r3, .L592+4
	ldrb	r2, [r2]	@ zero_extendqisi2
	ldrh	r3, [r3, r0, lsl #1]
	cbz	r2, .L586
	orr	r3, r3, #-1073741824
.L586:
	ldr	r2, .L592+8
	ldrb	r2, [r2]	@ zero_extendqisi2
	cmp	r2, #9
	ldr	r2, .L592+12
	ldr	r2, [r2]
	ite	eq
	streq	r3, [r2, #520]
	strne	r3, [r2, #336]
	bx	lr
.L593:
	.align	2
.L592:
	.word	.LANCHOR51
	.word	.LANCHOR54
	.word	.LANCHOR27
	.word	.LANCHOR7
	.size	nandc_set_seed, .-nandc_set_seed
	.section	.text.zftl_flash_de_init,"ax",%progbits
	.align	1
	.global	zftl_flash_de_init
	.syntax unified
	.thumb
	.thumb_func
	.fpu softvfp
	.type	zftl_flash_de_init, %function
zftl_flash_de_init:
	@ args = 0, pretend = 0, frame = 0
	@ frame_needed = 0, uses_anonymous_args = 0
	push	{r4, lr}
	bl	nandc_wait_flash_ready
	ldr	r3, .L613
	ldrb	r3, [r3]	@ zero_extendqisi2
	cbz	r3, .L595
	ldr	r3, .L613+4
	ldrb	r0, [r3]	@ zero_extendqisi2
	cbnz	r0, .L595
	ldr	r3, .L613+8
	ldrb	r3, [r3]	@ zero_extendqisi2
	cmp	r3, #9
	beq	.L595
	bl	zftl_flash_exit_slc_mode
.L595:
	ldr	r4, .L613+12
	movs	r0, #0
	bl	hynix_reconfig_rr_para
	ldrb	r3, [r4]	@ zero_extendqisi2
	cbz	r3, .L596
	ldr	r3, .L613+16
	ldrb	r3, [r3]	@ zero_extendqisi2
	lsls	r3, r3, #31
	bpl	.L596
	movs	r0, #1
	bl	flash_set_interface_mode
	movs	r0, #1
	bl	nandc_set_if_mode
	movs	r3, #0
	strb	r3, [r4]
.L596:
	ldr	r1, .L613+20
	ldrb	r3, [r1]	@ zero_extendqisi2
	cbz	r3, .L597
	movs	r0, #0
	strb	r0, [r1]
	bl	nandc_set_seed
	movs	r3, #1
	strb	r3, [r1]
.L597:
	movs	r0, #0
	pop	{r4, pc}
.L614:
	.align	2
.L613:
	.word	.LANCHOR0
	.word	.LANCHOR24
	.word	.LANCHOR27
	.word	.LANCHOR26
	.word	.LANCHOR48
	.word	.LANCHOR51
	.size	zftl_flash_de_init, .-zftl_flash_de_init
	.section	.text.nandc_randomizer_enable,"ax",%progbits
	.align	1
	.global	nandc_randomizer_enable
	.syntax unified
	.thumb
	.thumb_func
	.fpu softvfp
	.type	nandc_randomizer_enable, %function
nandc_randomizer_enable:
	@ args = 0, pretend = 0, frame = 0
	@ frame_needed = 0, uses_anonymous_args = 0
	@ link register save eliminated.
	ldr	r3, .L616
	strb	r0, [r3]
	bx	lr
.L617:
	.align	2
.L616:
	.word	.LANCHOR51
	.size	nandc_randomizer_enable, .-nandc_randomizer_enable
	.section	.text.nandc_get_chip_if,"ax",%progbits
	.align	1
	.global	nandc_get_chip_if
	.syntax unified
	.thumb
	.thumb_func
	.fpu softvfp
	.type	nandc_get_chip_if, %function
nandc_get_chip_if:
	@ args = 0, pretend = 0, frame = 0
	@ frame_needed = 0, uses_anonymous_args = 0
	@ link register save eliminated.
	ldr	r3, .L619
	adds	r0, r0, #8
	ldr	r3, [r3]
	add	r0, r3, r0, lsl #8
	bx	lr
.L620:
	.align	2
.L619:
	.word	.LANCHOR7
	.size	nandc_get_chip_if, .-nandc_get_chip_if
	.section	.text.buf_reinit,"ax",%progbits
	.align	1
	.global	buf_reinit
	.syntax unified
	.thumb
	.thumb_func
	.fpu softvfp
	.type	buf_reinit, %function
buf_reinit:
	@ args = 0, pretend = 0, frame = 0
	@ frame_needed = 0, uses_anonymous_args = 0
	ldr	r3, .L624
	movs	r2, #0
	push	{r4, r5, lr}
	mov	r1, r2
	mov	r4, r3
.L622:
	uxtb	r0, r2
	adds	r2, r2, #1
	cmp	r2, #32
	strb	r1, [r3, #2]
	add	r5, r0, #1
	strb	r0, [r3, #1]
	strb	r5, [r3]
	add	r3, r3, #48
	str	r1, [r3, #-40]
	bne	.L622
	movs	r3, #255
	strb	r3, [r4, #1488]
	ldr	r3, .L624+4
	strb	r1, [r3]
	ldr	r3, .L624+8
	strb	r2, [r3]
	pop	{r4, r5, pc}
.L625:
	.align	2
.L624:
	.word	.LANCHOR55
	.word	.LANCHOR56
	.word	.LANCHOR57
	.size	buf_reinit, .-buf_reinit
	.section	.text.buf_add_tail,"ax",%progbits
	.align	1
	.global	buf_add_tail
	.syntax unified
	.thumb
	.thumb_func
	.fpu softvfp
	.type	buf_add_tail, %function
buf_add_tail:
	@ args = 0, pretend = 0, frame = 0
	@ frame_needed = 0, uses_anonymous_args = 0
	movs	r3, #255
	push	{r4, r5, r6, lr}
	strb	r3, [r1]
	mov	r5, r0
	mov	r4, r1
	ldrb	r3, [r0]	@ zero_extendqisi2
	cmp	r3, #255
	bne	.L627
	ldrb	r3, [r1, #1]	@ zero_extendqisi2
	cmp	r3, #255
	bne	.L628
	movs	r2, #74
	ldr	r1, .L633
	ldr	r0, .L633+4
	bl	printf
.L628:
	ldrb	r3, [r4, #1]	@ zero_extendqisi2
	strb	r3, [r5]
	pop	{r4, r5, r6, pc}
.L627:
	ldr	r2, .L633+8
	movs	r1, #48
	mov	r6, r2
.L632:
	mov	r5, r3
	muls	r3, r1, r3
	ldrb	r3, [r2, r3]	@ zero_extendqisi2
	cmp	r3, #255
	bne	.L632
	ldrb	r3, [r4, #1]	@ zero_extendqisi2
	cmp	r3, #255
	bne	.L630
	movs	r2, #81
	ldr	r1, .L633
	ldr	r0, .L633+4
	bl	printf
.L630:
	movs	r3, #48
	ldrb	r2, [r4, #1]	@ zero_extendqisi2
	muls	r3, r5, r3
	strb	r2, [r6, r3]
	pop	{r4, r5, r6, pc}
.L634:
	.align	2
.L633:
	.word	.LANCHOR58
	.word	.LC0
	.word	.LANCHOR55
	.size	buf_add_tail, .-buf_add_tail
	.section	.text.queue_read_cmd,"ax",%progbits
	.align	1
	.syntax unified
	.thumb
	.thumb_func
	.fpu softvfp
	.type	queue_read_cmd, %function
queue_read_cmd:
	@ args = 0, pretend = 0, frame = 0
	@ frame_needed = 0, uses_anonymous_args = 0
	push	{r4, lr}
	mov	r4, r0
	ldr	r1, [r0, #24]
	movs	r0, #48
	bl	flash_start_page_read
	movs	r3, #1
	mov	r1, r4
	strb	r3, [r4, #42]
	movs	r3, #0
	strb	r3, [r4, #43]
	movs	r3, #255
	strb	r3, [r4]
	ldr	r0, .L636
	pop	{r4, lr}
	b	buf_add_tail
.L637:
	.align	2
.L636:
	.word	.LANCHOR59
	.size	queue_read_cmd, .-queue_read_cmd
	.section	.text.zbuf_free,"ax",%progbits
	.align	1
	.global	zbuf_free
	.syntax unified
	.thumb
	.thumb_func
	.fpu softvfp
	.type	zbuf_free, %function
zbuf_free:
	@ args = 0, pretend = 0, frame = 0
	@ frame_needed = 0, uses_anonymous_args = 0
	push	{r3, lr}
	mov	r1, r0
	ldrb	r3, [r0, #2]	@ zero_extendqisi2
	and	r3, r3, #8
	strb	r3, [r0, #2]
	cbz	r3, .L639
	ldr	r3, [r0, #20]
	adds	r3, r3, #1
	beq	.L639
	ldr	r0, .L647
	bl	buf_add_tail
.L640:
	ldr	r2, .L647+4
	ldrb	r3, [r2]	@ zero_extendqisi2
	adds	r3, r3, #1
	strb	r3, [r2]
	pop	{r3, pc}
.L639:
	ldr	r3, .L647
	ldrb	r2, [r3]	@ zero_extendqisi2
	strb	r2, [r1]
	ldrb	r2, [r1, #1]	@ zero_extendqisi2
	strb	r2, [r3]
	b	.L640
.L648:
	.align	2
.L647:
	.word	.LANCHOR56
	.word	.LANCHOR57
	.size	zbuf_free, .-zbuf_free
	.section	.text.buf_alloc,"ax",%progbits
	.align	1
	.global	buf_alloc
	.syntax unified
	.thumb
	.thumb_func
	.fpu softvfp
	.type	buf_alloc, %function
buf_alloc:
	@ args = 0, pretend = 0, frame = 0
	@ frame_needed = 0, uses_anonymous_args = 0
	push	{r3, r4, r5, r6, r7, lr}
	mov	r7, r0
	ldr	r4, .L659
	ldrb	r3, [r4]	@ zero_extendqisi2
	cbz	r3, .L650
.L653:
	ldr	r5, .L659+4
	ldr	r2, .L659+8
	ldrb	r6, [r5]	@ zero_extendqisi2
	add	r0, r6, r6, lsl #1
	add	r0, r2, r0, lsl #4
	cbz	r7, .L651
.L652:
	movs	r1, #48
	muls	r1, r6, r1
	ldrb	r6, [r2, r1]	@ zero_extendqisi2
	adds	r3, r2, r1
	strb	r6, [r5]
	ldrb	r5, [r4]	@ zero_extendqisi2
	subs	r5, r5, #1
	strb	r5, [r4]
	movs	r4, #1
	strb	r4, [r3, #2]
	movs	r4, #255
	strb	r4, [r2, r1]
	mov	r2, #-1
	str	r2, [r3, #20]
	movs	r2, #0
	strh	r2, [r3, #34]	@ movhi
	str	r2, [r3, #8]
	strb	r2, [r3, #40]
	strb	r2, [r3, #41]
	pop	{r3, r4, r5, r6, r7, pc}
.L650:
	movs	r2, #121
	ldr	r1, .L659+12
	ldr	r0, .L659+16
	bl	printf
	ldrb	r3, [r4]	@ zero_extendqisi2
	cmp	r3, #0
	bne	.L653
.L655:
	movs	r0, #0
	pop	{r3, r4, r5, r6, r7, pc}
.L651:
	ldrb	r3, [r4]	@ zero_extendqisi2
	cmp	r3, #1
	bne	.L652
	b	.L655
.L660:
	.align	2
.L659:
	.word	.LANCHOR57
	.word	.LANCHOR56
	.word	.LANCHOR55
	.word	.LANCHOR60
	.word	.LC0
	.size	buf_alloc, .-buf_alloc
	.section	.text.buf_remove_buf,"ax",%progbits
	.align	1
	.global	buf_remove_buf
	.syntax unified
	.thumb
	.thumb_func
	.fpu softvfp
	.type	buf_remove_buf, %function
buf_remove_buf:
	@ args = 0, pretend = 0, frame = 0
	@ frame_needed = 0, uses_anonymous_args = 0
	push	{r4, r5, lr}
	ldrb	r4, [r1, #1]	@ zero_extendqisi2
	ldrb	r3, [r0]	@ zero_extendqisi2
	cmp	r4, r3
	bne	.L662
	ldrb	r3, [r1]	@ zero_extendqisi2
	strb	r3, [r0]
.L667:
	movs	r0, #1
	pop	{r4, r5, pc}
.L665:
	mov	r5, r3
	muls	r3, r2, r3
	ldrb	r3, [r0, r3]	@ zero_extendqisi2
	cmp	r4, r3
	bne	.L664
	muls	r2, r5, r2
	ldrb	r3, [r1]	@ zero_extendqisi2
	strb	r3, [r0, r2]
	movs	r3, #255
	strb	r3, [r1]
	b	.L667
.L662:
	ldr	r0, .L668
	movs	r2, #48
.L664:
	cmp	r3, #255
	bne	.L665
	movs	r0, #0
	pop	{r4, r5, pc}
.L669:
	.align	2
.L668:
	.word	.LANCHOR55
	.size	buf_remove_buf, .-buf_remove_buf
	.section	.text.buf_remove_free,"ax",%progbits
	.align	1
	.global	buf_remove_free
	.syntax unified
	.thumb
	.thumb_func
	.fpu softvfp
	.type	buf_remove_free, %function
buf_remove_free:
	@ args = 0, pretend = 0, frame = 0
	@ frame_needed = 0, uses_anonymous_args = 0
	push	{r3, r4, r5, lr}
	mov	r5, r0
	ldr	r4, .L675
	ldrb	r3, [r4]	@ zero_extendqisi2
	cbnz	r3, .L671
	movs	r2, #172
	ldr	r1, .L675+4
	ldr	r0, .L675+8
	bl	printf
.L671:
	ldrb	r3, [r4]	@ zero_extendqisi2
	cbz	r3, .L670
	mov	r1, r5
	ldr	r0, .L675+12
	bl	buf_remove_buf
	cmp	r0, #1
	bne	.L670
	ldrb	r3, [r4]	@ zero_extendqisi2
	subs	r3, r3, #1
	strb	r3, [r4]
	ldrb	r3, [r5, #2]	@ zero_extendqisi2
	orr	r3, r3, #1
	strb	r3, [r5, #2]
.L670:
	pop	{r3, r4, r5, pc}
.L676:
	.align	2
.L675:
	.word	.LANCHOR57
	.word	.LANCHOR61
	.word	.LC0
	.word	.LANCHOR56
	.size	buf_remove_free, .-buf_remove_free
	.section	.text.dump_buf_info,"ax",%progbits
	.align	1
	.global	dump_buf_info
	.syntax unified
	.thumb
	.thumb_func
	.fpu softvfp
	.type	dump_buf_info, %function
dump_buf_info:
	@ args = 0, pretend = 0, frame = 0
	@ frame_needed = 0, uses_anonymous_args = 0
	ldr	r3, .L680
	push	{r4, r5, r6, lr}
	sub	sp, sp, #24
	ldr	r0, .L680+4
	ldrb	r1, [r3]	@ zero_extendqisi2
	bl	printf
	ldr	r3, .L680+8
	ldr	r0, .L680+12
	ldr	r4, .L680+16
	ldrb	r1, [r3]	@ zero_extendqisi2
	bl	printf
	ldr	r3, .L680+20
	add	r5, r4, #1536
	ldr	r0, .L680+24
	ldr	r6, .L680+28
	ldrb	r1, [r3]	@ zero_extendqisi2
	bl	printf
	ldr	r3, .L680+32
	ldr	r0, .L680+36
	ldrb	r1, [r3]	@ zero_extendqisi2
	bl	printf
	ldr	r3, .L680+40
	ldr	r0, .L680+44
	ldrb	r1, [r3]	@ zero_extendqisi2
	bl	printf
	ldr	r3, .L680+48
	ldr	r0, .L680+52
	ldrb	r1, [r3]	@ zero_extendqisi2
	bl	printf
.L678:
	ldr	r0, [r4, #24]
	adds	r4, r4, #48
	ldrb	r3, [r4, #-46]	@ zero_extendqisi2
	ldrb	r2, [r4, #-48]	@ zero_extendqisi2
	str	r0, [sp, #16]
	ldr	r0, [r4, #-28]
	ldrb	r1, [r4, #-47]	@ zero_extendqisi2
	str	r0, [sp, #12]
	ldr	r0, [r4, #-12]
	str	r0, [sp, #8]
	ldrb	r0, [r4, #-6]	@ zero_extendqisi2
	str	r0, [sp, #4]
	ldrh	r0, [r4, #-14]
	str	r0, [sp]
	mov	r0, r6
	bl	printf
	cmp	r4, r5
	bne	.L678
	add	sp, sp, #24
	@ sp needed
	pop	{r4, r5, r6, pc}
.L681:
	.align	2
.L680:
	.word	.LANCHOR59
	.word	.LC41
	.word	.LANCHOR62
	.word	.LC42
	.word	.LANCHOR55
	.word	.LANCHOR63
	.word	.LC43
	.word	.LC47
	.word	.LANCHOR64
	.word	.LC44
	.word	.LANCHOR56
	.word	.LC45
	.word	.LANCHOR57
	.word	.LC46
	.size	dump_buf_info, .-dump_buf_info
	.section	.text.flash_check_bad_block,"ax",%progbits
	.align	1
	.global	flash_check_bad_block
	.syntax unified
	.thumb
	.thumb_func
	.fpu softvfp
	.type	flash_check_bad_block, %function
flash_check_bad_block:
	@ args = 0, pretend = 0, frame = 0
	@ frame_needed = 0, uses_anonymous_args = 0
	ldr	r2, .L683
	push	{r4, lr}
	lsrs	r4, r1, #5
	and	r1, r1, #31
	ldrb	r3, [r2, #13]	@ zero_extendqisi2
	ldrh	r2, [r2, #14]
	smulbb	r3, r3, r2
	ldr	r2, .L683+4
	uxth	r3, r3
	ldr	r2, [r2]
	adds	r3, r3, #31
	asrs	r3, r3, #5
	add	r2, r2, r4, lsl #2
	lsls	r3, r3, #2
	uxth	r3, r3
	mla	r0, r0, r3, r2
	ldr	r0, [r0, #912]
	lsrs	r0, r0, r1
	and	r0, r0, #1
	pop	{r4, pc}
.L684:
	.align	2
.L683:
	.word	.LANCHOR32
	.word	.LANCHOR6
	.size	flash_check_bad_block, .-flash_check_bad_block
	.section	.text.flash_mask_bad_block,"ax",%progbits
	.align	1
	.global	flash_mask_bad_block
	.syntax unified
	.thumb
	.thumb_func
	.fpu softvfp
	.type	flash_mask_bad_block, %function
flash_mask_bad_block:
	@ args = 0, pretend = 0, frame = 0
	@ frame_needed = 0, uses_anonymous_args = 0
	ldr	r3, .L686
	mov	r2, r1
	push	{r4, r5, r6, lr}
	mov	r5, r0
	mov	r6, r1
	mov	r1, r0
	ldrb	r4, [r3, #13]	@ zero_extendqisi2
	ldrh	r3, [r3, #14]
	ldr	r0, .L686+4
	smulbb	r4, r4, r3
	bl	printf
	uxth	r4, r4
	ldr	r3, .L686+8
	add	r0, r4, #31
	asrs	r0, r0, #5
	ldr	r2, [r3]
	movs	r3, #1
	lsls	r0, r0, #2
	uxth	r0, r0
	muls	r0, r5, r0
	lsrs	r5, r6, #5
	and	r6, r6, #31
	lsl	r6, r3, r6
	add	r0, r0, #912
	add	r0, r0, r5, lsl #2
	ldr	r3, [r2, r0]
	orrs	r3, r3, r6
	str	r3, [r2, r0]
	pop	{r4, r5, r6, pc}
.L687:
	.align	2
.L686:
	.word	.LANCHOR32
	.word	.LC48
	.word	.LANCHOR6
	.size	flash_mask_bad_block, .-flash_mask_bad_block
	.section	.text.ftl_gc_write_buf,"ax",%progbits
	.align	1
	.global	ftl_gc_write_buf
	.syntax unified
	.thumb
	.thumb_func
	.fpu softvfp
	.type	ftl_gc_write_buf, %function
ftl_gc_write_buf:
	@ args = 0, pretend = 0, frame = 0
	@ frame_needed = 0, uses_anonymous_args = 0
	push	{r3, lr}
	mov	r1, r0
	ldrb	r3, [r0, #2]	@ zero_extendqisi2
	orr	r3, r3, #2
	strb	r3, [r0, #2]
	ldr	r0, .L689
	bl	buf_add_tail
	ldr	r3, .L689+4
	ldrb	r0, [r3]	@ zero_extendqisi2
	adds	r0, r0, #1
	uxtb	r0, r0
	strb	r0, [r3]
	pop	{r3, pc}
.L690:
	.align	2
.L689:
	.word	.LANCHOR65
	.word	.LANCHOR66
	.size	ftl_gc_write_buf, .-ftl_gc_write_buf
	.section	.text.zftl_cache_flush,"ax",%progbits
	.align	1
	.global	zftl_cache_flush
	.syntax unified
	.thumb
	.thumb_func
	.fpu softvfp
	.type	zftl_cache_flush, %function
zftl_cache_flush:
	@ args = 0, pretend = 0, frame = 0
	@ frame_needed = 0, uses_anonymous_args = 0
	@ link register save eliminated.
	bx	lr
	.size	zftl_cache_flush, .-zftl_cache_flush
	.section	.text.zftl_get_density,"ax",%progbits
	.align	1
	.global	zftl_get_density
	.syntax unified
	.thumb
	.thumb_func
	.fpu softvfp
	.type	zftl_get_density, %function
zftl_get_density:
	@ args = 0, pretend = 0, frame = 0
	@ frame_needed = 0, uses_anonymous_args = 0
	@ link register save eliminated.
	cbnz	r0, .L693
	ldr	r3, .L696
	ldr	r0, [r3]
	bx	lr
.L693:
	cmp	r0, #4
	ite	cc
	movcc	r0, #8192
	movcs	r0, #0
	bx	lr
.L697:
	.align	2
.L696:
	.word	.LANCHOR67
	.size	zftl_get_density, .-zftl_get_density
	.section	.text.gc_hook,"ax",%progbits
	.align	1
	.global	gc_hook
	.syntax unified
	.thumb
	.thumb_func
	.fpu softvfp
	.type	gc_hook, %function
gc_hook:
	@ args = 0, pretend = 0, frame = 0
	@ frame_needed = 0, uses_anonymous_args = 0
	@ link register save eliminated.
	bx	lr
	.size	gc_hook, .-gc_hook
	.section	.text.vpn_check,"ax",%progbits
	.align	1
	.global	vpn_check
	.syntax unified
	.thumb
	.thumb_func
	.fpu softvfp
	.type	vpn_check, %function
vpn_check:
	@ args = 0, pretend = 0, frame = 0
	@ frame_needed = 0, uses_anonymous_args = 0
	@ link register save eliminated.
	bx	lr
	.size	vpn_check, .-vpn_check
	.section	.text.ftl_scan_all_data,"ax",%progbits
	.align	1
	.global	ftl_scan_all_data
	.syntax unified
	.thumb
	.thumb_func
	.fpu softvfp
	.type	ftl_scan_all_data, %function
ftl_scan_all_data:
	@ args = 0, pretend = 0, frame = 0
	@ frame_needed = 0, uses_anonymous_args = 0
	@ link register save eliminated.
	bx	lr
	.size	ftl_scan_all_data, .-ftl_scan_all_data
	.section	.text.FtlGetCurEraseBlock,"ax",%progbits
	.align	1
	.global	FtlGetCurEraseBlock
	.syntax unified
	.thumb
	.thumb_func
	.fpu softvfp
	.type	FtlGetCurEraseBlock, %function
FtlGetCurEraseBlock:
	@ args = 0, pretend = 0, frame = 0
	@ frame_needed = 0, uses_anonymous_args = 0
	@ link register save eliminated.
	ldr	r3, .L702
	ldrh	r0, [r3]
	bx	lr
.L703:
	.align	2
.L702:
	.word	.LANCHOR68
	.size	FtlGetCurEraseBlock, .-FtlGetCurEraseBlock
	.section	.text.FtlGetAllBlockNum,"ax",%progbits
	.align	1
	.global	FtlGetAllBlockNum
	.syntax unified
	.thumb
	.thumb_func
	.fpu softvfp
	.type	FtlGetAllBlockNum, %function
FtlGetAllBlockNum:
	@ args = 0, pretend = 0, frame = 0
	@ frame_needed = 0, uses_anonymous_args = 0
	@ link register save eliminated.
	ldr	r3, .L705
	ldrh	r0, [r3]
	bx	lr
.L706:
	.align	2
.L705:
	.word	.LANCHOR8
	.size	FtlGetAllBlockNum, .-FtlGetAllBlockNum
	.section	.text.FtlLowFormat,"ax",%progbits
	.align	1
	.global	FtlLowFormat
	.syntax unified
	.thumb
	.thumb_func
	.fpu softvfp
	.type	FtlLowFormat, %function
FtlLowFormat:
	@ args = 0, pretend = 0, frame = 0
	@ frame_needed = 0, uses_anonymous_args = 0
	@ link register save eliminated.
	movs	r0, #0
	bx	lr
	.size	FtlLowFormat, .-FtlLowFormat
	.section	.text.gc_add_sblk,"ax",%progbits
	.align	1
	.global	gc_add_sblk
	.syntax unified
	.thumb
	.thumb_func
	.fpu softvfp
	.type	gc_add_sblk, %function
gc_add_sblk:
	@ args = 0, pretend = 0, frame = 0
	@ frame_needed = 0, uses_anonymous_args = 0
	push	{r0, r1, r2, r3, r4, r5, r6, r7, r8, r10, fp, lr}
	mov	r8, r2
	ldr	r3, .L743
	mov	r5, r0
	mov	r4, r1
	ldr	r2, [r3]
	mov	r10, r3
	tst	r2, #256
	beq	.L709
	ldr	r3, .L743+4
	mov	r2, r1
	mov	r1, r0
	ldrh	r3, [r3]
	str	r3, [sp, #12]
	ldr	r3, .L743+8
	ldrh	r3, [r3, #52]
	str	r3, [sp, #8]
	ldr	r3, .L743+12
	ldr	r3, [r3]
	ldrh	r3, [r3, r0, lsl #1]
	str	r3, [sp, #4]
	ldr	r3, .L743+16
	ldr	r3, [r3]
	add	r3, r3, r0, lsl #2
	ldr	r0, .L743+20
	ldrb	r3, [r3, #2]	@ zero_extendqisi2
	lsrs	r3, r3, #5
	str	r3, [sp]
	mov	r3, r8
	bl	printf
.L709:
	ldr	r6, .L743+24
	ldrh	r2, [r6]
	cmp	r2, r5
	bhi	.L710
	movw	r2, #543
	ldr	r1, .L743+28
	ldr	r0, .L743+32
	bl	printf
.L710:
	ldrh	r3, [r6]
	cmp	r3, r5
	bhi	.L711
	ldr	r0, [r10]
	ands	r0, r0, #1024
	beq	.L708
	mov	r3, r8
	mov	r2, r4
	mov	r1, r5
	ldr	r0, .L743+36
	bl	printf
.L731:
	movs	r0, #0
	b	.L708
.L711:
	ldr	r2, .L743+16
	ldr	r3, .L743+12
	ldr	r2, [r2]
	ldr	r3, [r3]
	add	r2, r2, r5, lsl #2
	ldrh	r3, [r3, r5, lsl #1]
	ldrb	r2, [r2, #2]	@ zero_extendqisi2
	ands	r6, r2, #224
	bne	.L713
	cmp	r3, #0
	beq	.L731
	movw	r2, #553
	ldr	r1, .L743+28
	ldr	r0, .L743+32
	bl	printf
	b	.L731
.L713:
	ldr	r6, .L743+8
	ldrh	r1, [r6]
	cmp	r1, r5
	beq	.L731
	ldr	r7, .L743+40
	ldr	r1, [r7]
	ldrh	r0, [r1, #48]
	cmp	r0, r5
	beq	.L731
	ldrh	r0, [r1, #16]
	cmp	r0, r5
	beq	.L731
	ldrh	r0, [r1, #80]
	cmp	r0, r5
	beq	.L731
	ldrh	ip, [r6, #52]!
	movs	r0, #0
.L714:
	cmp	r0, ip
	bcc	.L715
	cmp	r4, #0
	bne	.L719
	ldr	r0, .L743+44
	ldrh	r6, [r0]
	mov	r0, r4
	cmp	r5, r6
	beq	.L708
	ldr	lr, .L743+56
.L718:
	ldrh	fp, [lr, r0, lsl #1]
	cmp	r5, fp
	bne	.L717
	ldr	r0, [r10]
	ands	r0, r0, #256
	beq	.L708
	stm	sp, {r5, r6}
	lsrs	r2, r2, #5
	mov	r1, r5
	ldr	r0, .L743+48
	bl	printf
	b	.L731
.L715:
	ldrh	lr, [r6, #2]!
	cmp	lr, r5
	beq	.L731
	adds	r0, r0, #1
	b	.L714
.L717:
	adds	r0, r0, #1
	cmp	r0, #8
	bne	.L718
	add	r1, r1, r8, lsl #7
	add	r6, r1, #136
.L720:
	ldr	r1, [r10]
	lsls	r1, r1, #23
	bpl	.L721
	ldr	r1, .L743+4
	ldr	r0, .L743+52
	ldrh	r1, [r1]
	stm	sp, {r3, ip}
	lsrs	r3, r2, #5
	mov	r2, r4
	str	r1, [sp, #8]
	mov	r1, r5
	bl	printf
.L721:
	mov	r3, r6
	add	r1, r6, #128
	movw	r0, #65535
.L724:
	mov	r2, r3
	adds	r3, r3, #2
	ldrh	r6, [r2]
	cmp	r6, r0
	bne	.L722
	strh	r5, [r2]	@ movhi
	cbz	r4, .L723
	ldr	r2, [r7]
	ldrh	r3, [r2, #124]
	adds	r3, r3, #1
	strh	r3, [r2, #124]	@ movhi
.L742:
	movs	r0, #1
.L708:
	add	sp, sp, #16
	@ sp needed
	pop	{r4, r5, r6, r7, r8, r10, fp, pc}
.L719:
	add	r6, r1, #392
	b	.L720
.L723:
	ldr	r3, [r7]
	add	r8, r3, r8, lsl #1
	ldrh	r3, [r8, #120]
	adds	r3, r3, #1
	strh	r3, [r8, #120]	@ movhi
	b	.L742
.L722:
	cmp	r3, r1
	bne	.L724
	b	.L742
.L744:
	.align	2
.L743:
	.word	.LANCHOR19
	.word	.LANCHOR69
	.word	.LANCHOR70
	.word	.LANCHOR11
	.word	.LANCHOR9
	.word	.LC49
	.word	.LANCHOR8
	.word	.LANCHOR71
	.word	.LC0
	.word	.LC50
	.word	.LANCHOR12
	.word	.LANCHOR72
	.word	.LC51
	.word	.LC52
	.word	.LANCHOR73
	.size	gc_add_sblk, .-gc_add_sblk
	.section	.text.gc_mark_bad_ppa,"ax",%progbits
	.align	1
	.global	gc_mark_bad_ppa
	.syntax unified
	.thumb
	.thumb_func
	.fpu softvfp
	.type	gc_mark_bad_ppa, %function
gc_mark_bad_ppa:
	@ args = 0, pretend = 0, frame = 0
	@ frame_needed = 0, uses_anonymous_args = 0
	push	{r3, r4, r5, r6, r7, r8, r10, lr}
	mov	r7, r0
	ldr	r3, .L749
	movs	r6, #1
	ldr	r2, .L749+4
	ldrh	r3, [r3]
	ldr	r8, .L749+16
	lsr	r4, r0, r3
	ldrb	r0, [r2]	@ zero_extendqisi2
	uxth	r5, r4
	rsb	r0, r0, #24
	subs	r0, r0, r3
	ldr	r3, .L749+8
	lsl	r0, r6, r0
	subs	r0, r0, #1
	ldrb	r1, [r3]	@ zero_extendqisi2
	ands	r0, r0, r4
	bl	__aeabi_uidiv
	uxth	r10, r0
	mov	r3, r7
	mov	r2, r5
	ldr	r1, [r8, #2188]
	ldr	r0, .L749+12
	bl	printf
	mov	r1, r6
	movs	r2, #0
	mov	r0, r10
	bl	gc_add_sblk
	ldr	r3, [r8, #2188]
	movs	r1, #0
.L746:
	uxth	r2, r1
	cmp	r3, r2
	bhi	.L748
	cmp	r3, #5
	itttt	ls
	addls	r2, r3, #1
	addls	r3, r3, #1096
	strls	r2, [r8, #2188]
	strhls	r5, [r8, r3, lsl #1]	@ movhi
	b	.L747
.L748:
	add	r2, r2, #1096
	adds	r1, r1, #1
	ldrh	r2, [r8, r2, lsl #1]
	cmp	r5, r2
	bne	.L746
.L747:
	movs	r0, #0
	pop	{r3, r4, r5, r6, r7, r8, r10, pc}
.L750:
	.align	2
.L749:
	.word	.LANCHOR74
	.word	.LANCHOR31
	.word	.LANCHOR75
	.word	.LC53
	.word	.LANCHOR70
	.size	gc_mark_bad_ppa, .-gc_mark_bad_ppa
	.section	.text.gc_get_src_ppa_from_index,"ax",%progbits
	.align	1
	.global	gc_get_src_ppa_from_index
	.syntax unified
	.thumb
	.thumb_func
	.fpu softvfp
	.type	gc_get_src_ppa_from_index, %function
gc_get_src_ppa_from_index:
	@ args = 0, pretend = 0, frame = 0
	@ frame_needed = 0, uses_anonymous_args = 0
	@ link register save eliminated.
	ldr	r3, .L752
	ldr	r3, [r3]
	ldr	r0, [r3, r0, lsl #2]
	bx	lr
.L753:
	.align	2
.L752:
	.word	.LANCHOR76
	.size	gc_get_src_ppa_from_index, .-gc_get_src_ppa_from_index
	.section	.text.gc_write_completed,"ax",%progbits
	.align	1
	.global	gc_write_completed
	.syntax unified
	.thumb
	.thumb_func
	.fpu softvfp
	.type	gc_write_completed, %function
gc_write_completed:
	@ args = 0, pretend = 0, frame = 8
	@ frame_needed = 0, uses_anonymous_args = 0
	push	{r0, r1, r4, r5, r6, r7, r8, r10, fp, lr}
	ldr	r5, .L781
.L755:
	ldr	r1, .L781+4
	ldrb	r8, [r1]	@ zero_extendqisi2
	cmp	r8, #255
	bne	.L768
	add	sp, sp, #8
	@ sp needed
	pop	{r4, r5, r6, r7, r8, r10, fp, pc}
.L768:
	movs	r3, #48
	mul	r3, r3, r8
	adds	r2, r5, r3
	ldrb	r3, [r5, r3]	@ zero_extendqisi2
	ldrh	r6, [r2, #32]
	strb	r3, [r1]
	ldr	r1, [r2, #36]
	cbz	r1, .L756
	ldr	r3, .L781+8
	movs	r0, #1
	ldr	r2, [r2, #24]
	strh	r0, [r3, #2182]	@ movhi
	ldr	r0, .L781+12
	str	r2, [r3, #2184]
	bl	printf
	mov	r2, #956
	ldr	r1, .L781+16
	ldr	r0, .L781+20
	bl	printf
.L756:
	ldr	r10, .L781+56
	ldrb	r3, [r10]	@ zero_extendqisi2
	cmp	r3, #3
	bne	.L757
	ldr	r3, .L781+24
	ldrb	r3, [r3]	@ zero_extendqisi2
	cmp	r3, #0
	bne	.L757
	ldr	r3, .L781+28
	ldr	r3, [r3]
	ldrb	r4, [r3, #89]	@ zero_extendqisi2
	ldr	r3, .L781+32
	ldrb	r3, [r3]	@ zero_extendqisi2
	cmp	r3, r4
	bhi	.L769
	cmp	r4, #2
	it	cs
	movcs	r4, #2
.L758:
	add	r4, r4, r4, lsl #1
.L759:
	ldr	r3, .L781+36
	movs	r2, #48
	mla	r2, r2, r8, r5
	ldr	r1, [r3]
	mov	r7, r6
	mov	fp, r3
	ldrb	r2, [r2, #1]	@ zero_extendqisi2
	ldrb	r1, [r1, r6]	@ zero_extendqisi2
	cmp	r1, r2
	beq	.L760
	mov	r2, #976
	ldr	r1, .L781+16
	ldr	r0, .L781+20
	str	r3, [sp, #4]
	bl	printf
	ldr	r3, [sp, #4]
.L760:
	movs	r2, #48
	mla	r8, r2, r8, r5
	ldrb	r2, [r8, #45]	@ zero_extendqisi2
	cmp	r2, #3
	beq	.L761
	ldrb	r2, [r10]	@ zero_extendqisi2
	cmp	r2, #3
	bne	.L761
	ldr	r2, .L781+40
	ldrb	r2, [r2]	@ zero_extendqisi2
	cbnz	r2, .L761
	ldr	r2, .L781+24
	ldrb	r2, [r2]	@ zero_extendqisi2
	cbnz	r2, .L761
	ldr	r2, .L781+44
	ldrb	r2, [r2]	@ zero_extendqisi2
	cbnz	r2, .L761
	ldr	r2, .L781+48
	ldrb	r2, [r2]	@ zero_extendqisi2
	cbz	r2, .L762
	ldr	r2, .L781+52
	ldrb	r2, [r2]	@ zero_extendqisi2
	cbnz	r2, .L761
.L762:
	ldr	r2, [r3]
	movs	r3, #0
	movs	r1, #48
	mov	r0, r3
	add	r6, r6, r2
.L763:
	uxth	r2, r3
	cmp	r4, r2
	bls	.L755
	ldrb	r2, [r6, r3]	@ zero_extendqisi2
	adds	r3, r3, #1
	mla	r2, r1, r2, r5
	strb	r0, [r2, #45]
	b	.L763
.L769:
	movs	r4, #1
	b	.L758
.L757:
	ldr	r3, .L781+48
	ldrb	r3, [r3]	@ zero_extendqisi2
	cbz	r3, .L770
	ldr	r3, .L781+52
	ldrb	r3, [r3]	@ zero_extendqisi2
	cmp	r3, #0
	ite	eq
	moveq	r4, #1
	movne	r4, #2
	b	.L759
.L770:
	movs	r4, #1
	b	.L759
.L761:
	ldr	r3, .L781+8
	mov	r10, #255
	strh	r6, [r3, #2104]	@ movhi
	mov	r8, r3
	movs	r3, #48
.L764:
	subs	r2, r7, r6
	uxth	r2, r2
	cmp	r4, r2
	bls	.L755
	ldr	r2, [fp]
	movs	r1, #0
	str	r3, [sp, #4]
	ldrb	r0, [r2, r7]	@ zero_extendqisi2
	strb	r10, [r2, r7]
	adds	r7, r7, #1
	mla	r2, r3, r0, r5
	add	r0, r0, r0, lsl #1
	strb	r1, [r2, #45]
	add	r0, r5, r0, lsl #4
	bl	zbuf_free
	ldrb	r2, [r8, #7]	@ zero_extendqisi2
	ldr	r3, [sp, #4]
	subs	r2, r2, #1
	strb	r2, [r8, #7]
	b	.L764
.L782:
	.align	2
.L781:
	.word	.LANCHOR55
	.word	.LANCHOR63
	.word	.LANCHOR70
	.word	.LC54
	.word	.LANCHOR77
	.word	.LC0
	.word	.LANCHOR35
	.word	.LANCHOR12
	.word	.LANCHOR79
	.word	.LANCHOR82
	.word	.LANCHOR83
	.word	.LANCHOR36
	.word	.LANCHOR80
	.word	.LANCHOR81
	.word	.LANCHOR78
	.size	gc_write_completed, .-gc_write_completed
	.section	.text.gc_get_src_blk,"ax",%progbits
	.align	1
	.global	gc_get_src_blk
	.syntax unified
	.thumb
	.thumb_func
	.fpu softvfp
	.type	gc_get_src_blk, %function
gc_get_src_blk:
	@ args = 0, pretend = 0, frame = 0
	@ frame_needed = 0, uses_anonymous_args = 0
	ldr	r3, .L792
	push	{r4, r5, r6, r7, lr}
	ldr	r2, [r3]
	ldr	r3, .L792+4
	ldrh	r4, [r2, #124]
	ldrb	r1, [r3]	@ zero_extendqisi2
	cbz	r4, .L784
	add	r3, r2, #392
	movs	r4, #1
.L785:
	add	r6, r3, #128
	movw	r5, #65535
.L789:
	mov	r7, r3
	ldrh	r0, [r3], #2
	cmp	r0, r5
	beq	.L787
	strh	r5, [r7]	@ movhi
	cbz	r4, .L788
	ldrh	r3, [r2, #124]
	subs	r3, r3, #1
	strh	r3, [r2, #124]	@ movhi
	pop	{r4, r5, r6, r7, pc}
.L784:
	add	r3, r1, #60
	ldrh	r3, [r2, r3, lsl #1]
	cbz	r3, .L790
	add	r3, r2, r1, lsl #7
	adds	r3, r3, #136
	b	.L785
.L788:
	add	r2, r2, r1, lsl #1
	ldrh	r3, [r2, #120]
	subs	r3, r3, #1
	strh	r3, [r2, #120]	@ movhi
	pop	{r4, r5, r6, r7, pc}
.L787:
	cmp	r3, r6
	bne	.L789
	pop	{r4, r5, r6, r7, pc}
.L790:
	movw	r0, #65535
	pop	{r4, r5, r6, r7, pc}
.L793:
	.align	2
.L792:
	.word	.LANCHOR12
	.word	.LANCHOR84
	.size	gc_get_src_blk, .-gc_get_src_blk
	.section	.text.gc_free_temp_buf,"ax",%progbits
	.align	1
	.global	gc_free_temp_buf
	.syntax unified
	.thumb
	.thumb_func
	.fpu softvfp
	.type	gc_free_temp_buf, %function
gc_free_temp_buf:
	@ args = 0, pretend = 0, frame = 0
	@ frame_needed = 0, uses_anonymous_args = 0
	push	{r3, r4, r5, r6, r7, lr}
	ldr	r5, .L808
	ldrb	r0, [r5, #7]	@ zero_extendqisi2
	cbz	r0, .L794
	ldr	r3, .L808+4
	ldrb	r3, [r3]	@ zero_extendqisi2
	cmp	r3, #1
	bhi	.L801
	ldr	r3, .L808+8
	movs	r7, #48
	ldrh	r4, [r5, #2104]
	ldr	r6, .L808+12
	ldrh	r2, [r3]
	ldr	r3, .L808+16
	add	r1, r4, #24
	ldr	r0, .L808+20
	ldrb	r3, [r3]	@ zero_extendqisi2
	muls	r2, r3, r2
	cmp	r2, r1
	it	cs
	movcs	r2, r1
	ldr	r1, [r6]
.L796:
	cmp	r4, r2
	bcc	.L799
.L801:
	movs	r0, #0
.L794:
	pop	{r3, r4, r5, r6, r7, pc}
.L799:
	ldrb	r3, [r1, r4]	@ zero_extendqisi2
	cmp	r3, #255
	beq	.L797
	mla	ip, r7, r3, r0
	ldrb	ip, [ip, #45]	@ zero_extendqisi2
	cmp	ip, #0
	bne	.L797
	add	r3, r3, r3, lsl #1
	add	r0, r0, r3, lsl #4
	bl	zbuf_free
	ldr	r3, .L808+24
	ldr	r3, [r3]
	lsls	r3, r3, #23
	bpl	.L798
	ldr	r3, [r6]
	mov	r1, r4
	ldr	r0, .L808+28
	ldrb	r2, [r3, r4]	@ zero_extendqisi2
	bl	printf
.L798:
	ldr	r3, [r6]
	movs	r2, #255
	movs	r0, #1
	strb	r2, [r3, r4]
	ldrb	r3, [r5, #7]	@ zero_extendqisi2
	subs	r3, r3, #1
	strb	r3, [r5, #7]
	pop	{r3, r4, r5, r6, r7, pc}
.L797:
	adds	r4, r4, #1
	b	.L796
.L809:
	.align	2
.L808:
	.word	.LANCHOR70
	.word	.LANCHOR57
	.word	.LANCHOR85
	.word	.LANCHOR82
	.word	.LANCHOR79
	.word	.LANCHOR55
	.word	.LANCHOR19
	.word	.LC55
	.size	gc_free_temp_buf, .-gc_free_temp_buf
	.section	.text.get_ink_scaned_blk,"ax",%progbits
	.align	1
	.global	get_ink_scaned_blk
	.syntax unified
	.thumb
	.thumb_func
	.fpu softvfp
	.type	get_ink_scaned_blk, %function
get_ink_scaned_blk:
	@ args = 0, pretend = 0, frame = 0
	@ frame_needed = 0, uses_anonymous_args = 0
	@ link register save eliminated.
	ldr	r2, .L813
	ldrh	r3, [r2, #2108]
	cbz	r3, .L812
	add	r1, r2, r3, lsl #1
	subs	r3, r3, #1
	strh	r3, [r2, #2108]	@ movhi
	ldrh	r0, [r1, #2108]
	bx	lr
.L812:
	movw	r0, #65535
	bx	lr
.L814:
	.align	2
.L813:
	.word	.LANCHOR70
	.size	get_ink_scaned_blk, .-get_ink_scaned_blk
	.section	.text.print_gc_debug_info,"ax",%progbits
	.align	1
	.global	print_gc_debug_info
	.syntax unified
	.thumb
	.thumb_func
	.fpu softvfp
	.type	print_gc_debug_info, %function
print_gc_debug_info:
	@ args = 0, pretend = 0, frame = 0
	@ frame_needed = 0, uses_anonymous_args = 0
	push	{r0, r1, r2, r3, r4, lr}
	ldr	r4, .L816
	ldr	r0, .L816+4
	ldrh	r4, [r4]
	ldrh	r3, [r0, #2102]
	ldrh	r2, [r0, #2]
	ldrh	r1, [r0]
	str	r4, [sp, #8]
	ldrb	r0, [r0, #7]	@ zero_extendqisi2
	str	r0, [sp, #4]
	ldr	r0, .L816+8
	ldrb	r0, [r0]	@ zero_extendqisi2
	str	r0, [sp]
	ldr	r0, .L816+12
	bl	printf
	add	sp, sp, #16
	@ sp needed
	pop	{r4, pc}
.L817:
	.align	2
.L816:
	.word	.LANCHOR86
	.word	.LANCHOR70
	.word	.LANCHOR57
	.word	.LC56
	.size	print_gc_debug_info, .-print_gc_debug_info
	.section	.text._list_pop_index_node,"ax",%progbits
	.align	1
	.global	_list_pop_index_node
	.syntax unified
	.thumb
	.thumb_func
	.fpu softvfp
	.type	_list_pop_index_node, %function
_list_pop_index_node:
	@ args = 0, pretend = 0, frame = 0
	@ frame_needed = 0, uses_anonymous_args = 0
	push	{r3, r4, r5, r6, r7, lr}
	ldr	r5, [r0]
	cbz	r5, .L824
	ldr	r3, .L825
	movw	r6, #65535
	movs	r7, #6
	ldr	r4, [r3]
.L820:
	cbnz	r1, .L821
.L823:
	subs	r4, r5, r4
	asrs	r3, r4, #1
	ldr	r4, .L825+4
	muls	r4, r3, r4
	uxth	r1, r4
	bl	_list_remove_node
	movw	r3, #65535
	uxth	r0, r4
	strh	r3, [r5]	@ movhi
	strh	r3, [r5, #2]	@ movhi
	pop	{r3, r4, r5, r6, r7, pc}
.L821:
	ldrh	r3, [r5]
	cmp	r3, r6
	beq	.L823
	subs	r1, r1, #1
	mla	r5, r7, r3, r4
	uxth	r1, r1
	b	.L820
.L824:
	movw	r0, #65535
	pop	{r3, r4, r5, r6, r7, pc}
.L826:
	.align	2
.L825:
	.word	.LANCHOR4
	.word	-1431655765
	.size	_list_pop_index_node, .-_list_pop_index_node
	.section	.text._list_get_gc_head_node,"ax",%progbits
	.align	1
	.global	_list_get_gc_head_node
	.syntax unified
	.thumb
	.thumb_func
	.fpu softvfp
	.type	_list_get_gc_head_node, %function
_list_get_gc_head_node:
	@ args = 0, pretend = 0, frame = 0
	@ frame_needed = 0, uses_anonymous_args = 0
	ldr	r0, [r0]
	push	{r4, lr}
	cbz	r0, .L832
	ldr	r3, .L834
	movw	r2, #65535
	movs	r4, #6
	ldr	r3, [r3]
.L829:
	cbz	r1, .L830
	ldrh	r0, [r0]
	cmp	r0, r2
	bne	.L831
	pop	{r4, pc}
.L831:
	subs	r1, r1, #1
	mla	r0, r4, r0, r3
	uxth	r1, r1
	b	.L829
.L832:
	movw	r0, #65535
	pop	{r4, pc}
.L830:
	subs	r0, r0, r3
	asrs	r3, r0, #1
	ldr	r0, .L834+4
	muls	r0, r3, r0
	uxth	r0, r0
	pop	{r4, pc}
.L835:
	.align	2
.L834:
	.word	.LANCHOR4
	.word	-1431655765
	.size	_list_get_gc_head_node, .-_list_get_gc_head_node
	.section	.text.gc_search_src_blk,"ax",%progbits
	.align	1
	.global	gc_search_src_blk
	.syntax unified
	.thumb
	.thumb_func
	.fpu softvfp
	.type	gc_search_src_blk, %function
gc_search_src_blk:
	@ args = 0, pretend = 0, frame = 24
	@ frame_needed = 0, uses_anonymous_args = 0
	ldr	r3, .L947
	push	{r4, r5, r6, r7, r8, r10, fp, lr}
	sub	sp, sp, #32
	str	r0, [sp, #12]
	mov	r6, r2
	ldr	r0, [r3]
	ldr	r3, [sp, #12]
	str	r1, [sp, #20]
	adds	r3, r3, #60
	ldrh	r7, [r0, r3, lsl #1]
	cbz	r7, .L837
	mov	r0, r7
.L836:
	add	sp, sp, #32
	@ sp needed
	pop	{r4, r5, r6, r7, r8, r10, fp, pc}
.L837:
	ldr	r3, .L947+4
	ldrh	r2, [r3, #52]
	cmp	r2, #1
	bhi	.L839
	ldr	r1, .L947+8
	strh	r7, [r1]	@ movhi
	ldr	r1, .L947+12
	strh	r7, [r1]	@ movhi
	ldr	r1, .L947+16
	strh	r7, [r1]	@ movhi
.L839:
	ldr	r1, [sp, #12]
	cmp	r1, #0
	bne	.L840
	ldr	r7, .L947+12
	mov	r8, r1
	mov	r4, r1
.L841:
	uxth	r3, r8
	cmp	r6, r3
	blt	.L846
	ldrh	r10, [r7]
	ldr	r0, .L947+20
	mov	r1, r10
	bl	_list_get_gc_head_node
	add	r2, r10, #1
	movw	r3, #65535
	uxth	r2, r2
	cmp	r0, r3
	mov	r5, r0
	strh	r2, [r7]	@ movhi
	beq	.L842
	ldr	r3, .L947+24
	ldr	r10, .L947+48
	ldr	r3, [r3]
	tst	r3, #256
	beq	.L843
	ldr	r3, [r10]
	mov	r1, r0
	ldrh	r3, [r3, r0, lsl #1]
	ldr	r0, .L947+28
	bl	printf
.L843:
	ldr	r3, [r10]
	ldrh	r2, [r3, r5, lsl #1]
	ldr	r3, .L947+32
	ldrh	r3, [r3]
	cmp	r2, r3
	bcs	.L842
	movs	r2, #0
	mov	r0, r5
	mov	r1, r2
	bl	gc_add_sblk
	cmp	r0, #0
	beq	.L845
	adds	r4, r4, #1
	uxth	r4, r4
	cmp	r4, r6
	bcc	.L845
.L846:
	ldr	r3, [sp, #20]
	lsls	r0, r3, #30
	bpl	.L848
	ldr	r3, .L947+36
	ldrh	r3, [r3]
	cmp	r3, #32
	bls	.L848
	ldr	r5, .L947+40
	mov	r10, #0
	ldr	r7, .L947+16
.L849:
	uxth	r3, r10
	cmp	r6, r3
	blt	.L853
	ldrh	r8, [r7]
	ldr	r0, .L947+44
	mov	r1, r8
	add	r8, r8, #1
	bl	_list_get_gc_head_node
	movw	r2, #65535
	strh	r8, [r7]	@ movhi
	cmp	r0, r2
	beq	.L850
	ldr	r2, .L947+48
	ldrh	r3, [r5]
	ldr	r2, [r2]
	ldrh	r2, [r2, r0, lsl #1]
	cmp	r2, r3
	bcs	.L850
	movs	r2, #0
	mov	r1, r2
	bl	gc_add_sblk
	cmp	r0, #0
	beq	.L852
	adds	r4, r4, #1
	uxth	r4, r4
	cmp	r4, r6
	bcc	.L852
.L853:
	cmp	r4, r6
	ldr	r1, .L947+52
	bcs	.L855
	ldr	r3, .L947+56
	ldrh	r1, [r1]
	ldrh	r2, [r5]
	ldrh	r0, [r3]
	ldr	r3, .L947+60
	ldrb	r3, [r3]	@ zero_extendqisi2
	muls	r3, r0, r3
	sub	r3, r3, r1, lsr #2
	cmp	r2, r3
	bge	.L848
	add	r2, r2, r1, lsr #3
	strh	r2, [r5]	@ movhi
.L848:
	ldr	r3, [sp, #20]
	lsls	r1, r3, #31
	bpl	.L856
	uxth	r5, r6
	cmp	r4, r5
	bcs	.L856
	ldr	r10, .L947+8
	movs	r7, #0
	ldr	r8, .L947+68
.L861:
	ldrh	fp, [r10]
	mov	r0, r8
	mov	r1, fp
	add	fp, fp, #1
	bl	_list_get_gc_head_node
	movw	r3, #65535
	strh	fp, [r10]	@ movhi
	cmp	r0, r3
	beq	.L857
	movs	r2, #0
	mov	r1, r2
	bl	gc_add_sblk
	cmp	r0, #0
	beq	.L858
	adds	r4, r4, #1
	uxth	r4, r4
	cmp	r5, r4
	bhi	.L858
.L859:
	ldr	r3, .L947+52
	ldr	r2, .L947+32
	ldrh	r1, [r3]
	ldrh	r3, [r2]
	cmp	r3, r1, lsr #1
	bls	.L856
	sub	r3, r3, r1, lsr #3
	b	.L946
.L842:
	movs	r3, #0
	strh	r3, [r7]	@ movhi
	b	.L846
.L845:
	add	r8, r8, #1
	b	.L841
.L850:
	movs	r3, #0
	strh	r3, [r7]	@ movhi
	b	.L853
.L852:
	add	r10, r10, #1
	b	.L849
.L855:
	ldrh	r3, [r5]
	ldrh	r2, [r1]
	cmp	r3, r2
	itt	hi
	subhi	r3, r3, r2, lsr #3
	strhhi	r3, [r5]	@ movhi
	b	.L848
.L857:
	movs	r3, #0
	strh	r3, [r10]	@ movhi
.L860:
	cmp	r4, r5
	bcs	.L859
	ldr	r2, .L947+32
	ldr	r1, .L947+52
	ldrh	r3, [r2]
	ldrh	r1, [r1]
	cmp	r3, r1
	bcs	.L856
	add	r3, r3, r1, lsr #3
.L946:
	strh	r3, [r2]	@ movhi
.L856:
	ldr	r3, .L947+24
	ldr	r3, [r3]
	lsls	r3, r3, #23
	bpl	.L892
	str	r6, [sp]
	mov	r3, r4
	ldr	r2, [sp, #20]
	ldr	r1, [sp, #12]
	ldr	r0, .L947+64
	bl	printf
.L892:
	mov	r0, r4
	b	.L836
.L858:
	adds	r7, r7, #1
	uxth	r3, r7
	cmp	r5, r3
	bhi	.L861
	b	.L860
.L948:
	.align	2
.L947:
	.word	.LANCHOR12
	.word	.LANCHOR70
	.word	.LANCHOR87
	.word	.LANCHOR88
	.word	.LANCHOR89
	.word	.LANCHOR90
	.word	.LANCHOR19
	.word	.LC57
	.word	.LANCHOR69
	.word	.LANCHOR91
	.word	.LANCHOR93
	.word	.LANCHOR92
	.word	.LANCHOR11
	.word	.LANCHOR94
	.word	.LANCHOR85
	.word	.LANCHOR79
	.word	.LC58
	.word	.LANCHOR95
.L840:
	ldr	r1, .L949
	cmp	r6, #1
	ldr	r4, .L949+4
	ldrb	r1, [r1]	@ zero_extendqisi2
	ldrh	r4, [r4]
	smulbb	r1, r1, r4
	uxth	r1, r1
	str	r1, [sp, #16]
	bne	.L862
	cbz	r2, .L862
	ldrh	r0, [r0, #80]
	movw	r1, #65535
	cmp	r0, r1
	beq	.L895
	ldr	r0, [sp, #16]
	ldrh	r1, [r3, #2102]
	subs	r1, r0, r1
	uxth	r1, r1
	str	r1, [sp, #16]
.L895:
	movs	r6, #8
.L862:
	movs	r5, #0
	strh	r5, [r3, #2180]	@ movhi
	ldr	r3, .L949+8
	strh	r5, [r3]	@ movhi
	ldr	r3, [sp, #20]
	ands	r3, r3, #1
	str	r3, [sp, #24]
	beq	.L896
	ldr	r3, .L949+12
	ldr	r1, .L949+16
	ldrh	r3, [r3]
	ldrh	r1, [r1]
	cmp	r3, r1, lsr #2
	bhi	.L864
	ldr	r1, .L949+20
	ldrh	r1, [r1]
	cmp	r1, r3
	bcs	.L897
.L864:
	cmp	r2, #1
	bls	.L866
.L868:
	movs	r4, #0
.L867:
	ldr	r10, .L949+64
	movs	r5, #0
	mov	r8, #64
.L871:
	ldrh	r3, [r10]
	ldr	r0, .L949+24
	mov	r1, r3
	str	r3, [sp, #28]
	bl	_list_get_gc_head_node
	movw	r2, #65535
	mov	fp, r0
	cmp	r0, r2
	beq	.L869
	ldr	r3, [sp, #28]
	ldr	r2, [sp, #12]
	adds	r1, r3, #1
	strh	r1, [r10]	@ movhi
	movs	r1, #0
	bl	gc_add_sblk
	cmp	r0, #0
	beq	.L870
	ldr	r3, .L949+28
	adds	r4, r4, #1
	uxth	r4, r4
	ldr	r3, [r3]
	cmp	r4, r6
	ldrh	r3, [r3, fp, lsl #1]
	add	r5, r5, r3
	uxth	r5, r5
	bcs	.L865
	ldr	r3, [sp, #16]
	cmp	r3, r5
	bcc	.L865
	ldr	r3, .L949+20
	ldr	r2, .L949+12
	ldrh	r3, [r3]
	ldrh	r2, [r2]
	cmp	r3, r2, lsl #1
	ble	.L870
.L865:
	ldr	r3, .L949+20
	ldrh	r2, [r3]
	ldr	r3, .L949+16
	ldrh	r3, [r3]
	cmp	r2, r3, lsr #2
	bhi	.L893
	ldr	r3, .L949+12
	ldrh	r3, [r3]
	adds	r3, r3, #8
	cmp	r2, r3
	ble	.L863
.L893:
	ldr	r3, [sp, #16]
	cmp	r3, r5
	bls	.L863
	ldr	r10, .L949+56
	mov	r8, #64
.L874:
	ldrh	r3, [r10]
	ldr	r0, .L949+32
	mov	r1, r3
	str	r3, [sp, #28]
	bl	_list_get_gc_head_node
	movw	r2, #65535
	mov	fp, r0
	cmp	r0, r2
	ldr	r3, [sp, #28]
	beq	.L872
	adds	r3, r3, #1
	ldr	r2, [sp, #12]
	movs	r1, #0
	strh	r3, [r10]	@ movhi
	bl	gc_add_sblk
	cmp	r0, #0
	beq	.L873
	ldr	r3, .L949+28
	adds	r4, r4, #1
	uxth	r4, r4
	ldr	r3, [r3]
	cmp	r4, r6
	ldrh	r3, [r3, fp, lsl #1]
	add	r5, r5, r3
	uxth	r5, r5
	bcs	.L863
	ldr	r3, [sp, #16]
	cmp	r3, r5
	bcs	.L873
.L863:
	ldr	r3, [sp, #20]
	lsls	r2, r3, #30
	bpl	.L875
	ldr	r3, .L949+36
	ldrh	r3, [r3]
	cmp	r3, #32
	bls	.L875
	ldr	r3, [sp, #16]
	cmp	r5, r3
	bcs	.L875
	ldr	r10, .L949+68
	movs	r3, #64
.L881:
	ldrh	fp, [r10]
	ldr	r0, .L949+40
	str	r3, [sp, #28]
	mov	r1, fp
	bl	_list_get_gc_head_node
	movw	r2, #65535
	mov	r8, r0
	cmp	r0, r2
	beq	.L876
	cmp	r6, #1
	add	r1, fp, #1
	strh	r1, [r10]	@ movhi
	ldr	r3, [sp, #28]
	bne	.L877
	ldr	r2, .L949
	ldr	r1, .L949+4
	ldrb	r2, [r2]	@ zero_extendqisi2
	ldrh	r1, [r1]
	smulbb	r2, r2, r1
	ldr	r1, .L949+44
	ldrh	r1, [r1]
	sub	r2, r2, r1, lsr #3
	ldr	r1, .L949+48
	strh	r2, [r1]	@ movhi
.L877:
	ldr	fp, .L949+28
	str	r3, [sp, #28]
	ldr	r2, [fp]
	ldrh	r1, [r2, r8, lsl #1]
	ldr	r2, .L949+48
	ldrh	r2, [r2]
	cmp	r1, r2
	bcs	.L878
	ldr	r2, [sp, #12]
	movs	r1, #0
	mov	r0, r8
	bl	gc_add_sblk
	ldr	r3, [sp, #28]
	cmp	r0, #0
	beq	.L879
	ldr	r2, [fp]
	adds	r4, r4, #1
	uxth	r4, r4
	adds	r7, r7, #1
	uxth	r7, r7
	ldrh	r2, [r2, r8, lsl #1]
	cmp	r4, r6
	add	r5, r5, r2
	uxth	r5, r5
	bcs	.L880
	ldr	r2, [sp, #16]
	cmp	r2, r5
	bcs	.L879
.L880:
	cmp	r4, r6
	ldr	r0, .L949+44
	ldr	r2, .L949+48
	bcc	.L882
	cmp	r7, #0
	bne	.L883
	ldr	r3, .L949+36
	ldrh	r1, [r3]
	ldr	r3, .L949+52
	ldrh	r3, [r3]
	cmp	r1, r3
	bls	.L883
.L882:
	ldrh	r3, [r0]
	ldrh	r1, [r2]
	lsrs	r0, r3, #3
	ldr	r3, .L949+4
	ldrh	r7, [r3]
	ldr	r3, .L949
	ldrb	r3, [r3]	@ zero_extendqisi2
	muls	r3, r7, r3
	subs	r3, r3, r0
	cmp	r1, r3
	bge	.L875
	adds	r3, r1, r0
	strh	r3, [r2]	@ movhi
.L875:
	ldr	r3, [sp, #24]
	cmp	r3, #0
	beq	.L856
	uxth	fp, r6
	cmp	r4, fp
	bcs	.L856
	ldr	r3, [sp, #16]
	cmp	r5, r3
	bcs	.L856
	ldr	r3, .L949+56
	mov	r8, #64
.L891:
	ldrh	r2, [r3]
	ldr	r0, .L949+32
	str	r3, [sp, #28]
	mov	r1, r2
	str	r2, [sp, #24]
	bl	_list_get_gc_head_node
	movw	r1, #65535
	mov	r10, r0
	cmp	r0, r1
	ldr	r7, .L949+60
	ldr	r2, [sp, #24]
	ldr	r3, [sp, #28]
	beq	.L885
	adds	r2, r2, #1
	strh	r2, [r3]	@ movhi
	ldr	r2, .L949+28
	ldr	r2, [r2]
	ldrh	r1, [r2, r0, lsl #1]
	ldrh	r2, [r7]
	cmp	r1, r2
	bcs	.L886
	ldr	r2, .L949+16
	ldrh	r1, [r2]
	ldr	r2, .L949+20
	ldrh	r2, [r2]
	cmp	r2, r1, lsr #1
	bls	.L887
.L886:
	ldr	r2, [sp, #12]
	movs	r1, #0
	mov	r0, r10
	str	r3, [sp, #24]
	bl	gc_add_sblk
	ldr	r3, [sp, #24]
	cmp	r0, #0
	beq	.L888
	ldr	r2, .L949+28
	adds	r4, r4, #1
	uxth	r4, r4
	ldr	r2, [r2]
	cmp	fp, r4
	ldrh	r2, [r2, r10, lsl #1]
	add	r5, r5, r2
	uxth	r5, r5
	bls	.L889
	ldr	r2, [sp, #16]
	cmp	r2, r5
	bcs	.L888
.L890:
	ldr	r3, .L949+44
	ldrh	r2, [r3]
	ldrh	r3, [r7]
	cmp	r3, r2, lsr #1
	bls	.L856
	sub	r3, r3, r2, lsr #3
	strh	r3, [r7]	@ movhi
	b	.L856
.L950:
	.align	2
.L949:
	.word	.LANCHOR79
	.word	.LANCHOR85
	.word	.LANCHOR96
	.word	.LANCHOR97
	.word	.LANCHOR98
	.word	.LANCHOR99
	.word	.LANCHOR95
	.word	.LANCHOR11
	.word	.LANCHOR90
	.word	.LANCHOR91
	.word	.LANCHOR92
	.word	.LANCHOR94
	.word	.LANCHOR100
	.word	.LANCHOR101
	.word	.LANCHOR88
	.word	.LANCHOR102
	.word	.LANCHOR87
	.word	.LANCHOR89
.L866:
	ldr	r4, .L951
	lsrs	r3, r3, #2
	movs	r1, #0
	ldr	r0, .L951+4
	strh	r3, [r4]	@ movhi
	bl	_list_get_gc_head_node
	movw	r2, #65535
	cmp	r0, r2
	beq	.L868
	ldr	r2, .L951+8
	ldr	r1, [r2]
	ldr	r2, .L951+12
	ldrh	r3, [r1, r0, lsl #1]
	ldrh	r2, [r2]
	cmp	r3, r2, lsr #2
	bcs	.L868
	movs	r3, #1
	ldr	r2, [sp, #12]
	movs	r1, #0
	strh	r3, [r4]	@ movhi
	bl	gc_add_sblk
	adds	r4, r0, #0
	it	ne
	movne	r4, #1
	b	.L867
.L869:
	movs	r3, #0
	strh	r3, [r10]	@ movhi
	b	.L865
.L870:
	add	r8, r8, #-1
	uxth	r8, r8
	cmp	r8, #0
	bne	.L871
	b	.L865
.L872:
	cmp	r3, #64
	bls	.L863
	movs	r3, #0
	strh	r3, [r10]	@ movhi
	b	.L863
.L873:
	add	r8, r8, #-1
	uxth	r8, r8
	cmp	r8, #0
	bne	.L874
	b	.L863
.L896:
	ldr	r5, [sp, #24]
	mov	r4, r5
	b	.L863
.L878:
	ldr	r3, .L951+16
	movs	r2, #0
	strh	r2, [r3]	@ movhi
	b	.L880
.L876:
	movs	r3, #0
	strh	r3, [r10]	@ movhi
	b	.L880
.L879:
	subs	r3, r3, #1
	uxth	r3, r3
	cmp	r3, #0
	bne	.L881
	b	.L880
.L883:
	ldr	r1, .L951+20
	ldrh	r0, [r0]
	ldrh	r3, [r2]
	ldrb	r1, [r1]	@ zero_extendqisi2
	muls	r1, r0, r1
	cmp	r3, r1
	ble	.L856
	sub	r3, r3, r0, lsr #3
	b	.L946
.L885:
	cmp	r2, #64
	bls	.L887
	movs	r2, #0
	strh	r2, [r3]	@ movhi
.L887:
	cmp	r4, fp
	bcc	.L890
.L889:
	ldr	r3, .L951+12
	ldrh	r2, [r7]
	ldrh	r1, [r3]
	ldr	r3, .L951+20
	ldrb	r3, [r3]	@ zero_extendqisi2
	muls	r3, r1, r3
	subs	r3, r3, #32
	cmp	r2, r3
	itt	lt
	addlt	r2, r2, r1, lsr #3
	strhlt	r2, [r7]	@ movhi
	b	.L856
.L888:
	add	r8, r8, #-1
	uxth	r8, r8
	cmp	r8, #0
	bne	.L891
	b	.L887
.L897:
	mov	r4, r5
	b	.L865
.L952:
	.align	2
.L951:
	.word	.LANCHOR87
	.word	.LANCHOR95
	.word	.LANCHOR11
	.word	.LANCHOR94
	.word	.LANCHOR89
	.word	.LANCHOR79
	.size	gc_search_src_blk, .-gc_search_src_blk
	.section	.text.zftl_get_gc_node,"ax",%progbits
	.align	1
	.global	zftl_get_gc_node
	.syntax unified
	.thumb
	.thumb_func
	.fpu softvfp
	.type	zftl_get_gc_node, %function
zftl_get_gc_node:
	@ args = 0, pretend = 0, frame = 0
	@ frame_needed = 0, uses_anonymous_args = 0
	@ link register save eliminated.
	cmp	r1, #5
	bne	.L954
	mov	r1, r0
	ldr	r0, .L957
.L956:
	b	_list_get_gc_head_node
.L954:
	cmp	r1, #2
	mov	r1, r0
	ite	eq
	ldreq	r0, .L957+4
	ldrne	r0, .L957+8
	b	.L956
.L958:
	.align	2
.L957:
	.word	.LANCHOR92
	.word	.LANCHOR95
	.word	.LANCHOR90
	.size	zftl_get_gc_node, .-zftl_get_gc_node
	.section	.text.zftl_insert_free_list,"ax",%progbits
	.align	1
	.global	zftl_insert_free_list
	.syntax unified
	.thumb
	.thumb_func
	.fpu softvfp
	.type	zftl_insert_free_list, %function
zftl_insert_free_list:
	@ args = 0, pretend = 0, frame = 0
	@ frame_needed = 0, uses_anonymous_args = 0
	@ link register save eliminated.
	ldr	r3, .L963
	mov	r1, r0
	ldr	r3, [r3]
	add	r3, r3, r0, lsl #2
	ldrb	r3, [r3, #2]	@ zero_extendqisi2
	ands	r3, r3, #24
	bne	.L960
	ldr	r2, .L963+4
	ldr	r0, .L963+8
.L962:
	b	_insert_free_list
.L960:
	cmp	r3, #16
	ittee	eq
	ldreq	r2, .L963+12
	ldreq	r0, .L963+16
	ldrne	r2, .L963+20
	ldrne	r0, .L963+24
	b	.L962
.L964:
	.align	2
.L963:
	.word	.LANCHOR9
	.word	.LANCHOR103
	.word	.LANCHOR104
	.word	.LANCHOR105
	.word	.LANCHOR106
	.word	.LANCHOR107
	.word	.LANCHOR108
	.size	zftl_insert_free_list, .-zftl_insert_free_list
	.section	.text.zftl_insert_data_list,"ax",%progbits
	.align	1
	.global	zftl_insert_data_list
	.syntax unified
	.thumb
	.thumb_func
	.fpu softvfp
	.type	zftl_insert_data_list, %function
zftl_insert_data_list:
	@ args = 0, pretend = 0, frame = 0
	@ frame_needed = 0, uses_anonymous_args = 0
	@ link register save eliminated.
	ldr	r3, .L970
	mov	r1, r0
	ldr	r3, [r3]
	add	r3, r3, r0, lsl #2
	ldrb	r3, [r3, #2]	@ zero_extendqisi2
	and	r3, r3, #224
	cmp	r3, #64
	bne	.L966
	ldr	r2, .L970+4
	ldr	r0, .L970+8
.L969:
	b	_insert_data_list
.L966:
	cmp	r3, #96
	bne	.L967
	ldr	r2, .L970+12
	ldr	r0, .L970+16
	b	.L969
.L967:
	cmp	r3, #160
	bne	.L965
	ldr	r2, .L970+20
	ldr	r0, .L970+24
	b	.L969
.L965:
	bx	lr
.L971:
	.align	2
.L970:
	.word	.LANCHOR9
	.word	.LANCHOR97
	.word	.LANCHOR95
	.word	.LANCHOR99
	.word	.LANCHOR90
	.word	.LANCHOR91
	.word	.LANCHOR92
	.size	zftl_insert_data_list, .-zftl_insert_data_list
	.section	.text.zftl_gc_get_free_sblk,"ax",%progbits
	.align	1
	.global	zftl_gc_get_free_sblk
	.syntax unified
	.thumb
	.thumb_func
	.fpu softvfp
	.type	zftl_gc_get_free_sblk, %function
zftl_gc_get_free_sblk:
	@ args = 0, pretend = 0, frame = 0
	@ frame_needed = 0, uses_anonymous_args = 0
	push	{r0, r1, r2, r3, r4, r5, r6, r7, r8, lr}
	movw	r5, #65535
	ldr	r8, .L993+48
	mov	r4, r0
	mov	r6, r1
	ldr	r3, [r8]
	ldrh	r7, [r3, #588]
	cmp	r7, r5
	beq	.L973
	cbnz	r0, .L973
	mov	r1, r7
	ldr	r0, .L993
	bl	printf
	ldr	r3, [r8]
	strh	r5, [r3, #588]	@ movhi
.L974:
	mov	r0, r7
	add	sp, sp, #16
	@ sp needed
	pop	{r4, r5, r6, r7, r8, pc}
.L973:
	ldr	r3, .L993+4
	ldr	r5, .L993+8
	ldrh	r1, [r3]
	ldrh	r3, [r5]
	cmp	r1, r3
	bcc	.L975
	ldr	r2, .L993+12
	ldrh	r2, [r2]
	cmp	r2, r1
	bls	.L976
	cmp	r3, #0
	beq	.L976
.L975:
	cmp	r4, #0
	bne	.L977
	lsrs	r1, r3, #2
.L978:
	ldr	r2, .L993+8
	ldr	r0, .L993+16
.L992:
	bl	_list_pop_index_node
	uxth	r7, r0
	movw	r3, #65535
	cmp	r7, r3
	bne	.L981
	ldrh	r3, [r5]
	mov	r2, r6
	mov	r1, r7
	ldr	r0, .L993+20
	str	r3, [sp, #4]
	ldr	r3, .L993+12
	ldrh	r3, [r3]
	str	r3, [sp]
	ldr	r3, .L993+24
	ldr	r3, [r3]
	bl	printf
.L981:
	cmp	r4, #0
	beq	.L974
	ldr	r3, .L993+28
	ldr	r3, [r3]
	lsls	r3, r3, #23
	bpl	.L974
	ldr	r3, .L993+32
	ldr	r1, .L993+36
	ldr	r0, .L993+40
	ldr	r3, [r3]
	ldr	r1, [r1]
	ldrh	r1, [r1, r7, lsl #1]
	add	r2, r3, r7, lsl #2
	ldrb	r2, [r2, #2]	@ zero_extendqisi2
	str	r1, [sp, #8]
	ldrh	r1, [r3, r7, lsl #2]
	ubfx	r1, r1, #0, #11
	str	r1, [sp, #4]
	mov	r1, r7
	ldr	r3, [r3, r7, lsl #2]
	ubfx	r3, r3, #11, #8
	str	r3, [sp]
	ubfx	r3, r2, #3, #2
	lsrs	r2, r2, #5
	bl	printf
	b	.L974
.L977:
	rsb	r1, r1, r1, lsl #3
	ubfx	r1, r1, #3, #16
	b	.L978
.L976:
	cbz	r4, .L982
	lsrs	r1, r1, #3
.L980:
	ldr	r2, .L993+4
	ldr	r0, .L993+44
	b	.L992
.L982:
	mov	r1, r4
	b	.L980
.L994:
	.align	2
.L993:
	.word	.LC59
	.word	.LANCHOR105
	.word	.LANCHOR107
	.word	.LANCHOR103
	.word	.LANCHOR108
	.word	.LC60
	.word	.LANCHOR104
	.word	.LANCHOR19
	.word	.LANCHOR9
	.word	.LANCHOR11
	.word	.LC61
	.word	.LANCHOR106
	.word	.LANCHOR12
	.size	zftl_gc_get_free_sblk, .-zftl_gc_get_free_sblk
	.section	.text.zftl_get_free_sblk,"ax",%progbits
	.align	1
	.global	zftl_get_free_sblk
	.syntax unified
	.thumb
	.thumb_func
	.fpu softvfp
	.type	zftl_get_free_sblk, %function
zftl_get_free_sblk:
	@ args = 0, pretend = 0, frame = 0
	@ frame_needed = 0, uses_anonymous_args = 0
	cmp	r1, #5
	push	{r0, r1, r4, r5, r6, r7, r8, lr}
	mov	r5, r0
	mov	r6, r1
	bne	.L996
	ldr	r3, .L1017
	ldr	r2, .L1017+4
	ldrh	r3, [r3]
	ldrh	r1, [r2]
	cmp	r3, r1
	bcc	.L997
	ldr	r2, .L1017+8
	ldrh	r2, [r2]
	cmp	r2, r3
	bls	.L998
	cbz	r1, .L998
.L997:
	ldr	r2, .L1017+4
	lsrs	r1, r1, #1
.L1016:
	ldr	r0, .L1017+12
	b	.L1015
.L998:
	ldr	r2, .L1017
	movs	r1, #0
	ldr	r0, .L1017+16
.L1015:
	bl	_list_pop_index_node
	uxth	r4, r0
	movw	r3, #65535
	cmp	r4, r3
	bne	.L1001
	ldr	r3, .L1017+4
	mov	r2, r6
	mov	r1, r4
	ldr	r0, .L1017+20
	ldrh	r3, [r3]
	str	r3, [sp, #4]
	ldr	r3, .L1017+8
	ldrh	r3, [r3]
	str	r3, [sp]
	ldr	r3, .L1017+24
	ldr	r3, [r3]
	bl	printf
	b	.L1001
.L996:
	ldr	r8, .L1017+32
	movw	r7, #65535
	ldr	r3, [r8]
	ldrh	r4, [r3, #590]
	cmp	r4, r7
	beq	.L1000
	cmp	r1, #1
	beq	.L1000
	mov	r1, r4
	ldr	r0, .L1017+28
	bl	printf
	ldr	r3, [r8]
	strh	r7, [r3, #590]	@ movhi
.L1001:
	mov	r0, r4
	add	sp, sp, #8
	@ sp needed
	pop	{r4, r5, r6, r7, r8, pc}
.L1000:
	ldr	r3, .L1017+8
	ldr	r7, .L1017+4
	ldrh	r2, [r3]
	ldrh	r1, [r7]
	cmp	r2, r1
	bcc	.L1002
	ldr	r3, .L1017
	ldrh	r3, [r3]
	cmp	r3, r2
	bls	.L1003
	cbz	r1, .L1003
.L1002:
	bl	get_ink_scaned_blk
	movw	r3, #65535
	mov	r4, r0
	cmp	r0, r3
	bne	.L1001
	cmp	r6, #1
	ldr	r2, .L1017+4
	itt	eq
	ldrheq	r5, [r7]
	lsreq	r5, r5, #1
	mov	r1, r5
	b	.L1016
.L1003:
	cmp	r6, #1
	ldr	r0, .L1017+24
	it	eq
	lsreq	r5, r2, #1
	ldr	r2, .L1017+8
	mov	r1, r5
	b	.L1015
.L1018:
	.align	2
.L1017:
	.word	.LANCHOR105
	.word	.LANCHOR107
	.word	.LANCHOR103
	.word	.LANCHOR108
	.word	.LANCHOR106
	.word	.LC60
	.word	.LANCHOR104
	.word	.LC62
	.word	.LANCHOR12
	.size	zftl_get_free_sblk, .-zftl_get_free_sblk
	.section	.text.zftl_remove_data_node,"ax",%progbits
	.align	1
	.global	zftl_remove_data_node
	.syntax unified
	.thumb
	.thumb_func
	.fpu softvfp
	.type	zftl_remove_data_node, %function
zftl_remove_data_node:
	@ args = 0, pretend = 0, frame = 0
	@ frame_needed = 0, uses_anonymous_args = 0
	@ link register save eliminated.
	ldr	r3, .L1024
	mov	r1, r0
	ldr	r3, [r3]
	add	r3, r3, r0, lsl #2
	ldrb	r3, [r3, #2]	@ zero_extendqisi2
	and	r3, r3, #224
	cmp	r3, #64
	bne	.L1020
	ldr	r2, .L1024+4
	ldr	r0, .L1024+8
.L1023:
	b	_list_remove_node
.L1020:
	cmp	r3, #96
	bne	.L1021
	ldr	r2, .L1024+12
	ldr	r0, .L1024+16
	b	.L1023
.L1021:
	cmp	r3, #160
	bne	.L1019
	ldr	r2, .L1024+20
	ldr	r0, .L1024+24
	b	.L1023
.L1019:
	bx	lr
.L1025:
	.align	2
.L1024:
	.word	.LANCHOR9
	.word	.LANCHOR97
	.word	.LANCHOR95
	.word	.LANCHOR99
	.word	.LANCHOR90
	.word	.LANCHOR91
	.word	.LANCHOR92
	.size	zftl_remove_data_node, .-zftl_remove_data_node
	.section	.text.zftl_remove_free_node,"ax",%progbits
	.align	1
	.global	zftl_remove_free_node
	.syntax unified
	.thumb
	.thumb_func
	.fpu softvfp
	.type	zftl_remove_free_node, %function
zftl_remove_free_node:
	@ args = 0, pretend = 0, frame = 0
	@ frame_needed = 0, uses_anonymous_args = 0
	@ link register save eliminated.
	ldr	r3, .L1030
	mov	r1, r0
	ldr	r3, [r3]
	add	r3, r3, r0, lsl #2
	ldrb	r3, [r3, #2]	@ zero_extendqisi2
	ands	r3, r3, #24
	bne	.L1027
	ldr	r2, .L1030+4
	ldr	r0, .L1030+8
.L1029:
	b	_list_remove_node
.L1027:
	cmp	r3, #16
	ittee	eq
	ldreq	r2, .L1030+12
	ldreq	r0, .L1030+16
	ldrne	r2, .L1030+20
	ldrne	r0, .L1030+24
	b	.L1029
.L1031:
	.align	2
.L1030:
	.word	.LANCHOR9
	.word	.LANCHOR103
	.word	.LANCHOR104
	.word	.LANCHOR105
	.word	.LANCHOR106
	.word	.LANCHOR107
	.word	.LANCHOR108
	.size	zftl_remove_free_node, .-zftl_remove_free_node
	.section	.text.zftl_list_update_data_list,"ax",%progbits
	.align	1
	.global	zftl_list_update_data_list
	.syntax unified
	.thumb
	.thumb_func
	.fpu softvfp
	.type	zftl_list_update_data_list, %function
zftl_list_update_data_list:
	@ args = 0, pretend = 0, frame = 0
	@ frame_needed = 0, uses_anonymous_args = 0
	@ link register save eliminated.
	ldr	r3, .L1037
	mov	r1, r0
	ldr	r3, [r3]
	add	r3, r3, r0, lsl #2
	ldrb	r3, [r3, #2]	@ zero_extendqisi2
	and	r3, r3, #224
	cmp	r3, #64
	bne	.L1033
	ldr	r2, .L1037+4
	ldr	r0, .L1037+8
.L1036:
	b	_list_update_data_list
.L1033:
	cmp	r3, #96
	bne	.L1034
	ldr	r2, .L1037+12
	ldr	r0, .L1037+16
	b	.L1036
.L1034:
	cmp	r3, #160
	bne	.L1032
	ldr	r2, .L1037+20
	ldr	r0, .L1037+24
	b	.L1036
.L1032:
	bx	lr
.L1038:
	.align	2
.L1037:
	.word	.LANCHOR9
	.word	.LANCHOR97
	.word	.LANCHOR95
	.word	.LANCHOR99
	.word	.LANCHOR90
	.word	.LANCHOR91
	.word	.LANCHOR92
	.size	zftl_list_update_data_list, .-zftl_list_update_data_list
	.section	.text.print_list_info,"ax",%progbits
	.align	1
	.global	print_list_info
	.syntax unified
	.thumb
	.thumb_func
	.fpu softvfp
	.type	print_list_info, %function
print_list_info:
	@ args = 0, pretend = 0, frame = 0
	@ frame_needed = 0, uses_anonymous_args = 0
	push	{r4, r5, r6, r7, lr}
	mov	r4, r0
	ldrh	r2, [r1]
	sub	sp, sp, #36
	ldr	r1, [r0]
	ldr	r0, .L1043
	bl	printf
	ldr	r4, [r4]
	cmp	r4, #0
	beq	.L1039
	ldr	r6, .L1043+4
	movs	r5, #0
	ldr	r7, .L1043+8
.L1042:
	ldr	r2, [r6]
	ldr	r0, .L1043+12
	ldr	r3, .L1043+16
	subs	r2, r4, r2
	asrs	r2, r2, #1
	ldr	r0, [r0]
	ldr	r1, [r3]
	muls	r2, r7, r2
	ldrh	r3, [r4]
	uxth	r2, r2
	ldrh	r0, [r0, r2, lsl #1]
	add	ip, r1, r2, lsl #2
	str	r0, [sp, #24]
	ldrh	r0, [r1, r2, lsl #2]
	ubfx	r0, r0, #0, #11
	str	r0, [sp, #20]
	ldr	r1, [r1, r2, lsl #2]
	ldr	r0, .L1043+20
	ubfx	r1, r1, #11, #8
	str	r1, [sp, #16]
	ldrb	r1, [ip, #2]	@ zero_extendqisi2
	ubfx	r1, r1, #3, #2
	str	r1, [sp, #12]
	ldrb	r1, [ip, #2]	@ zero_extendqisi2
	lsrs	r1, r1, #5
	str	r1, [sp, #8]
	ldrh	r1, [r4, #4]
	str	r1, [sp, #4]
	ldrh	r1, [r4, #2]
	str	r1, [sp]
	mov	r1, r5
	bl	printf
	ldrh	r4, [r4]
	movw	r3, #65535
	cmp	r4, r3
	beq	.L1039
	ldr	r3, [r6]
	movs	r2, #6
	adds	r5, r5, #1
	uxth	r5, r5
	mla	r4, r2, r4, r3
	ldr	r3, .L1043+24
	ldrh	r3, [r3]
	cmp	r3, r5
	bcs	.L1042
.L1039:
	add	sp, sp, #36
	@ sp needed
	pop	{r4, r5, r6, r7, pc}
.L1044:
	.align	2
.L1043:
	.word	.LC63
	.word	.LANCHOR4
	.word	-1431655765
	.word	.LANCHOR11
	.word	.LANCHOR9
	.word	.LC64
	.word	.LANCHOR109
	.size	print_list_info, .-print_list_info
	.section	.text.dump_all_list_info,"ax",%progbits
	.align	1
	.global	dump_all_list_info
	.syntax unified
	.thumb
	.thumb_func
	.fpu softvfp
	.type	dump_all_list_info, %function
dump_all_list_info:
	@ args = 0, pretend = 0, frame = 0
	@ frame_needed = 0, uses_anonymous_args = 0
	push	{r3, lr}
	ldr	r1, .L1046
	ldr	r0, .L1046+4
	bl	print_list_info
	ldr	r1, .L1046+8
	ldr	r0, .L1046+12
	bl	print_list_info
	ldr	r1, .L1046+16
	ldr	r0, .L1046+20
	bl	print_list_info
	ldr	r1, .L1046+24
	ldr	r0, .L1046+28
	bl	print_list_info
	ldr	r1, .L1046+32
	ldr	r0, .L1046+36
	bl	print_list_info
	ldr	r1, .L1046+40
	ldr	r0, .L1046+44
	pop	{r3, lr}
	b	print_list_info
.L1047:
	.align	2
.L1046:
	.word	.LANCHOR103
	.word	.LANCHOR104
	.word	.LANCHOR105
	.word	.LANCHOR106
	.word	.LANCHOR107
	.word	.LANCHOR108
	.word	.LANCHOR97
	.word	.LANCHOR95
	.word	.LANCHOR99
	.word	.LANCHOR90
	.word	.LANCHOR91
	.word	.LANCHOR92
	.size	dump_all_list_info, .-dump_all_list_info
	.section	.text.ftl_tmp_into_update,"ax",%progbits
	.align	1
	.global	ftl_tmp_into_update
	.syntax unified
	.thumb
	.thumb_func
	.fpu softvfp
	.type	ftl_tmp_into_update, %function
ftl_tmp_into_update:
	@ args = 0, pretend = 0, frame = 0
	@ frame_needed = 0, uses_anonymous_args = 0
	@ link register save eliminated.
	ldr	r3, .L1053
	ldr	r3, [r3]
	ldr	r2, [r3, #16]
	cmp	r2, #2048
	bls	.L1049
	ldr	r1, [r3, #20]
	add	r1, r1, r2, lsr #11
	ubfx	r2, r2, #0, #11
	str	r2, [r3, #16]
	str	r1, [r3, #20]
.L1049:
	ldr	r2, [r3, #24]
	cmp	r2, #2048
	bls	.L1050
	ldr	r1, [r3, #28]
	add	r1, r1, r2, lsr #11
	ubfx	r2, r2, #0, #11
	str	r2, [r3, #24]
	str	r1, [r3, #28]
.L1050:
	ldr	r2, [r3, #32]
	cmp	r2, #1024
	bls	.L1051
	ldr	r1, [r3, #36]
	add	r1, r1, r2, lsr #10
	ubfx	r2, r2, #0, #10
	str	r2, [r3, #32]
	str	r1, [r3, #36]
.L1051:
	ldr	r2, [r3, #40]
	cmp	r2, #1024
	bls	.L1048
	ldr	r1, [r3, #44]
	add	r1, r1, r2, lsr #10
	ubfx	r2, r2, #0, #10
	str	r2, [r3, #40]
	str	r1, [r3, #44]
.L1048:
	bx	lr
.L1054:
	.align	2
.L1053:
	.word	.LANCHOR110
	.size	ftl_tmp_into_update, .-ftl_tmp_into_update
	.global	__aeabi_idiv
	.section	.text.ftl_get_blk_list_in_sblk,"ax",%progbits
	.align	1
	.global	ftl_get_blk_list_in_sblk
	.syntax unified
	.thumb
	.thumb_func
	.fpu softvfp
	.type	ftl_get_blk_list_in_sblk, %function
ftl_get_blk_list_in_sblk:
	@ args = 0, pretend = 0, frame = 16
	@ frame_needed = 0, uses_anonymous_args = 0
	push	{r0, r1, r2, r3, r4, r5, r6, r7, r8, r10, fp, lr}
	movs	r4, #0
	ldr	r3, .L1064
	mov	r8, r1
	mov	r5, r4
	ldr	r2, .L1064+4
	ldr	r3, [r3]
	ldrb	r10, [r2]	@ zero_extendqisi2
	ldr	r2, .L1064+8
	add	r3, r3, r0, lsl #2
	ldrb	r3, [r3, #3]	@ zero_extendqisi2
	uxth	r7, r10
	ldrb	fp, [r2]	@ zero_extendqisi2
	smulbb	r0, r0, r7
	ldr	r2, .L1064+12
	str	r3, [sp, #4]
	subs	r7, r7, #1
	ldr	r3, .L1064+16
	sxth	r7, r7
	uxth	r6, r0
	rsb	fp, fp, #24
	ldrb	r3, [r3]	@ zero_extendqisi2
.L1056:
	cmp	r5, r3
	blt	.L1060
	mov	r2, r4
	movw	r1, #65535
.L1061:
	cmp	r2, r3
	blt	.L1062
	mov	r0, r4
	add	sp, sp, #16
	@ sp needed
	pop	{r4, r5, r6, r7, r8, r10, fp, pc}
.L1060:
	ldr	r1, [sp, #4]
	asrs	r1, r1, r5
	lsls	r1, r1, #31
	bmi	.L1057
	mov	r1, r10
	mov	r0, r5
	str	r2, [sp, #12]
	str	r3, [sp, #8]
	bl	__aeabi_idiv
	ldr	r2, [sp, #12]
	cmp	r10, #1
	ldr	r3, [sp, #8]
	ldrh	r1, [r2]
	sub	r1, fp, r1
	lsl	r0, r0, r1
	it	hi
	andhi	r1, r7, r5
	add	r0, r0, r6
	uxth	r0, r0
	it	hi
	addhi	r0, r0, r1
	strh	r0, [r8, r4, lsl #1]	@ movhi
	adds	r4, r4, #1
.L1057:
	adds	r5, r5, #1
	b	.L1056
.L1062:
	strh	r1, [r8, r2, lsl #1]	@ movhi
	adds	r2, r2, #1
	b	.L1061
.L1065:
	.align	2
.L1064:
	.word	.LANCHOR9
	.word	.LANCHOR75
	.word	.LANCHOR31
	.word	.LANCHOR74
	.word	.LANCHOR79
	.size	ftl_get_blk_list_in_sblk, .-ftl_get_blk_list_in_sblk
	.section	.text.ftl_erase_phy_blk,"ax",%progbits
	.align	1
	.global	ftl_erase_phy_blk
	.syntax unified
	.thumb
	.thumb_func
	.fpu softvfp
	.type	ftl_erase_phy_blk, %function
ftl_erase_phy_blk:
	@ args = 0, pretend = 0, frame = 0
	@ frame_needed = 0, uses_anonymous_args = 0
	push	{r3, r4, r5, r6, r7, lr}
	mov	r5, r1
	ldr	r3, .L1071
	ldr	r7, .L1071+4
	ldrb	r3, [r3]	@ zero_extendqisi2
	rsb	r4, r3, #24
	ldr	r3, .L1071+8
	ldrh	r3, [r3]
	subs	r3, r4, r3
	movs	r4, #1
	asr	r6, r0, r3
	lsls	r4, r4, r3
	ldr	r3, .L1071+12
	subs	r4, r4, #1
	uxtb	r6, r6
	ands	r4, r4, r0
	ldrb	r3, [r3]	@ zero_extendqisi2
	sxth	r4, r4
	cbz	r3, .L1067
	ldr	r3, .L1071+16
	ldrb	r3, [r3]	@ zero_extendqisi2
	cbnz	r3, .L1067
	ldrh	r2, [r7]
	clz	r1, r1
	lsrs	r1, r1, #5
	mov	r0, r6
	muls	r2, r4, r2
	bl	flash_erase_block_en
.L1067:
	ldrh	r2, [r7]
	uxtb	r1, r5
	mov	r0, r6
	muls	r2, r4, r2
	pop	{r3, r4, r5, r6, r7, lr}
	b	flash_erase_block_en
.L1072:
	.align	2
.L1071:
	.word	.LANCHOR31
	.word	.LANCHOR111
	.word	.LANCHOR74
	.word	.LANCHOR80
	.word	.LANCHOR81
	.size	ftl_erase_phy_blk, .-ftl_erase_phy_blk
	.section	.text.ftl_erase_sblk,"ax",%progbits
	.align	1
	.global	ftl_erase_sblk
	.syntax unified
	.thumb
	.thumb_func
	.fpu softvfp
	.type	ftl_erase_sblk, %function
ftl_erase_sblk:
	@ args = 0, pretend = 0, frame = 72
	@ frame_needed = 0, uses_anonymous_args = 0
	ldr	r2, .L1097
	push	{r4, r5, r6, r7, r8, r10, fp, lr}
	mov	r6, r0
	mov	r7, r1
	movs	r5, #0
	mov	r8, r2
	sub	sp, sp, #72
	ldr	r3, [r2]
	add	r3, r3, r0, lsl #2
	ldrb	r3, [r3, #3]	@ zero_extendqisi2
	str	r3, [sp, #4]
.L1074:
	ldr	r3, .L1097+4
	ldrb	r3, [r3]	@ zero_extendqisi2
	cmp	r5, r3
	bge	.L1085
	ldr	r3, .L1097+8
	movs	r4, #0
	ldrb	r2, [r3]	@ zero_extendqisi2
	ldr	r3, .L1097+12
	add	ip, r2, #-1
	ldrh	r0, [r3]
	mul	r10, r2, r5
	mov	r3, r4
	mul	lr, r2, r6
	b	.L1086
.L1076:
	ldr	r1, [sp, #4]
	add	fp, r3, r10
	asr	r1, r1, fp
	lsls	r1, r1, #31
	bmi	.L1075
	add	r1, sp, #72
	add	fp, r1, r4, lsl #2
	and	r1, r3, ip
	add	r1, r1, lr
	muls	r1, r0, r1
	adds	r4, r4, #1
	str	r1, [fp, #-64]
.L1075:
	adds	r3, r3, #1
.L1086:
	cmp	r3, r2
	blt	.L1076
	cmp	r2, #4
	bne	.L1077
	uxtb	fp, r7
	mov	r10, #0
.L1078:
	cmp	r10, r4
	bne	.L1079
.L1080:
	adds	r5, r5, #1
	b	.L1074
.L1079:
	add	r3, sp, #8
	mov	r1, fp
	ldr	r2, [r3, r10, lsl #2]
	uxtb	r0, r5
	add	r10, r10, #1
	bl	flash_erase_block_en
	b	.L1078
.L1077:
	cmp	r4, #2
	bne	.L1081
	ldr	r3, .L1097+16
	uxtb	r4, r5
	ldrb	r3, [r3]	@ zero_extendqisi2
	cbz	r3, .L1082
	ldr	r3, .L1097+20
	ldrb	r3, [r3]	@ zero_extendqisi2
	cbnz	r3, .L1082
	clz	r1, r7
	ldr	r3, [sp, #12]
	ldr	r2, [sp, #8]
	lsrs	r1, r1, #5
	mov	r0, r4
	bl	flash_erase_duplane_block
.L1082:
	ldr	r3, [sp, #12]
	uxtb	r1, r7
	ldr	r2, [sp, #8]
	mov	r0, r4
	bl	flash_erase_duplane_block
	b	.L1080
.L1081:
	cmp	r4, #1
	bne	.L1080
	ldr	r3, .L1097+16
	uxtb	r4, r5
	ldrb	r3, [r3]	@ zero_extendqisi2
	cbz	r3, .L1084
	ldr	r3, .L1097+20
	ldrb	r3, [r3]	@ zero_extendqisi2
	cbnz	r3, .L1084
	clz	r1, r7
	ldr	r2, [sp, #8]
	lsrs	r1, r1, #5
	mov	r0, r4
	bl	flash_erase_block_en
.L1084:
	ldr	r2, [sp, #8]
	uxtb	r1, r7
	mov	r0, r4
	bl	flash_erase_block_en
	b	.L1080
.L1085:
	ldr	r1, .L1097+24
	ldr	r0, [r8]
	cbnz	r7, .L1087
	ldrh	r2, [r0, r6, lsl #2]
	adds	r3, r2, #1
	ubfx	r3, r3, #0, #11
	bfi	r2, r3, #0, #11
	strh	r2, [r0, r6, lsl #2]	@ movhi
	ldr	r2, [r1]
	ldr	r1, [r2, #84]
	adds	r1, r1, #1
	str	r1, [r2, #84]
	ldrh	r1, [r2, #96]
	cmp	r1, r3
	bge	.L1089
	strh	r3, [r2, #96]	@ movhi
.L1089:
	movs	r0, #0
	add	sp, sp, #72
	@ sp needed
	pop	{r4, r5, r6, r7, r8, r10, fp, pc}
.L1087:
	ldr	r2, [r0, r6, lsl #2]
	ubfx	r3, r2, #11, #8
	adds	r3, r3, #1
	uxtb	r3, r3
	bfi	r2, r3, #11, #8
	uxth	r3, r3
	str	r2, [r0, r6, lsl #2]
	ldr	r2, [r1]
	ldr	r1, [r2, #80]
	adds	r1, r1, #1
	str	r1, [r2, #80]
	ldrh	r1, [r2, #98]
	cmp	r1, r3
	it	cc
	strhcc	r3, [r2, #98]	@ movhi
	b	.L1089
.L1098:
	.align	2
.L1097:
	.word	.LANCHOR9
	.word	.LANCHOR112
	.word	.LANCHOR75
	.word	.LANCHOR111
	.word	.LANCHOR80
	.word	.LANCHOR81
	.word	.LANCHOR110
	.size	ftl_erase_sblk, .-ftl_erase_sblk
	.section	.text.ftl_alloc_sys_blk,"ax",%progbits
	.align	1
	.global	ftl_alloc_sys_blk
	.syntax unified
	.thumb
	.thumb_func
	.fpu softvfp
	.type	ftl_alloc_sys_blk, %function
ftl_alloc_sys_blk:
	@ args = 0, pretend = 0, frame = 0
	@ frame_needed = 0, uses_anonymous_args = 0
	push	{r4, r5, r6, lr}
	ldr	r4, .L1108
	ldr	r2, [r4]
	ldrh	r1, [r2, #136]
	cmp	r1, #63
	itt	hi
	movhi	r3, #0
	strhhi	r3, [r2, #136]	@ movhi
	ldrh	r3, [r2, #112]
	cbnz	r3, .L1101
	movw	r2, #1359
	ldr	r1, .L1108+4
	ldr	r0, .L1108+8
	bl	printf
.L1101:
	ldr	r3, [r4]
	movw	r4, #65535
	mov	r6, r4
	movs	r5, #0
.L1105:
	ldrh	r2, [r3, #136]
	add	r1, r3, r2, lsl #1
	adds	r1, r1, #158
.L1102:
	cmp	r2, #63
	ble	.L1104
	strh	r5, [r3, #136]	@ movhi
	b	.L1105
.L1104:
	ldrh	r0, [r1, #2]!
	cmp	r0, r4
	bne	.L1107
	adds	r2, r2, #1
	b	.L1102
.L1107:
	add	r1, r2, #80
	strh	r6, [r3, r1, lsl #1]	@ movhi
	strh	r2, [r3, #136]	@ movhi
	ldrh	r2, [r3, #112]
	subs	r2, r2, #1
	strh	r2, [r3, #112]	@ movhi
	pop	{r4, r5, r6, pc}
.L1109:
	.align	2
.L1108:
	.word	.LANCHOR110
	.word	.LANCHOR113
	.word	.LC0
	.size	ftl_alloc_sys_blk, .-ftl_alloc_sys_blk
	.section	.text.ftl_free_sys_blk,"ax",%progbits
	.align	1
	.global	ftl_free_sys_blk
	.syntax unified
	.thumb
	.thumb_func
	.fpu softvfp
	.type	ftl_free_sys_blk, %function
ftl_free_sys_blk:
	@ args = 0, pretend = 0, frame = 0
	@ frame_needed = 0, uses_anonymous_args = 0
	push	{r4, r5, r6, lr}
	mov	r5, r0
	ldr	r4, .L1118
	ldr	r2, [r4]
	ldrh	r1, [r2, #138]
	cmp	r1, #63
	itt	hi
	movhi	r3, #0
	strhhi	r3, [r2, #138]	@ movhi
	ldrh	r3, [r2, #112]
	cmp	r3, #63
	bls	.L1112
	movw	r2, #1386
	ldr	r1, .L1118+4
	ldr	r0, .L1118+8
	bl	printf
.L1112:
	ldr	r3, [r4]
	movs	r0, #0
	movw	r4, #65535
.L1116:
	ldrh	r2, [r3, #138]
	add	r1, r3, r2, lsl #1
	adds	r1, r1, #158
.L1113:
	cmp	r2, #63
	ble	.L1115
	strh	r0, [r3, #138]	@ movhi
	b	.L1116
.L1115:
	ldrh	r6, [r1, #2]!
	cmp	r6, r4
	bne	.L1114
	add	r1, r2, #80
	strh	r5, [r3, r1, lsl #1]	@ movhi
	strh	r2, [r3, #138]	@ movhi
	ldrh	r2, [r3, #112]
	adds	r2, r2, #1
	strh	r2, [r3, #112]	@ movhi
	pop	{r4, r5, r6, pc}
.L1114:
	adds	r2, r2, #1
	b	.L1113
.L1119:
	.align	2
.L1118:
	.word	.LANCHOR110
	.word	.LANCHOR114
	.word	.LC0
	.size	ftl_free_sys_blk, .-ftl_free_sys_blk
	.section	.text.ftl_info_data_recovery,"ax",%progbits
	.align	1
	.global	ftl_info_data_recovery
	.syntax unified
	.thumb
	.thumb_func
	.fpu softvfp
	.type	ftl_info_data_recovery, %function
ftl_info_data_recovery:
	@ args = 0, pretend = 0, frame = 0
	@ frame_needed = 0, uses_anonymous_args = 0
	push	{r4, r5, r6, lr}
	movw	r3, #65535
	ldrh	r4, [r0]
	cmp	r4, r3
	beq	.L1120
	ldr	r3, .L1129
	ldr	r5, [r3]
	add	r6, r5, r4, lsl #2
	ldrb	r3, [r6, #2]	@ zero_extendqisi2
	tst	r3, #224
	bne	.L1120
	ldrb	r2, [r0, #4]	@ zero_extendqisi2
	mov	r0, r4
	bfi	r3, r2, #5, #3
	strb	r3, [r6, #2]
	bl	zftl_remove_free_node
	ldrb	r3, [r6, #2]	@ zero_extendqisi2
	ldr	r2, .L1129+4
	tst	r3, #8
	ldr	r0, [r2]
	beq	.L1124
	ldrh	r1, [r0, #116]
	subs	r1, r1, #1
	strh	r1, [r0, #116]	@ movhi
.L1125:
	and	r3, r3, #224
	cmp	r3, #160
	bne	.L1127
	ldr	r3, [r5, r4, lsl #2]
	ldr	r2, [r2]
	ubfx	r1, r3, #11, #8
	adds	r1, r1, #1
	bfi	r3, r1, #11, #8
	str	r3, [r5, r4, lsl #2]
	ldrh	r3, [r2, #120]
	subs	r3, r3, #1
	strh	r3, [r2, #120]	@ movhi
	pop	{r4, r5, r6, pc}
.L1124:
	tst	r3, #24
	itete	eq
	ldrheq	r1, [r0, #114]
	ldrhne	r1, [r0, #118]
	addeq	r1, r1, #-1
	addne	r1, r1, #-1
	ite	eq
	strheq	r1, [r0, #114]	@ movhi
	strhne	r1, [r0, #118]	@ movhi
	b	.L1125
.L1127:
	ldrh	r1, [r5, r4, lsl #2]
	cmp	r3, #64
	add	r0, r1, #1
	bfi	r1, r0, #0, #11
	strh	r1, [r5, r4, lsl #2]	@ movhi
	bne	.L1128
	ldr	r2, [r2]
	ldrh	r3, [r2, #122]
	subs	r3, r3, #1
	strh	r3, [r2, #122]	@ movhi
	pop	{r4, r5, r6, pc}
.L1128:
	cmp	r3, #96
	itttt	eq
	ldreq	r2, [r2]
	ldrheq	r3, [r2, #124]
	addeq	r3, r3, #-1
	strheq	r3, [r2, #124]	@ movhi
.L1120:
	pop	{r4, r5, r6, pc}
.L1130:
	.align	2
.L1129:
	.word	.LANCHOR9
	.word	.LANCHOR110
	.size	ftl_info_data_recovery, .-ftl_info_data_recovery
	.section	.text.ftl_get_ppa_from_index,"ax",%progbits
	.align	1
	.global	ftl_get_ppa_from_index
	.syntax unified
	.thumb
	.thumb_func
	.fpu softvfp
	.type	ftl_get_ppa_from_index, %function
ftl_get_ppa_from_index:
	@ args = 0, pretend = 0, frame = 0
	@ frame_needed = 0, uses_anonymous_args = 0
	push	{r3, r4, r5, r6, r7, lr}
	mov	r4, r0
	ldr	r3, .L1135
	ldr	r5, [r3]
	ldr	r3, .L1135+4
	ldrh	r2, [r3]
	ldr	r3, .L1135+8
	ldrb	r3, [r3]	@ zero_extendqisi2
	mul	r1, r3, r2
	cmp	r0, r1
	itet	ge
	smulbbge	r3, r3, r2
	addlt	r5, r5, #16
	addge	r5, r5, #48
	ldrb	r6, [r5, #9]	@ zero_extendqisi2
	itt	ge
	subge	r4, r0, r3
	uxthge	r4, r4
	mov	r1, r6
	mov	r0, r4
	bl	__aeabi_idiv
	smulbb	r6, r0, r6
	movw	r3, #65535
	mov	r7, r0
	subs	r4, r4, r6
	uxth	r4, r4
	adds	r4, r4, #8
	ldrh	r4, [r5, r4, lsl #1]
	cmp	r4, r3
	bne	.L1134
	movw	r2, #1945
	ldr	r1, .L1135+12
	ldr	r0, .L1135+16
	bl	printf
.L1134:
	ldr	r3, .L1135+20
	ldrh	r0, [r3]
	mla	r0, r4, r0, r7
	pop	{r3, r4, r5, r6, r7, pc}
.L1136:
	.align	2
.L1135:
	.word	.LANCHOR12
	.word	.LANCHOR94
	.word	.LANCHOR79
	.word	.LANCHOR115
	.word	.LC0
	.word	.LANCHOR111
	.size	ftl_get_ppa_from_index, .-ftl_get_ppa_from_index
	.section	.text.lpa_hash_get_ppa,"ax",%progbits
	.align	1
	.global	lpa_hash_get_ppa
	.syntax unified
	.thumb
	.thumb_func
	.fpu softvfp
	.type	lpa_hash_get_ppa, %function
lpa_hash_get_ppa:
	@ args = 0, pretend = 0, frame = 0
	@ frame_needed = 0, uses_anonymous_args = 0
	@ link register save eliminated.
	ldr	r3, .L1141
	uxtb	r2, r0
	push	{r4, r5}
	ldrh	r3, [r3, r2, lsl #1]
	ldr	r2, .L1141+4
	ldr	r1, [r2]
	ldr	r2, .L1141+8
	ldr	r4, [r2]
	movw	r2, #65535
.L1138:
	cmp	r3, r2
	bne	.L1140
	mov	r0, #-1
	pop	{r4, r5}
	bx	lr
.L1140:
	ldr	r5, [r1, r3, lsl #2]
	cmp	r0, r5
	bne	.L1139
	mov	r0, r3
	pop	{r4, r5}
	b	ftl_get_ppa_from_index
.L1139:
	ldrh	r3, [r4, r3, lsl #1]
	b	.L1138
.L1142:
	.align	2
.L1141:
	.word	.LANCHOR116
	.word	.LANCHOR117
	.word	.LANCHOR118
	.size	lpa_hash_get_ppa, .-lpa_hash_get_ppa
	.section	.text.ftl_get_new_free_page,"ax",%progbits
	.align	1
	.global	ftl_get_new_free_page
	.syntax unified
	.thumb
	.thumb_func
	.fpu softvfp
	.type	ftl_get_new_free_page, %function
ftl_get_new_free_page:
	@ args = 0, pretend = 0, frame = 0
	@ frame_needed = 0, uses_anonymous_args = 0
	ldrh	r2, [r0]
	push	{r3, r4, r5, lr}
	movw	r3, #65535
	mov	r4, r0
	cmp	r2, r3
	bne	.L1144
	movw	r2, #2088
	ldr	r1, .L1151
	ldr	r0, .L1151+4
	bl	printf
.L1144:
	ldr	r3, .L1151+8
	ldrh	r2, [r4, #2]
	ldrh	r3, [r3]
	cmp	r2, r3
	bne	.L1145
	movw	r2, #2089
	ldr	r1, .L1151
	ldr	r0, .L1151+4
	bl	printf
.L1145:
	ldrh	r3, [r4, #6]
	cbnz	r3, .L1146
	movw	r2, #2090
	ldr	r1, .L1151
	ldr	r0, .L1151+4
	bl	printf
.L1146:
	ldrb	r3, [r4, #5]	@ zero_extendqisi2
	movw	r2, #65535
	movs	r1, #0
	adds	r3, r3, #8
	ldrh	r0, [r4, r3, lsl #1]
	ldr	r3, .L1151+12
	ldrb	r5, [r3]	@ zero_extendqisi2
.L1147:
	cmp	r0, r2
	ldrb	r3, [r4, #5]	@ zero_extendqisi2
	beq	.L1149
	ldr	r1, .L1151+16
	adds	r3, r3, #1
	uxtb	r3, r3
	ldrh	r2, [r4, #2]
	ldrh	r1, [r1]
	cmp	r5, r3
	strb	r3, [r4, #5]
	itttt	eq
	addeq	r3, r2, #1
	strheq	r3, [r4, #2]	@ movhi
	moveq	r3, #0
	strbeq	r3, [r4, #5]
	muls	r0, r1, r0
	ldrh	r1, [r4, #6]
	subs	r1, r1, #1
	strh	r1, [r4, #6]	@ movhi
	orrs	r0, r0, r2
	ldrh	r1, [r4, #10]
	adds	r1, r1, #1
	strh	r1, [r4, #10]	@ movhi
	pop	{r3, r4, r5, pc}
.L1149:
	adds	r3, r3, #1
	uxtb	r3, r3
	cmp	r3, r5
	strb	r3, [r4, #5]
	itttt	eq
	ldrheq	r3, [r4, #2]
	strbeq	r1, [r4, #5]
	addeq	r3, r3, #1
	strheq	r3, [r4, #2]	@ movhi
	ldrb	r3, [r4, #5]	@ zero_extendqisi2
	adds	r3, r3, #8
	ldrh	r0, [r4, r3, lsl #1]
	b	.L1147
.L1152:
	.align	2
.L1151:
	.word	.LANCHOR119
	.word	.LC0
	.word	.LANCHOR94
	.word	.LANCHOR79
	.word	.LANCHOR111
	.size	ftl_get_new_free_page, .-ftl_get_new_free_page
	.section	.text.ftl_ext_alloc_new_blk,"ax",%progbits
	.align	1
	.global	ftl_ext_alloc_new_blk
	.syntax unified
	.thumb
	.thumb_func
	.fpu softvfp
	.type	ftl_ext_alloc_new_blk, %function
ftl_ext_alloc_new_blk:
	@ args = 0, pretend = 0, frame = 0
	@ frame_needed = 0, uses_anonymous_args = 0
	push	{r3, r4, r5, lr}
	bl	ftl_alloc_sys_blk
	subs	r3, r0, #1
	movw	r2, #65533
	uxth	r3, r3
	mov	r4, r0
	cmp	r3, r2
	bls	.L1154
	movw	r2, #2125
	ldr	r1, .L1155
	ldr	r0, .L1155+4
	bl	printf
.L1154:
	ldr	r5, .L1155+8
	movs	r1, #0
	mov	r0, r4
	bl	ftl_erase_phy_blk
	ldr	r3, [r5]
	ldrh	r0, [r3, #130]
	bl	ftl_free_sys_blk
	ldr	r3, [r5]
	movs	r0, #0
	strh	r4, [r3, #130]	@ movhi
	strh	r0, [r3, #140]	@ movhi
	pop	{r3, r4, r5, pc}
.L1156:
	.align	2
.L1155:
	.word	.LANCHOR120
	.word	.LC0
	.word	.LANCHOR110
	.size	ftl_ext_alloc_new_blk, .-ftl_ext_alloc_new_blk
	.section	.text.ftl_total_vpn_update,"ax",%progbits
	.align	1
	.global	ftl_total_vpn_update
	.syntax unified
	.thumb
	.thumb_func
	.fpu softvfp
	.type	ftl_total_vpn_update, %function
ftl_total_vpn_update:
	@ args = 0, pretend = 0, frame = 0
	@ frame_needed = 0, uses_anonymous_args = 0
	ldr	r2, .L1168
	push	{r3, r4, r5, r6, r7, lr}
	mov	r1, r2
	ldrh	r3, [r2]
	cmp	r3, #4
	bhi	.L1158
	cbnz	r0, .L1158
	adds	r3, r3, #1
	strh	r3, [r2]	@ movhi
	pop	{r3, r4, r5, r6, r7, pc}
.L1158:
	ldr	r2, .L1168+4
	movs	r3, #0
	mov	r0, r3
	movw	ip, #65535
	strh	r3, [r1]	@ movhi
	ldrh	r5, [r2]
	ldr	r2, .L1168+8
	ldr	r6, [r2]
	ldr	r2, .L1168+12
	ldr	r7, [r2]
	mov	r2, r3
.L1160:
	uxth	r1, r3
	cmp	r5, r1
	bhi	.L1163
	ldr	r3, .L1168+16
	ldr	r4, [r3]
	ldr	r3, .L1168+20
	str	r2, [r4, #524]
	ldr	r3, [r3]
	str	r0, [r4, #528]
	ldrh	r1, [r3, #120]
	cbz	r1, .L1157
	bl	__aeabi_uidiv
	str	r0, [r4, #532]
.L1157:
	pop	{r3, r4, r5, r6, r7, pc}
.L1163:
	ldrh	r1, [r6, r3, lsl #1]
	cmp	r1, ip
	beq	.L1161
	add	r4, r7, r3, lsl #2
	ldrb	r4, [r4, #2]	@ zero_extendqisi2
	and	r4, r4, #224
	cmp	r4, #160
	ite	eq
	addeq	r0, r0, r1
	addne	r2, r2, r1
.L1161:
	adds	r3, r3, #1
	b	.L1160
.L1169:
	.align	2
.L1168:
	.word	.LANCHOR121
	.word	.LANCHOR8
	.word	.LANCHOR11
	.word	.LANCHOR9
	.word	.LANCHOR12
	.word	.LANCHOR110
	.size	ftl_total_vpn_update, .-ftl_total_vpn_update
	.section	.text.ftl_vpn_update,"ax",%progbits
	.align	1
	.global	ftl_vpn_update
	.syntax unified
	.thumb
	.thumb_func
	.fpu softvfp
	.type	ftl_vpn_update, %function
ftl_vpn_update:
	@ args = 0, pretend = 0, frame = 0
	@ frame_needed = 0, uses_anonymous_args = 0
	push	{r4, lr}
	mov	r4, r0
	bl	zftl_list_update_data_list
	ldr	r3, .L1173
	ldr	r3, [r3]
	ldrh	r3, [r3, r4, lsl #1]
	cbnz	r3, .L1172
	ldr	r3, .L1173+4
	movs	r0, #1
	str	r0, [r3]
	pop	{r4, pc}
.L1172:
	movs	r0, #0
	pop	{r4, pc}
.L1174:
	.align	2
.L1173:
	.word	.LANCHOR11
	.word	.LANCHOR122
	.size	ftl_vpn_update, .-ftl_vpn_update
	.section	.text.ftl_vpn_decrement,"ax",%progbits
	.align	1
	.global	ftl_vpn_decrement
	.syntax unified
	.thumb
	.thumb_func
	.fpu softvfp
	.type	ftl_vpn_decrement, %function
ftl_vpn_decrement:
	@ args = 0, pretend = 0, frame = 0
	@ frame_needed = 0, uses_anonymous_args = 0
	push	{r3, r4, r5, lr}
	movw	r3, #65535
	cmp	r0, r3
	mov	r5, r0
	beq	.L1176
	ldr	r3, .L1184
	ldr	r3, [r3]
	ldrh	r4, [r3, r0, lsl #1]
	cbnz	r4, .L1177
	ldr	r3, .L1184+4
	mov	r1, r0
	mov	r2, r4
	ldr	r3, [r3]
	add	r3, r3, r0, lsl #2
	ldr	r0, .L1184+8
	ldrb	r3, [r3, #2]	@ zero_extendqisi2
	lsrs	r3, r3, #5
	bl	printf
.L1182:
	movs	r0, #0
	pop	{r3, r4, r5, pc}
.L1177:
	subs	r4, r4, #1
	strh	r4, [r3, r0, lsl #1]	@ movhi
.L1176:
	ldr	r3, .L1184+12
	ldrh	r0, [r3]
	mov	r4, r3
	cmp	r5, r0
	beq	.L1182
	movw	r2, #65535
	cmp	r0, r2
	bne	.L1179
	strh	r5, [r3]	@ movhi
	b	.L1182
.L1179:
	bl	ftl_vpn_update
	ldr	r3, .L1184+16
	adds	r0, r0, #0
	it	ne
	movne	r0, #1
	ldrh	r1, [r4]
	strh	r5, [r4]	@ movhi
	ldrh	r2, [r3]
	adds	r2, r2, #1
	uxth	r2, r2
	cmp	r2, #7
	it	hi
	movhi	r2, #0
	strh	r2, [r3]	@ movhi
	ldrh	r2, [r3]
	ldr	r3, .L1184+20
	strh	r1, [r3, r2, lsl #1]	@ movhi
	pop	{r3, r4, r5, pc}
.L1185:
	.align	2
.L1184:
	.word	.LANCHOR11
	.word	.LANCHOR9
	.word	.LC65
	.word	.LANCHOR72
	.word	.LANCHOR123
	.word	.LANCHOR73
	.size	ftl_vpn_decrement, .-ftl_vpn_decrement
	.section	.text.lpa_hash_update_ppa,"ax",%progbits
	.align	1
	.global	lpa_hash_update_ppa
	.syntax unified
	.thumb
	.thumb_func
	.fpu softvfp
	.type	lpa_hash_update_ppa, %function
lpa_hash_update_ppa:
	@ args = 0, pretend = 0, frame = 0
	@ frame_needed = 0, uses_anonymous_args = 0
	push	{r4, r5, r6, r7, r8, r10, fp, lr}
	uxtb	ip, r0
	ldr	r4, .L1197
	movw	r6, #65535
	mov	fp, r6
	ldr	r5, .L1197+4
	ldr	lr, [r4]
	ldr	r4, .L1197+8
	ldrh	r3, [r5, ip, lsl #1]
	ldr	r4, [r4]
.L1187:
	cmp	r3, fp
	beq	.L1191
	ldr	r7, [lr, r3, lsl #2]
	add	r8, lr, r3, lsl #2
	cmp	r0, r7
	bne	.L1188
	cmp	r6, fp
	mov	r10, #-1
	ite	eq
	ldrheq	r6, [r4, r3, lsl #1]
	ldrhne	r7, [r4, r3, lsl #1]
	str	r10, [r8]
	ite	eq
	strheq	r6, [r5, ip, lsl #1]	@ movhi
	strhne	r7, [r4, r6, lsl #1]	@ movhi
	movw	r6, #65535
	strh	r6, [r4, r3, lsl #1]	@ movhi
.L1191:
	ldrh	r3, [r5, ip, lsl #1]
	str	r0, [lr, r2, lsl #2]
	strh	r2, [r5, ip, lsl #1]	@ movhi
	strh	r3, [r4, r2, lsl #1]	@ movhi
	adds	r3, r1, #1
	beq	.L1193
	ldr	r3, .L1197+12
	ldrh	r2, [r3]
	ldr	r3, .L1197+16
	ldrb	r3, [r3]	@ zero_extendqisi2
	rsb	r3, r3, #24
	subs	r0, r3, r2
	movs	r3, #1
	lsls	r3, r3, r0
	lsr	r0, r1, r2
	ldr	r2, .L1197+20
	subs	r3, r3, #1
	ands	r0, r0, r3
	ldrb	r1, [r2]	@ zero_extendqisi2
	bl	__aeabi_uidiv
	uxth	r0, r0
	bl	ftl_vpn_decrement
.L1193:
	mov	r0, #-1
	pop	{r4, r5, r6, r7, r8, r10, fp, pc}
.L1188:
	mov	r6, r3
	ldrh	r3, [r4, r3, lsl #1]
	b	.L1187
.L1198:
	.align	2
.L1197:
	.word	.LANCHOR117
	.word	.LANCHOR116
	.word	.LANCHOR118
	.word	.LANCHOR74
	.word	.LANCHOR31
	.word	.LANCHOR75
	.size	lpa_hash_update_ppa, .-lpa_hash_update_ppa
	.section	.text.ftl_mask_bad_block,"ax",%progbits
	.align	1
	.global	ftl_mask_bad_block
	.syntax unified
	.thumb
	.thumb_func
	.fpu softvfp
	.type	ftl_mask_bad_block, %function
ftl_mask_bad_block:
	@ args = 0, pretend = 0, frame = 0
	@ frame_needed = 0, uses_anonymous_args = 0
	ldr	r3, .L1206
	push	{r0, r1, r2, r4, r5, r6, r7, r8, r10, lr}
	ldrb	r4, [r3]	@ zero_extendqisi2
	movs	r3, #1
	rsb	r1, r4, #24
	lsl	r4, r3, r4
	lsr	r2, r0, r1
	subs	r4, r4, #1
	ands	r4, r4, r2
	ldr	r2, .L1206+4
	uxtb	r4, r4
	ldrb	r5, [r2]	@ zero_extendqisi2
	smulbb	r2, r4, r5
	uxtb	r8, r2
	ldr	r2, .L1206+8
	ldrh	r6, [r2]
	lsr	r2, r0, r6
	subs	r0, r1, r6
	lsl	r0, r3, r0
	mov	r1, r5
	subs	r0, r0, #1
	ands	r0, r0, r2
	uxth	r10, r0
	bl	__aeabi_uidiv
	ldr	r3, .L1206+12
	cmp	r5, #1
	it	hi
	addhi	r2, r5, #-1
	mov	r6, r0
	it	hi
	andhi	r2, r2, r10
	uxth	r7, r0
	ldr	r3, [r3]
	itt	hi
	addhi	r2, r2, r8
	uxtbhi	r8, r2
	lsls	r3, r3, #17
	bpl	.L1201
	uxth	r3, r0
	str	r10, [sp]
	mov	r2, r8
	ldr	r0, .L1206+16
	mov	r1, r4
	bl	printf
.L1201:
	ldr	r3, .L1206+20
	ldrh	r3, [r3]
	cmp	r3, r7
	bls	.L1199
	ldr	r3, .L1206+24
	uxth	r6, r6
	movs	r2, #1
	lsl	r8, r2, r8
	ldr	r3, [r3]
	add	r6, r3, r6, lsl #2
	ldrb	r2, [r6, #3]	@ zero_extendqisi2
	orr	r2, r2, r8
	strb	r2, [r6, #3]
.L1199:
	add	sp, sp, #12
	@ sp needed
	pop	{r4, r5, r6, r7, r8, r10, pc}
.L1207:
	.align	2
.L1206:
	.word	.LANCHOR31
	.word	.LANCHOR75
	.word	.LANCHOR74
	.word	.LANCHOR19
	.word	.LC66
	.word	.LANCHOR8
	.word	.LANCHOR9
	.size	ftl_mask_bad_block, .-ftl_mask_bad_block
	.section	.text.gc_free_bad_sblk,"ax",%progbits
	.align	1
	.global	gc_free_bad_sblk
	.syntax unified
	.thumb
	.thumb_func
	.fpu softvfp
	.type	gc_free_bad_sblk, %function
gc_free_bad_sblk:
	@ args = 0, pretend = 0, frame = 0
	@ frame_needed = 0, uses_anonymous_args = 0
	push	{r4, r5, r6, r7, r8, r10, fp, lr}
	mov	r8, r0
	ldr	r4, .L1228
	ldr	r3, [r4, #2188]
	cbz	r3, .L1225
	mov	fp, #0
.L1210:
	ldr	r3, .L1228+4
	ldrb	r2, [r3]	@ zero_extendqisi2
	uxth	r3, fp
	cmp	r2, r3
	bhi	.L1220
.L1225:
	movs	r0, #0
	pop	{r4, r5, r6, r7, r8, r10, fp, pc}
.L1220:
	ldr	r3, .L1228+8
	uxth	r0, fp
	mov	r10, #0
	ldrb	r7, [r3]	@ zero_extendqisi2
	mov	r1, r7
	bl	__aeabi_idiv
	ldr	r3, .L1228+12
	uxth	r6, r7
	cmp	r7, #1
	ldrb	r5, [r3]	@ zero_extendqisi2
	ldr	r3, .L1228+16
	rsb	r5, r5, #24
	ldrh	r2, [r3]
	mov	r7, r3
	sub	r5, r5, r2
	lsl	r0, r0, r5
	smulbb	r5, r8, r6
	itt	hi
	addhi	r6, r6, #-1
	andhi	r6, r6, fp
	add	r5, r5, r0
	uxth	r5, r5
	itt	hi
	addhi	r5, r5, r6
	uxthhi	r5, r5
.L1212:
	ldr	r0, [r4, #2188]
	uxth	r6, r10
	mov	r1, r6
	cmp	r0, r6
	bhi	.L1219
	add	fp, fp, #1
	b	.L1210
.L1219:
	add	r1, r1, #1096
	ldrh	r1, [r4, r1, lsl #1]
	cmp	r1, r5
	bne	.L1213
	mov	r1, r5
	ldr	r0, .L1228+20
	bl	printf
	ldr	r1, .L1228+24
	ldrb	r1, [r1]	@ zero_extendqisi2
	cbnz	r1, .L1214
	ldr	r1, .L1228+28
	ldrb	r1, [r1]	@ zero_extendqisi2
	cbz	r1, .L1215
.L1214:
	ldr	r1, .L1228+32
	ldr	r3, .L1228+36
	ldr	r1, [r1]
	ldr	r1, [r1, #156]
	cmp	r1, r3
	beq	.L1216
.L1215:
	ldrh	r0, [r7]
	lsl	r0, r5, r0
	bl	ftl_mask_bad_block
.L1216:
	ldr	r1, [r4, #2188]
.L1217:
	cmp	r6, r1
	bcc	.L1218
	subs	r1, r1, #1
	str	r1, [r4, #2188]
.L1213:
	add	r10, r10, #1
	b	.L1212
.L1218:
	addw	r0, r6, #1097
	adds	r3, r6, #1
	ldrh	ip, [r4, r0, lsl #1]
	add	r0, r6, #1096
	uxth	r6, r3
	strh	ip, [r4, r0, lsl #1]	@ movhi
	b	.L1217
.L1229:
	.align	2
.L1228:
	.word	.LANCHOR70
	.word	.LANCHOR79
	.word	.LANCHOR75
	.word	.LANCHOR31
	.word	.LANCHOR74
	.word	.LC67
	.word	.LANCHOR124
	.word	.LANCHOR80
	.word	.LANCHOR110
	.word	1145785929
	.size	gc_free_bad_sblk, .-gc_free_bad_sblk
	.section	.text.ftl_free_sblk,"ax",%progbits
	.align	1
	.global	ftl_free_sblk
	.syntax unified
	.thumb
	.thumb_func
	.fpu softvfp
	.type	ftl_free_sblk, %function
ftl_free_sblk:
	@ args = 0, pretend = 0, frame = 16
	@ frame_needed = 0, uses_anonymous_args = 0
	push	{r0, r1, r2, r3, r4, r5, r6, r7, r8, r10, fp, lr}
	mov	r5, r0
	ldr	r3, .L1251
	ldr	r6, [r3]
	lsls	r3, r0, #2
	adds	r7, r6, r3
	ldrb	r4, [r7, #2]	@ zero_extendqisi2
	lsls	r2, r4, #28
	lsr	r3, r4, #5
	str	r3, [sp, #4]
	bpl	.L1231
	ldr	r3, .L1251+4
	ldrh	fp, [r6, r0, lsl #2]
	ldr	r1, .L1251+8
	ldr	r3, [r3]
	ldr	r0, [r6, r0, lsl #2]
	ubfx	fp, fp, #0, #11
	ldrh	r8, [r1]
	ldrh	r2, [r3, #74]
	ldrh	r3, [r3, #72]
	ubfx	r10, r0, #11, #8
	mov	r1, r8
	add	r2, r2, fp
	uxth	r2, r2
	add	r3, r3, r10
	uxth	r3, r3
	mov	r0, r2
	str	r2, [sp, #8]
	str	r3, [sp, #12]
	bl	__aeabi_uidiv
	ldr	r3, [sp, #12]
	ldr	r1, .L1251+12
	ldr	r2, [sp, #8]
	ldrh	r1, [r1]
	uxtah	r0, r3, r0
	cmp	r0, r1
	ble	.L1232
	ldr	r3, .L1251+16
	ldr	r1, .L1251+20
	ldrh	r2, [r3]
	ldr	r3, .L1251+24
	ldrh	r1, [r1]
	adds	r2, r2, #7
	ldrh	r3, [r3]
	add	r3, r3, r1
	cmp	r2, r3
	blt	.L1233
.L1238:
	movs	r3, #2
	bfi	r4, r3, #3, #2
	b	.L1248
.L1233:
	ldr	r3, .L1251+28
	ldr	r1, .L1251+32
	ldrh	r2, [r3]
	ldr	r3, .L1251+36
	ldrh	r1, [r1]
	adds	r2, r2, #7
	ldrh	r3, [r3]
	add	r3, r3, r1
	ldr	r1, .L1251+40
	ldrh	r1, [r1]
	add	r3, r3, r1
	cmp	r2, r3
	blt	.L1238
.L1250:
	bfc	r4, #3, #2
.L1248:
	strb	r4, [r7, #2]
.L1234:
	ldrb	r3, [r7, #2]	@ zero_extendqisi2
	ands	r3, r3, #24
	bne	.L1239
	mul	r8, r8, r10
	ldrh	r3, [r6, r5, lsl #2]
	lsr	r10, r10, #3
	add	r8, r8, r8, lsl #1
	add	fp, fp, r8, asr #2
	bfi	r3, fp, #0, #11
	strh	r3, [r6, r5, lsl #2]	@ movhi
	ldr	r3, [r6, r5, lsl #2]
	bfi	r3, r10, #11, #8
	str	r3, [r6, r5, lsl #2]
.L1240:
	mov	r0, r5
	bl	zftl_remove_data_node
	ldr	r3, .L1251
	lsls	r2, r5, #2
	ldr	r3, [r3]
	add	r3, r3, r2
	ldrb	r2, [r3, #2]	@ zero_extendqisi2
	bfc	r2, #5, #3
	strb	r2, [r3, #2]
	movs	r2, #0
	ldr	r3, .L1251+44
	ldr	r3, [r3]
	strh	r2, [r3, r5, lsl #1]	@ movhi
	ldr	r3, [sp, #4]
	adds	r3, r3, #6
	and	r3, r3, #7
	cmp	r3, #4
	bhi	.L1243
	mov	r0, r5
	bl	gc_free_bad_sblk
.L1243:
	ldrb	r3, [r7, #2]	@ zero_extendqisi2
	lsls	r3, r3, #28
	bpl	.L1244
	ldr	r3, .L1251+48
	ldr	r3, [r3]
	ldrh	r2, [r3, #586]
	cmp	r2, r5
	bne	.L1244
	ldrh	r1, [r3, #590]
	movw	r2, #65535
	strh	r2, [r3, #586]	@ movhi
	cmp	r1, r2
	bne	.L1244
	strh	r5, [r3, #590]	@ movhi
	mov	r1, r5
	ldr	r0, .L1251+52
	add	sp, sp, #16
	@ sp needed
	pop	{r4, r5, r6, r7, r8, r10, fp, lr}
	b	printf
.L1232:
	mla	r3, r3, r8, r2
	ldr	r2, .L1251+56
	ldrh	r2, [r2]
	cmp	r3, r2
	ble	.L1234
	ldr	r3, .L1251+28
	ldr	r1, .L1251+32
	ldrh	r2, [r3]
	ldr	r3, .L1251+36
	ldrh	r1, [r1]
	ldrh	r3, [r3]
	add	r3, r3, r1
	ldr	r1, .L1251+40
	ldrh	r1, [r1]
	add	r3, r3, r1
	adds	r1, r2, #7
	cmp	r1, r3
	bge	.L1250
	ldr	r1, .L1251+16
	ldr	ip, .L1251+20
	ldrh	r0, [r1]
	ldr	r1, .L1251+24
	ldrh	ip, [ip]
	adds	r0, r0, #7
	ldrh	r1, [r1]
	add	r1, r1, ip
	cmp	r0, r1
	bge	.L1238
	adds	r2, r2, #23
	cmp	r3, r2
	bgt	.L1238
	b	.L1250
.L1239:
	cmp	r3, #16
	bne	.L1240
	mov	r0, fp
	mov	r1, r8
	bl	__aeabi_idiv
	add	r0, r0, r0, lsl #1
	ldr	r3, [r6, r5, lsl #2]
	asr	fp, fp, #5
	add	r10, r10, r0, asr #2
	bfi	r3, r10, #11, #8
	str	r3, [r6, r5, lsl #2]
	bfi	r3, fp, #0, #11
.L1249:
	strh	r3, [r6, r5, lsl #2]	@ movhi
	b	.L1240
.L1231:
	tst	r4, #24
	bne	.L1240
	ldr	r3, .L1251+60
	ldrh	r3, [r3]
	cmp	r3, #0
	bne	.L1240
	ldr	r3, .L1251+20
	ldrh	r1, [r3]
	cmp	r1, #15
	bhi	.L1240
	ldr	r3, .L1251+36
	ldr	r2, .L1251+32
	ldrh	r3, [r3]
	ldrh	r2, [r2]
	add	r3, r3, r2
	ldr	r2, .L1251+40
	ldrh	r2, [r2]
	add	r3, r3, r2
	ldr	r2, .L1251+28
	ldrh	r2, [r2]
	adds	r2, r2, #16
	cmp	r3, r2
	ble	.L1240
	ldr	r3, .L1251+16
	ldrh	r2, [r3]
	ldr	r3, .L1251+24
	adds	r2, r2, #7
	ldrh	r3, [r3]
	add	r3, r3, r1
	cmp	r2, r3
	blt	.L1240
	movs	r3, #2
	bfi	r4, r3, #3, #2
	ldr	r3, .L1251+8
	strb	r4, [r7, #2]
	ldrh	r4, [r6, r0, lsl #2]
	ldrh	r1, [r3]
	ubfx	r4, r4, #0, #11
	mov	r0, r4
	asrs	r4, r4, #5
	bl	__aeabi_idiv
	ldr	r3, [r6, r5, lsl #2]
	add	r0, r0, r0, lsl #1
	ubfx	r2, r3, #11, #8
	add	r0, r2, r0, asr #2
	bfi	r3, r0, #11, #8
	str	r3, [r6, r5, lsl #2]
	bfi	r3, r4, #0, #11
	b	.L1249
.L1244:
	mov	r0, r5
	add	sp, sp, #16
	@ sp needed
	pop	{r4, r5, r6, r7, r8, r10, fp, lr}
	b	zftl_insert_free_list
.L1252:
	.align	2
.L1251:
	.word	.LANCHOR9
	.word	.LANCHOR110
	.word	.LANCHOR10
	.word	.LANCHOR125
	.word	.LANCHOR101
	.word	.LANCHOR105
	.word	.LANCHOR91
	.word	.LANCHOR98
	.word	.LANCHOR103
	.word	.LANCHOR97
	.word	.LANCHOR99
	.word	.LANCHOR11
	.word	.LANCHOR12
	.word	.LC68
	.word	.LANCHOR126
	.word	.LANCHOR107
	.size	ftl_free_sblk, .-ftl_free_sblk
	.section	.text.gc_free_src_blk,"ax",%progbits
	.align	1
	.global	gc_free_src_blk
	.syntax unified
	.thumb
	.thumb_func
	.fpu softvfp
	.type	gc_free_src_blk, %function
gc_free_src_blk:
	@ args = 0, pretend = 0, frame = 0
	@ frame_needed = 0, uses_anonymous_args = 0
	push	{r3, r4, r5, r6, r7, lr}
	movs	r5, #0
	ldr	r6, .L1290
.L1254:
	uxth	r2, r5
	ldr	r3, .L1290+4
	ldrh	r1, [r3, #52]
	cmp	r1, r2
	bhi	.L1268
	movs	r2, #0
	strh	r2, [r3, #52]	@ movhi
	pop	{r3, r4, r5, r6, r7, pc}
.L1268:
	uxth	r2, r5
	add	r3, r3, r2, lsl #1
	ldrh	r4, [r3, #54]
	ldr	r3, [r6]
	ldrh	r2, [r3, r4, lsl #1]
	cbz	r2, .L1255
	mov	r1, r4
	ldr	r0, .L1290+8
	bl	printf
.L1255:
	ldr	r3, [r6]
	movs	r2, #0
	strh	r2, [r3, r4, lsl #1]	@ movhi
	ldr	r3, .L1290+12
	ldr	r7, [r3]
	ldr	r3, .L1290+16
	ldr	r3, [r3]
	add	r7, r7, r4, lsl #2
	lsls	r3, r3, #23
	bpl	.L1256
	ldrb	r2, [r7, #2]	@ zero_extendqisi2
	mov	r1, r4
	ldr	r0, .L1290+20
	lsrs	r2, r2, #5
	bl	printf
.L1256:
	ldrb	r3, [r7, #2]	@ zero_extendqisi2
	and	r2, r3, #224
	cmp	r2, #224
	beq	.L1257
	tst	r3, #192
	bne	.L1258
.L1257:
	movw	r2, #1363
	ldr	r1, .L1290+24
	ldr	r0, .L1290+28
	bl	printf
.L1258:
	mov	r0, r4
	bl	ftl_free_sblk
	ldr	r3, .L1290+32
	ldr	r3, [r3]
	ldrh	r1, [r3, #124]
	cbz	r1, .L1259
	add	r0, r3, #392
	movs	r2, #0
.L1261:
	ldrh	r7, [r0], #2
	cmp	r4, r7
	bne	.L1260
	adds	r2, r2, #196
	movw	r0, #65535
	subs	r1, r1, #1
	strh	r0, [r3, r2, lsl #1]	@ movhi
	strh	r1, [r3, #124]	@ movhi
.L1259:
	ldrh	r1, [r3, #120]
	cbz	r1, .L1262
	add	r0, r3, #136
	movs	r2, #0
.L1264:
	ldrh	r7, [r0], #2
	cmp	r4, r7
	bne	.L1263
	adds	r2, r2, #68
	movw	r0, #65535
	subs	r1, r1, #1
	strh	r0, [r3, r2, lsl #1]	@ movhi
	strh	r1, [r3, #120]	@ movhi
.L1262:
	ldrh	r1, [r3, #122]
	cbz	r1, .L1265
	add	r0, r3, #264
	movs	r2, #0
.L1267:
	ldrh	r7, [r0], #2
	cmp	r4, r7
	bne	.L1266
	adds	r2, r2, #132
	movw	r0, #65535
	subs	r1, r1, #1
	strh	r0, [r3, r2, lsl #1]	@ movhi
	strh	r1, [r3, #122]	@ movhi
.L1265:
	adds	r5, r5, #1
	b	.L1254
.L1260:
	adds	r2, r2, #1
	cmp	r2, #64
	bne	.L1261
	b	.L1259
.L1263:
	adds	r2, r2, #1
	cmp	r2, #64
	bne	.L1264
	b	.L1262
.L1266:
	adds	r2, r2, #1
	cmp	r2, #64
	bne	.L1267
	b	.L1265
.L1291:
	.align	2
.L1290:
	.word	.LANCHOR11
	.word	.LANCHOR70
	.word	.LC69
	.word	.LANCHOR9
	.word	.LANCHOR19
	.word	.LC70
	.word	.LANCHOR127
	.word	.LC0
	.word	.LANCHOR12
	.size	gc_free_src_blk, .-gc_free_src_blk
	.section	.text.print_ftl_debug_info,"ax",%progbits
	.align	1
	.global	print_ftl_debug_info
	.syntax unified
	.thumb
	.thumb_func
	.fpu softvfp
	.type	print_ftl_debug_info, %function
print_ftl_debug_info:
	@ args = 0, pretend = 0, frame = 0
	@ frame_needed = 0, uses_anonymous_args = 0
	push	{r4, r5, r6, lr}
	sub	sp, sp, #32
	ldr	r4, .L1293
	ldr	r5, .L1293+4
	ldr	r6, .L1293+8
	ldr	r1, [r4]
	ldr	r0, [r5]
	ldr	r6, [r6]
	ldr	r3, .L1293+12
	ldrh	r2, [r1, #146]
	ldrh	r1, [r1, #148]
	ldrh	r3, [r3]
	str	r6, [sp, #28]
	ldr	r6, [r0, #528]
	str	r6, [sp, #24]
	ldr	r0, [r0, #524]
	str	r0, [sp, #20]
	ldr	r0, .L1293+16
	ldrh	r0, [r0]
	str	r0, [sp, #16]
	ldr	r0, .L1293+20
	ldrh	r0, [r0]
	str	r0, [sp, #12]
	ldr	r0, .L1293+24
	ldrh	r0, [r0]
	str	r0, [sp, #8]
	ldr	r0, .L1293+28
	ldrh	r0, [r0]
	str	r0, [sp, #4]
	ldr	r0, .L1293+32
	ldrh	r0, [r0]
	str	r0, [sp]
	ldr	r0, .L1293+36
	bl	printf
	ldr	r1, [r4]
	ldr	r3, .L1293+40
	ldr	r0, .L1293+44
	ldr	r2, [r1, #64]
	ldrb	r3, [r3]	@ zero_extendqisi2
	str	r2, [sp, #4]
	ldr	r2, [r1, #8]
	str	r2, [sp]
	ldr	r2, [r1, #28]
	ldr	r1, [r1, #20]
	bl	printf
	ldr	r1, [r4]
	ldr	r0, .L1293+48
	ldr	r3, [r1, #16]
	ldr	r2, [r1, #60]
	ldr	r1, [r1, #52]
	lsrs	r3, r3, #11
	bl	printf
	ldr	r2, [r4]
	ldrh	r0, [r2, #98]
	ldrh	r3, [r2, #88]
	ldrh	r1, [r2, #74]
	str	r0, [sp, #24]
	ldrh	r0, [r2, #94]
	str	r0, [sp, #20]
	ldrh	r0, [r2, #90]
	str	r0, [sp, #16]
	ldr	r0, [r2, #80]
	str	r0, [sp, #12]
	ldrh	r0, [r2, #72]
	str	r0, [sp, #8]
	ldrh	r0, [r2, #96]
	str	r0, [sp, #4]
	ldrh	r0, [r2, #92]
	str	r0, [sp]
	ldr	r0, .L1293+52
	ldr	r2, [r2, #84]
	bl	printf
	ldr	r0, .L1293+56
	ldr	r3, .L1293+60
	ldr	r2, .L1293+64
	ldrh	r0, [r0]
	ldr	r1, .L1293+68
	ldrh	r3, [r3]
	ldrh	r2, [r2]
	ldrh	r1, [r1]
	str	r0, [sp, #4]
	ldr	r0, .L1293+72
	ldrh	r0, [r0]
	str	r0, [sp]
	ldr	r0, .L1293+76
	bl	printf
	ldr	r4, [r4]
	ldr	r0, [r5]
	ldrh	r5, [r4, #150]
	ldrh	r3, [r0, #588]
	ldrh	r2, [r0, #586]
	ldrh	r1, [r0, #584]
	str	r5, [sp, #8]
	ldr	r4, [r4, #156]
	str	r4, [sp, #4]
	ldrh	r0, [r0, #590]
	str	r0, [sp]
	ldr	r0, .L1293+80
	bl	printf
	add	sp, sp, #32
	@ sp needed
	pop	{r4, r5, r6, pc}
.L1294:
	.align	2
.L1293:
	.word	.LANCHOR110
	.word	.LANCHOR12
	.word	.LANCHOR128
	.word	.LANCHOR103
	.word	.LANCHOR91
	.word	.LANCHOR99
	.word	.LANCHOR97
	.word	.LANCHOR107
	.word	.LANCHOR105
	.word	.LC71
	.word	.LANCHOR129
	.word	.LC72
	.word	.LC73
	.word	.LC74
	.word	.LANCHOR86
	.word	.LANCHOR69
	.word	.LANCHOR102
	.word	.LANCHOR100
	.word	.LANCHOR93
	.word	.LC75
	.word	.LC76
	.size	print_ftl_debug_info, .-print_ftl_debug_info
	.section	.text.ftl_write_buf,"ax",%progbits
	.align	1
	.global	ftl_write_buf
	.syntax unified
	.thumb
	.thumb_func
	.fpu softvfp
	.type	ftl_write_buf, %function
ftl_write_buf:
	@ args = 0, pretend = 0, frame = 0
	@ frame_needed = 0, uses_anonymous_args = 0
	push	{r4, r5, r6, lr}
	mov	r4, r0
	cbnz	r0, .L1296
	mov	r2, #808
	ldr	r1, .L1305
	ldr	r0, .L1305+4
	bl	printf
	bl	print_ftl_debug_info
	mov	r0, #-1
	pop	{r4, r5, r6, pc}
.L1299:
	mov	r1, r4
	ldr	r0, .L1305+8
	bl	buf_add_tail
	ldr	r3, .L1305+12
	ldrb	r1, [r4, #40]	@ zero_extendqisi2
	ldrb	r0, [r6]	@ zero_extendqisi2
	ldr	r3, [r3]
	adds	r0, r0, #1
	ldr	r2, [r3, #16]
	uxtb	r0, r0
	strb	r0, [r6]
	add	r2, r2, r1
	str	r2, [r3, #16]
	ldr	r2, [r3, #32]
	adds	r2, r2, #1
	str	r2, [r3, #32]
	pop	{r4, r5, r6, pc}
.L1296:
	ldr	r5, .L1305+16
	ldrb	r1, [r0, #40]	@ zero_extendqisi2
	ldrb	r2, [r5]	@ zero_extendqisi2
	cmp	r1, r2
	bls	.L1301
	movw	r2, #815
	ldr	r1, .L1305
	ldr	r0, .L1305+4
	bl	printf
.L1301:
	ldrb	r3, [r4, #40]	@ zero_extendqisi2
	ldr	r6, .L1305+20
	cbz	r3, .L1298
	ldrb	r2, [r5]	@ zero_extendqisi2
	cmp	r2, r3
	bcs	.L1299
.L1298:
	mov	r0, r4
	bl	zbuf_free
	ldrb	r0, [r6]	@ zero_extendqisi2
	pop	{r4, r5, r6, pc}
.L1306:
	.align	2
.L1305:
	.word	.LANCHOR130
	.word	.LC0
	.word	.LANCHOR65
	.word	.LANCHOR110
	.word	.LANCHOR131
	.word	.LANCHOR66
	.size	ftl_write_buf, .-ftl_write_buf
	.section	.text.ftl_write_completed,"ax",%progbits
	.align	1
	.global	ftl_write_completed
	.syntax unified
	.thumb
	.thumb_func
	.fpu softvfp
	.type	ftl_write_completed, %function
ftl_write_completed:
	@ args = 0, pretend = 0, frame = 8
	@ frame_needed = 0, uses_anonymous_args = 0
	push	{r0, r1, r4, r5, r6, r7, r8, r10, fp, lr}
	mov	fp, #0
	ldr	r8, .L1323+36
	ldr	r10, .L1323+40
.L1308:
	ldrb	r6, [r8]	@ zero_extendqisi2
	cmp	r6, #255
	bne	.L1319
	add	sp, sp, #8
	@ sp needed
	pop	{r4, r5, r6, r7, r8, r10, fp, pc}
.L1319:
	movs	r3, #48
	ldr	r5, .L1323
	muls	r3, r6, r3
	add	r7, r6, r6, lsl #1
	add	r7, r5, r7, lsl #4
	adds	r4, r5, r3
	ldrb	r3, [r5, r3]	@ zero_extendqisi2
	strb	r3, [r8]
	ldr	r3, [r4, #36]
	adds	r3, r3, #1
	bne	.L1309
	ldr	r3, .L1323+4
	ldrb	r3, [r3]	@ zero_extendqisi2
	cbnz	r3, .L1310
	ldr	r3, .L1323+8
	ldrb	r3, [r3]	@ zero_extendqisi2
	cbz	r3, .L1311
.L1310:
	ldr	r3, .L1323+12
	ldr	r3, [r3]
	ldr	r3, [r3, #156]
	cmp	r3, r10
	beq	.L1312
.L1311:
	ldr	r2, .L1323+16
	movs	r3, #48
	mla	r3, r3, r6, r5
	ldr	fp, .L1323+44
	ldrh	r1, [r2]
	ldr	r2, .L1323+20
	ldr	r3, [r3, #24]
	ldrb	r2, [r2]	@ zero_extendqisi2
	str	r3, [sp, #4]
	rsb	r2, r2, #24
	subs	r0, r2, r1
	movs	r2, #1
	lsls	r2, r2, r0
	lsr	r0, r3, r1
	ldr	r1, .L1323+24
	subs	r2, r2, #1
	ands	r0, r0, r2
	ldrb	r1, [r1]	@ zero_extendqisi2
	bl	__aeabi_uidiv
	ldr	r2, [fp]
	movw	r1, #65535
	uxth	r4, r0
	ldr	r0, .L1323+28
	ldr	r3, [r2, #560]
	cmp	r3, r1
	ldr	r3, [sp, #4]
	it	eq
	streq	r4, [r2, #560]
	mov	r1, r4
	it	eq
	streq	r3, [r2, #564]
	movs	r2, #48
	mla	r5, r2, r6, r5
	ldr	r2, [r5, #20]
	bl	printf
	ldr	r3, [fp]
	ldr	r2, [r3, #556]
	adds	r2, r2, #1
	str	r2, [r3, #556]
	ldrh	r2, [r3, #16]
	cmp	r2, r4
	bne	.L1314
	movs	r2, #0
	strh	r2, [r3, #22]	@ movhi
.L1312:
	mov	r0, r7
	mov	fp, #1
	bl	ftl_write_buf
	b	.L1308
.L1314:
	ldrh	r2, [r3, #48]
	cmp	r2, r4
	itt	eq
	moveq	r2, #0
	strheq	r2, [r3, #54]	@ movhi
	b	.L1312
.L1309:
	cmp	fp, #0
	beq	.L1317
	ldr	r2, [r4, #24]
	ldr	r1, [r4, #20]
	ldr	r0, .L1323+32
	bl	printf
	mov	r0, r7
	bl	ftl_write_buf
	b	.L1308
.L1317:
	ldrh	r2, [r4, #32]
	ldr	r1, [r4, #28]
	ldr	r0, [r4, #20]
	bl	lpa_hash_update_ppa
	ldrb	r3, [r4, #2]	@ zero_extendqisi2
	lsls	r2, r3, #29
	bpl	.L1318
	bic	r3, r3, #2
	strb	r3, [r4, #2]
	b	.L1308
.L1318:
	mov	r0, r7
	bl	zbuf_free
	b	.L1308
.L1324:
	.align	2
.L1323:
	.word	.LANCHOR55
	.word	.LANCHOR124
	.word	.LANCHOR80
	.word	.LANCHOR110
	.word	.LANCHOR74
	.word	.LANCHOR31
	.word	.LANCHOR75
	.word	.LC77
	.word	.LC78
	.word	.LANCHOR64
	.word	1145785929
	.word	.LANCHOR12
	.size	ftl_write_completed, .-ftl_write_completed
	.section	.text.zftl_add_read_buf,"ax",%progbits
	.align	1
	.global	zftl_add_read_buf
	.syntax unified
	.thumb
	.thumb_func
	.fpu softvfp
	.type	zftl_add_read_buf, %function
zftl_add_read_buf:
	@ args = 0, pretend = 0, frame = 0
	@ frame_needed = 0, uses_anonymous_args = 0
	push	{r4, lr}
	mov	r4, r0
	cbnz	r0, .L1326
	movw	r2, #1148
	ldr	r1, .L1330
	ldr	r0, .L1330+4
	bl	printf
	pop	{r4, lr}
	b	print_ftl_debug_info
.L1326:
	ldr	r3, .L1330+8
	ldrb	r2, [r0, #40]	@ zero_extendqisi2
	ldrb	r3, [r3]	@ zero_extendqisi2
	cmp	r2, r3
	bls	.L1328
	movw	r2, #1155
	ldr	r1, .L1330
	ldr	r0, .L1330+4
	bl	printf
.L1328:
	mov	r1, r4
	ldr	r0, .L1330+12
	bl	buf_add_tail
	ldr	r2, .L1330+16
	ldrb	r3, [r2]	@ zero_extendqisi2
	adds	r3, r3, #1
	strb	r3, [r2]
	pop	{r4, pc}
.L1331:
	.align	2
.L1330:
	.word	.LANCHOR132
	.word	.LC0
	.word	.LANCHOR131
	.word	.LANCHOR133
	.word	.LANCHOR134
	.size	zftl_add_read_buf, .-zftl_add_read_buf
	.section	.text.sblk_init,"ax",%progbits
	.align	1
	.global	sblk_init
	.syntax unified
	.thumb
	.thumb_func
	.fpu softvfp
	.type	sblk_init, %function
sblk_init:
	@ args = 0, pretend = 0, frame = 0
	@ frame_needed = 0, uses_anonymous_args = 0
	@ link register save eliminated.
	ldr	r2, .L1333
	movs	r3, #255
	movs	r0, #0
	strb	r3, [r2]
	ldr	r2, .L1333+4
	strb	r3, [r2]
	ldr	r2, .L1333+8
	strb	r3, [r2]
	ldr	r2, .L1333+12
	strb	r3, [r2]
	bx	lr
.L1334:
	.align	2
.L1333:
	.word	.LANCHOR59
	.word	.LANCHOR64
	.word	.LANCHOR62
	.word	.LANCHOR63
	.size	sblk_init, .-sblk_init
	.section	.text.dump_sblk_queue,"ax",%progbits
	.align	1
	.global	dump_sblk_queue
	.syntax unified
	.thumb
	.thumb_func
	.fpu softvfp
	.type	dump_sblk_queue, %function
dump_sblk_queue:
	@ args = 0, pretend = 0, frame = 0
	@ frame_needed = 0, uses_anonymous_args = 0
	push	{r4, r5, r6, lr}
	ldr	r4, .L1344
	ldr	r0, .L1344+4
	ldrb	r1, [r4]	@ zero_extendqisi2
	bl	printf
	ldrb	r4, [r4]	@ zero_extendqisi2
	cmp	r4, #255
	beq	.L1335
	ldr	r5, .L1344+8
	add	r4, r4, r4, lsl #1
	ldr	r6, .L1344+12
	add	r4, r5, r4, lsl #4
.L1337:
	ldr	r3, [r4, #24]
	mov	r0, r6
	ldrb	r2, [r4, #42]	@ zero_extendqisi2
	ldrb	r1, [r4, #1]	@ zero_extendqisi2
	bl	printf
	ldrb	r4, [r4]	@ zero_extendqisi2
	cmp	r4, #255
	beq	.L1335
	add	r4, r4, r4, lsl #1
	add	r4, r5, r4, lsl #4
	b	.L1337
.L1335:
	pop	{r4, r5, r6, pc}
.L1345:
	.align	2
.L1344:
	.word	.LANCHOR59
	.word	.LC79
	.word	.LANCHOR55
	.word	.LC80
	.size	dump_sblk_queue, .-dump_sblk_queue
	.section	.text.queue_lun_state,"ax",%progbits
	.align	1
	.global	queue_lun_state
	.syntax unified
	.thumb
	.thumb_func
	.fpu softvfp
	.type	queue_lun_state, %function
queue_lun_state:
	@ args = 0, pretend = 0, frame = 8
	@ frame_needed = 0, uses_anonymous_args = 0
	ldr	r3, .L1365
	push	{r0, r1, r4, r5, r6, r7, r8, r10, fp, lr}
	ldrb	r6, [r3]	@ zero_extendqisi2
	cmp	r6, #255
	beq	.L1354
	ldr	r3, .L1365+4
	movs	r2, #1
	ldr	r10, .L1365+16
	mov	r8, #48
	ldrb	r3, [r3]	@ zero_extendqisi2
	rsb	ip, r3, #24
	lsl	r3, r2, r3
	asr	r4, r0, ip
	subs	r3, r3, #1
	uxth	r3, r3
	ands	r4, r4, r3
	str	r4, [sp]
	ldr	r4, .L1365+8
	ldrh	lr, [r4]
	sub	r4, ip, lr
	lsls	r2, r2, r4
	ldr	r4, .L1365+12
	subs	r2, r2, #1
	ldrb	r7, [r4]	@ zero_extendqisi2
	asr	r4, r0, lr
	uxth	r2, r2
	subs	r7, r7, #1
	uxth	r7, r7
	ands	r4, r4, r7
	and	r0, r4, r2
	str	r0, [sp, #4]
.L1353:
	mla	fp, r8, r6, r10
	ldr	r5, [fp, #24]
	lsr	r0, r5, ip
	ands	r0, r0, r3
	mov	r4, r0
	ldr	r0, [sp]
	cmp	r0, r4
	bne	.L1348
	lsr	r5, r5, lr
	ldr	r4, [sp, #4]
	ldrb	r0, [fp, #42]	@ zero_extendqisi2
	ands	r5, r5, r7
	ands	r5, r5, r2
	cmp	r4, r5
	bne	.L1349
	cmp	r1, #1
	bne	.L1346
.L1351:
	cmp	r0, #7
	beq	.L1348
	cmp	r0, #9
.L1362:
	bne	.L1346
.L1348:
	mul	r6, r8, r6
	ldr	r0, .L1365+16
	ldrb	r6, [r0, r6]	@ zero_extendqisi2
	cmp	r6, #255
	bne	.L1353
.L1354:
	movs	r0, #0
.L1346:
	add	sp, sp, #8
	@ sp needed
	pop	{r4, r5, r6, r7, r8, r10, fp, pc}
.L1349:
	cmp	r1, #3
	bhi	.L1348
	adr	r5, .L1350
	ldr	pc, [r5, r1, lsl #2]
	.p2align 2
.L1350:
	.word	.L1346+1
	.word	.L1351+1
	.word	.L1352+1
	.word	.L1346+1
	.p2align 1
.L1352:
	cmp	r0, #11
	b	.L1362
.L1366:
	.align	2
.L1365:
	.word	.LANCHOR59
	.word	.LANCHOR31
	.word	.LANCHOR74
	.word	.LANCHOR75
	.word	.LANCHOR55
	.size	queue_lun_state, .-queue_lun_state
	.section	.text.queue_remove_completed_req,"ax",%progbits
	.align	1
	.global	queue_remove_completed_req
	.syntax unified
	.thumb
	.thumb_func
	.fpu softvfp
	.type	queue_remove_completed_req, %function
queue_remove_completed_req:
	@ args = 0, pretend = 0, frame = 8
	@ frame_needed = 0, uses_anonymous_args = 0
	push	{r0, r1, r4, r5, r6, r7, r8, r10, fp, lr}
	mov	ip, #0
	ldr	r5, .L1392
	movs	r4, #48
	mov	fp, #255
	ldr	r6, .L1392+4
	ldrb	r3, [r5]	@ zero_extendqisi2
	ldr	r1, .L1392+8
	ldr	r7, .L1392+12
	str	r3, [sp, #4]
	ldrb	r3, [r6]	@ zero_extendqisi2
	ldrb	r2, [r1]	@ zero_extendqisi2
	ldrb	r10, [r7]	@ zero_extendqisi2
	str	r3, [sp]
	ldr	r3, .L1392+16
.L1368:
	cmp	r2, #255
	beq	.L1369
	mul	r8, r4, r2
	mov	r0, r2
	add	lr, r3, r8
	ldrb	lr, [lr, #42]	@ zero_extendqisi2
	sub	lr, lr, #12
	cmp	lr, #1
	bls	.L1370
.L1369:
	cmp	ip, #0
	beq	.L1367
	strb	r2, [r1]
	b	.L1367
.L1370:
	mul	lr, r4, r0
	ldrb	r2, [r3, r8]	@ zero_extendqisi2
	add	ip, r3, lr
	strb	fp, [r3, lr]
	ldrb	lr, [ip, #43]	@ zero_extendqisi2
	cmp	lr, #1
	bne	.L1373
	ldrh	ip, [ip, #34]
	cmp	ip, #0
	bne	.L1381
	mov	ip, r10
	mov	lr, r7
.L1374:
	cmp	ip, #255
	bne	.L1379
	strb	r2, [r1]
	movs	r2, #48
	mla	r3, r2, r0, r3
	ldrb	r3, [r3, #1]	@ zero_extendqisi2
	strb	r3, [lr]
.L1367:
	add	sp, sp, #8
	@ sp needed
	pop	{r4, r5, r6, r7, r8, r10, fp, pc}
.L1373:
	cmp	lr, #0
	bne	.L1375
	ldr	ip, [ip, #20]
	cmp	ip, #-1
	beq	.L1375
	ldr	ip, [sp, #4]
	mov	lr, r5
	b	.L1374
.L1381:
	ldr	ip, [sp]
	mov	lr, r6
	b	.L1374
.L1379:
	mov	lr, ip
	mul	ip, r4, ip
	ldrb	ip, [r3, ip]	@ zero_extendqisi2
	cmp	ip, #255
	bne	.L1379
	mla	r0, r4, r0, r3
	mul	lr, r4, lr
	ldrb	r0, [r0, #1]	@ zero_extendqisi2
	strb	r0, [r3, lr]
.L1375:
	mov	ip, #1
	b	.L1368
.L1393:
	.align	2
.L1392:
	.word	.LANCHOR62
	.word	.LANCHOR63
	.word	.LANCHOR59
	.word	.LANCHOR64
	.word	.LANCHOR55
	.size	queue_remove_completed_req, .-queue_remove_completed_req
	.section	.text.pm_select_ram_region,"ax",%progbits
	.align	1
	.global	pm_select_ram_region
	.syntax unified
	.thumb
	.thumb_func
	.fpu softvfp
	.type	pm_select_ram_region, %function
pm_select_ram_region:
	@ args = 0, pretend = 0, frame = 0
	@ frame_needed = 0, uses_anonymous_args = 0
	ldr	r2, .L1404
	movw	r0, #65535
	push	{r3, r4, r5, r6, r7, lr}
	movs	r3, #0
	mov	r1, r2
.L1396:
	ldrh	r5, [r2, r3, lsl #3]
	uxth	r4, r3
	cmp	r5, r0
	beq	.L1395
	adds	r3, r3, #1
	cmp	r3, #32
	bne	.L1396
	movs	r2, #0
	mov	r4, r3
	mov	r0, #32768
.L1398:
	add	r3, r1, r2, lsl #3
	uxth	r5, r2
	ldrh	r3, [r3, #2]
	lsls	r6, r3, #16
	bmi	.L1397
	cmp	r3, r0
	itt	cc
	movcc	r0, r3
	movcc	r4, r5
.L1397:
	adds	r2, r2, #1
	cmp	r2, #32
	bne	.L1398
	cmp	r4, #32
	bne	.L1395
	ldr	r3, .L1404+4
	mov	r2, #-1
	ldrb	r5, [r3]	@ zero_extendqisi2
	movs	r3, #0
.L1400:
	add	r0, r1, r3, lsl #3
	uxth	r6, r3
	ldrh	r0, [r0, #2]
	cmp	r0, r2
	bcs	.L1399
	ldrh	r7, [r1, r3, lsl #3]
	cmp	r7, r5
	itt	ne
	movne	r2, r0
	movne	r4, r6
.L1399:
	adds	r3, r3, #1
	cmp	r3, #32
	bne	.L1400
	cmp	r4, #32
	bne	.L1395
	movw	r2, #377
	ldr	r1, .L1404+8
	ldr	r0, .L1404+12
	bl	printf
.L1395:
	mov	r0, r4
	pop	{r3, r4, r5, r6, r7, pc}
.L1405:
	.align	2
.L1404:
	.word	.LANCHOR135
	.word	.LANCHOR136
	.word	.LANCHOR137
	.word	.LC0
	.size	pm_select_ram_region, .-pm_select_ram_region
	.section	.text.idb_init,"ax",%progbits
	.align	1
	.global	idb_init
	.syntax unified
	.thumb
	.thumb_func
	.fpu softvfp
	.type	idb_init, %function
idb_init:
	@ args = 0, pretend = 0, frame = 0
	@ frame_needed = 0, uses_anonymous_args = 0
	@ link register save eliminated.
	ldr	r3, .L1407
	movs	r0, #0
	str	r0, [r3]
	ldr	r3, .L1407+4
	str	r0, [r3]
	ldr	r3, .L1407+8
	strb	r0, [r3]
	ldr	r3, .L1407+12
	str	r0, [r3]
	bx	lr
.L1408:
	.align	2
.L1407:
	.word	.LANCHOR138
	.word	.LANCHOR139
	.word	.LANCHOR140
	.word	.LANCHOR141
	.size	idb_init, .-idb_init
	.section	.text.ftl_memset,"ax",%progbits
	.align	1
	.global	ftl_memset
	.syntax unified
	.thumb
	.thumb_func
	.fpu softvfp
	.type	ftl_memset, %function
ftl_memset:
	@ args = 0, pretend = 0, frame = 0
	@ frame_needed = 0, uses_anonymous_args = 0
	@ link register save eliminated.
	b	memset
	.size	ftl_memset, .-ftl_memset
	.section	.text.flash_lsb_page_tbl_build,"ax",%progbits
	.align	1
	.global	flash_lsb_page_tbl_build
	.syntax unified
	.thumb
	.thumb_func
	.fpu softvfp
	.type	flash_lsb_page_tbl_build, %function
flash_lsb_page_tbl_build:
	@ args = 0, pretend = 0, frame = 0
	@ frame_needed = 0, uses_anonymous_args = 0
	push	{r3, r4, r5, lr}
	mov	r5, r0
	ldr	r3, .L1463
	mov	r0, #1024
	ldr	r3, [r3]
	ldrb	r1, [r3, #12]	@ zero_extendqisi2
	bl	__aeabi_idiv
	uxth	r4, r0
	cbnz	r5, .L1411
	ldr	r3, .L1463+4
.L1412:
	strh	r5, [r3, r5, lsl #1]	@ movhi
	adds	r5, r5, #1
	cmp	r5, #512
	bne	.L1412
.L1418:
	movs	r1, #255
	mov	r2, #2048
	ldr	r0, .L1463+8
	bl	ftl_memset
	ldr	r0, .L1463+4
	movs	r3, #0
	ldr	r1, .L1463+8
.L1413:
	ldrh	r2, [r0, r3, lsl #1]
	adds	r3, r3, #1
	strh	r2, [r1, r2, lsl #1]	@ movhi
	uxth	r2, r3
	cmp	r2, r4
	bcc	.L1413
	pop	{r3, r4, r5, pc}
.L1411:
	cmp	r5, #1
	bne	.L1414
	ldr	r1, .L1463+4
	movs	r3, #0
.L1417:
	cmp	r3, #3
	uxth	r2, r3
	bls	.L1415
	tst	r2, #1
	ite	ne
	movne	r0, #3
	moveq	r0, #2
	rsb	r2, r0, r2, lsl #1
	uxth	r2, r2
.L1415:
	strh	r2, [r1, r3, lsl #1]	@ movhi
	adds	r3, r3, #1
	cmp	r3, #512
	bne	.L1417
	b	.L1418
.L1414:
	cmp	r5, #2
	bne	.L1419
	ldr	r1, .L1463+4
	movs	r2, #0
.L1421:
	uxth	r3, r2
	cmp	r2, #1
	ittt	hi
	lslhi	r3, r3, #1
	addhi	r3, r3, #-1
	uxthhi	r3, r3
	strh	r3, [r1, r2, lsl #1]	@ movhi
	adds	r2, r2, #1
	cmp	r2, #512
	bne	.L1421
	b	.L1418
.L1419:
	cmp	r5, #3
	bne	.L1422
	ldr	r1, .L1463+4
	movs	r3, #0
.L1425:
	cmp	r3, #5
	uxth	r2, r3
	bls	.L1423
	tst	r2, #1
	ite	ne
	movne	r0, #5
	moveq	r0, #4
	rsb	r2, r0, r2, lsl #1
	uxth	r2, r2
.L1423:
	strh	r2, [r1, r3, lsl #1]	@ movhi
	adds	r3, r3, #1
	cmp	r3, #512
	bne	.L1425
	b	.L1418
.L1422:
	cmp	r5, #4
	mov	r3, #0
	bne	.L1426
	ldr	r2, .L1463+4
	strh	r3, [r2]	@ movhi
	movs	r3, #1
	strh	r3, [r2, #2]	@ movhi
	movs	r3, #2
	strh	r3, [r2, #4]	@ movhi
	movs	r3, #3
	strh	r3, [r2, #6]	@ movhi
	movs	r3, #5
	strh	r3, [r2, #10]	@ movhi
	movs	r3, #7
	strh	r3, [r2, #12]	@ movhi
	movs	r3, #8
	strh	r5, [r2, #8]	@ movhi
	strh	r3, [r2, #14]!	@ movhi
.L1428:
	tst	r3, #1
	ite	ne
	movne	r1, #7
	moveq	r1, #6
	rsb	r1, r1, r3, lsl #1
	adds	r3, r3, #1
	uxth	r3, r3
	strh	r1, [r2, #2]!	@ movhi
	cmp	r3, #512
	bne	.L1428
	b	.L1418
.L1426:
	cmp	r5, #5
	bne	.L1429
	ldr	r2, .L1463+4
.L1430:
	strh	r3, [r2, r3, lsl #1]	@ movhi
	adds	r3, r3, #1
	cmp	r3, #16
	bne	.L1430
	ldr	r2, .L1463+12
.L1431:
	strh	r3, [r2, #2]!	@ movhi
	adds	r3, r3, #2
	uxth	r3, r3
	cmp	r3, #1008
	bne	.L1431
	b	.L1418
.L1429:
	cmp	r5, #8
	bne	.L1432
	ldr	r2, .L1463+4
.L1433:
	strh	r3, [r3, r2]	@ movhi
	adds	r3, r3, #2
	cmp	r3, #1024
	bne	.L1433
	b	.L1418
.L1432:
	cmp	r5, #9
	bne	.L1434
	ldr	r2, .L1463+4
	movw	r1, #1021
	strh	r3, [r2]	@ movhi
	movs	r3, #1
	strh	r3, [r2, #2]	@ movhi
	mov	r3, r2
	movs	r2, #2
	strh	r2, [r3, #4]!	@ movhi
	movs	r2, #3
.L1435:
	strh	r2, [r3, #2]!	@ movhi
	adds	r2, r2, #2
	uxth	r2, r2
	cmp	r2, r1
	bne	.L1435
	b	.L1418
.L1434:
	cmp	r5, #10
	bne	.L1436
	ldr	r2, .L1463+4
.L1437:
	strh	r3, [r2, r3, lsl #1]	@ movhi
	adds	r3, r3, #1
	cmp	r3, #63
	bne	.L1437
	ldr	r2, .L1463+16
	movw	r1, #961
.L1438:
	strh	r3, [r2, #2]!	@ movhi
	adds	r3, r3, #2
	uxth	r3, r3
	cmp	r3, r1
	bne	.L1438
	b	.L1418
.L1436:
	cmp	r5, #11
	bne	.L1439
	ldr	r2, .L1463+4
	movs	r3, #0
.L1440:
	strh	r3, [r2, r3, lsl #1]	@ movhi
	adds	r3, r3, #1
	cmp	r3, #8
	bne	.L1440
	ldr	r1, .L1463+20
.L1442:
	tst	r3, #1
	ite	ne
	movne	r2, #7
	moveq	r2, #6
	rsb	r2, r2, r3, lsl #1
	adds	r3, r3, #1
	uxth	r3, r3
	strh	r2, [r1, #2]!	@ movhi
	cmp	r3, #512
	bne	.L1442
	b	.L1418
.L1439:
	cmp	r5, #13
	bne	.L1418
	ldr	r2, .L1463+24
	movs	r3, #0
.L1443:
	strh	r3, [r2, #2]!	@ movhi
	adds	r3, r3, #3
	uxth	r3, r3
	cmp	r3, #1536
	bne	.L1443
	b	.L1418
.L1464:
	.align	2
.L1463:
	.word	.LANCHOR21
	.word	.LANCHOR3
	.word	.LANCHOR142
	.word	.LANCHOR3+30
	.word	.LANCHOR3+124
	.word	.LANCHOR3+14
	.word	.LANCHOR3-2
	.size	flash_lsb_page_tbl_build, .-flash_lsb_page_tbl_build
	.section	.text.flash_die_info_init,"ax",%progbits
	.align	1
	.global	flash_die_info_init
	.syntax unified
	.thumb
	.thumb_func
	.fpu softvfp
	.type	flash_die_info_init, %function
flash_die_info_init:
	@ args = 0, pretend = 0, frame = 8
	@ frame_needed = 0, uses_anonymous_args = 0
	ldr	r3, .L1482
	push	{r0, r1, r4, r5, r6, r7, r8, r10, fp, lr}
	ldr	r3, [r3]
	lsls	r3, r3, #19
	bpl	.L1466
	ldr	r1, .L1482+4
	ldr	r0, .L1482+8
	bl	printf
.L1466:
	ldr	r4, .L1482+12
	movs	r6, #0
	ldr	r5, .L1482+16
	ldr	r7, .L1482+20
	ldrh	r3, [r4, #26]
	ldrb	r1, [r4, #12]	@ zero_extendqisi2
	ldrh	r0, [r4, #10]
	strh	r3, [r7]	@ movhi
	strb	r6, [r5]
	bl	__aeabi_idiv
	ldr	r10, .L1482+48
	movs	r2, #8
	ldr	r3, .L1482+24
	mov	r1, r6
	mov	r8, r10
	strh	r0, [r3]	@ movhi
	ldr	r0, .L1482+28
	bl	ftl_memset
	movs	r2, #32
	mov	r1, r6
	ldr	r0, .L1482+32
	bl	ftl_memset
.L1468:
	ldr	r3, .L1482+36
	movs	r2, #2
	add	r1, r10, r6, lsl #3
	ldr	r0, .L1482+40
	strb	r2, [r6, r3]
	ldrb	r2, [r4]	@ zero_extendqisi2
	bl	flash_mem_cmp8
	cbnz	r0, .L1467
	ldrb	r3, [r5]	@ zero_extendqisi2
	ldr	r2, .L1482+32
	str	r0, [r2, r3, lsl #2]
	adds	r2, r3, #1
	strb	r2, [r5]
	uxtb	r0, r6
	ldr	r2, .L1482+28
	strb	r0, [r2, r3]
	bl	zftl_flash_enter_slc_mode
.L1467:
	adds	r6, r6, #1
	cmp	r6, #4
	bne	.L1468
	ldrb	r3, [r4, #8]	@ zero_extendqisi2
	cmp	r3, #2
	beq	.L1469
.L1473:
	ldrb	r2, [r4, #13]	@ zero_extendqisi2
	ldrb	r3, [r5]	@ zero_extendqisi2
	smulbb	r3, r3, r2
	ldrh	r2, [r4, #14]
	smulbb	r3, r3, r2
	ldr	r2, .L1482+44
	strh	r3, [r2]	@ movhi
	add	sp, sp, #8
	@ sp needed
	pop	{r4, r5, r6, r7, r8, r10, fp, pc}
.L1469:
	ldrh	r6, [r7]
	movs	r7, #0
	ldrb	r3, [r4, #13]	@ zero_extendqisi2
	ldrb	r10, [r4]	@ zero_extendqisi2
	ldrb	fp, [r4, #23]	@ zero_extendqisi2
	muls	r3, r6, r3
	ldrh	r6, [r4, #14]
	and	r6, r6, #65280
	muls	r6, r3, r6
	lsls	r3, r6, #1
	str	r3, [sp]
	ldr	r3, .L1482+28
.L1472:
	mov	r2, r10
	add	r1, r8, r7, lsl #3
	ldr	r0, .L1482+40
	str	r3, [sp, #4]
	bl	flash_mem_cmp8
	ldr	r3, [sp, #4]
	cbnz	r0, .L1470
	ldr	r1, [sp]
	ldrb	r2, [r5]	@ zero_extendqisi2
	ldr	r0, .L1482+32
	cmp	fp, #0
	it	eq
	moveq	r1, r6
	strb	r7, [r3, r2]
	str	r1, [r0, r2, lsl #2]
	adds	r1, r2, #1
	strb	r1, [r5]
.L1470:
	adds	r7, r7, #1
	cmp	r7, #4
	bne	.L1472
	b	.L1473
.L1483:
	.align	2
.L1482:
	.word	.LANCHOR19
	.word	.LANCHOR143
	.word	.LC1
	.word	.LANCHOR32
	.word	.LANCHOR23
	.word	.LANCHOR2
	.word	.LANCHOR144
	.word	.LANCHOR29
	.word	.LANCHOR145
	.word	.LANCHOR33
	.word	.LANCHOR32+1
	.word	.LANCHOR146
	.word	.LANCHOR47
	.size	flash_die_info_init, .-flash_die_info_init
	.section	.text.lpa_hash_init,"ax",%progbits
	.align	1
	.global	lpa_hash_init
	.syntax unified
	.thumb
	.thumb_func
	.fpu softvfp
	.type	lpa_hash_init, %function
lpa_hash_init:
	@ args = 0, pretend = 0, frame = 0
	@ frame_needed = 0, uses_anonymous_args = 0
	push	{r3, lr}
	mov	r2, #512
	movs	r1, #255
	ldr	r0, .L1485
	bl	ftl_memset
	ldr	r3, .L1485+4
	movs	r1, #255
	ldr	r2, .L1485+8
	ldrh	r3, [r3]
	ldrb	r2, [r2]	@ zero_extendqisi2
	muls	r2, r3, r2
	ldr	r3, .L1485+12
	ldr	r0, [r3]
	lsls	r2, r2, #2
	pop	{r3, lr}
	b	ftl_memset
.L1486:
	.align	2
.L1485:
	.word	.LANCHOR116
	.word	.LANCHOR94
	.word	.LANCHOR79
	.word	.LANCHOR118
	.size	lpa_hash_init, .-lpa_hash_init
	.section	.text.lpa_rebuild_hash,"ax",%progbits
	.align	1
	.global	lpa_rebuild_hash
	.syntax unified
	.thumb
	.thumb_func
	.fpu softvfp
	.type	lpa_rebuild_hash, %function
lpa_rebuild_hash:
	@ args = 0, pretend = 0, frame = 0
	@ frame_needed = 0, uses_anonymous_args = 0
	push	{r3, r4, r5, r6, r7, lr}
	ldr	r3, .L1498
	ldr	r3, [r3]
	lsls	r3, r3, #19
	bpl	.L1488
	movs	r3, #0
	movs	r2, #239
	ldr	r1, .L1498+4
	ldr	r0, .L1498+8
	bl	printf
.L1488:
	ldr	r6, .L1498+12
	mov	r2, #512
	ldr	r4, .L1498+16
	movs	r1, #255
	ldr	r0, .L1498+20
	bl	ftl_memset
	ldrh	r3, [r4]
	movs	r1, #255
	ldrb	r2, [r6]	@ zero_extendqisi2
	ldr	r5, .L1498+24
	muls	r2, r3, r2
	ldr	r0, [r5]
	lsls	r2, r2, #2
	bl	ftl_memset
	ldr	r3, .L1498+28
	movs	r2, #0
	ldrb	r6, [r6]	@ zero_extendqisi2
	ldr	ip, [r5]
	ldr	r7, [r3]
	ldr	r0, .L1498+20
.L1489:
	ldrh	r3, [r4]
	uxth	r5, r2
	mov	r1, r5
	muls	r3, r6, r3
	cmp	r5, r3, lsl #1
	blt	.L1491
	pop	{r3, r4, r5, r6, r7, pc}
.L1491:
	ldr	r3, [r7, r1, lsl #2]
	adds	r2, r2, #1
	cmp	r3, #-1
	itttt	ne
	uxtbne	r3, r3
	ldrhne	lr, [r0, r3, lsl #1]
	strhne	r5, [r0, r3, lsl #1]	@ movhi
	strhne	lr, [ip, r1, lsl #1]	@ movhi
	b	.L1489
.L1499:
	.align	2
.L1498:
	.word	.LANCHOR19
	.word	.LANCHOR147
	.word	.LC81
	.word	.LANCHOR79
	.word	.LANCHOR94
	.word	.LANCHOR116
	.word	.LANCHOR118
	.word	.LANCHOR117
	.size	lpa_rebuild_hash, .-lpa_rebuild_hash
	.section	.text.zftl_read_flash_info,"ax",%progbits
	.align	1
	.global	zftl_read_flash_info
	.syntax unified
	.thumb
	.thumb_func
	.fpu softvfp
	.type	zftl_read_flash_info, %function
zftl_read_flash_info:
	@ args = 0, pretend = 0, frame = 0
	@ frame_needed = 0, uses_anonymous_args = 0
	push	{r4, r5, r6, lr}
	movs	r2, #11
	movs	r1, #0
	mov	r4, r0
	bl	ftl_memset
	ldr	r1, .L1503
	movs	r2, #0
	ldr	r3, .L1503+4
	strb	r2, [r4, #10]
	ldrb	r0, [r1, #9]	@ zero_extendqisi2
	ldrh	r3, [r3]
	smulbb	r3, r3, r0
	uxth	r3, r3
	strb	r3, [r4, #4]
	lsrs	r3, r3, #8
	strb	r3, [r4, #5]
	ldr	r3, .L1503+8
	ldrb	r3, [r3]	@ zero_extendqisi2
	strb	r3, [r4, #7]
	ldr	r3, .L1503+12
	ldrb	r5, [r3]	@ zero_extendqisi2
	strb	r5, [r4]
	ldrb	r5, [r3, #1]	@ zero_extendqisi2
	strb	r5, [r4, #1]
	ldrb	r5, [r3, #2]	@ zero_extendqisi2
	ldrb	r3, [r3, #3]	@ zero_extendqisi2
	strb	r0, [r4, #6]
	strb	r5, [r4, #2]
	movs	r5, #1
	strb	r3, [r4, #3]
	movs	r3, #32
	strb	r3, [r4, #8]
	ldrb	r3, [r1, #7]	@ zero_extendqisi2
	ldr	r0, .L1503+16
	strb	r3, [r4, #9]
	ldr	r3, .L1503+20
	ldrb	r1, [r3]	@ zero_extendqisi2
	mov	r3, r2
.L1501:
	uxtb	r2, r3
	cmp	r1, r2
	bhi	.L1502
	pop	{r4, r5, r6, pc}
.L1502:
	ldrb	r2, [r3, r0]	@ zero_extendqisi2
	adds	r3, r3, #1
	ldrb	r6, [r4, #10]	@ zero_extendqisi2
	lsl	r2, r5, r2
	orrs	r2, r2, r6
	strb	r2, [r4, #10]
	b	.L1501
.L1504:
	.align	2
.L1503:
	.word	.LANCHOR32
	.word	.LANCHOR2
	.word	.LANCHOR49
	.word	.LANCHOR67
	.word	.LANCHOR29
	.word	.LANCHOR23
	.size	zftl_read_flash_info, .-zftl_read_flash_info
	.section	.text.gc_static_wearleveling,"ax",%progbits
	.align	1
	.global	gc_static_wearleveling
	.syntax unified
	.thumb
	.thumb_func
	.fpu softvfp
	.type	gc_static_wearleveling, %function
gc_static_wearleveling:
	@ args = 0, pretend = 0, frame = 32
	@ frame_needed = 0, uses_anonymous_args = 0
	ldr	r0, .L1624
	push	{r4, r5, r6, r7, r8, r10, fp, lr}
	sub	sp, sp, #48
	ldr	r3, [r0]
	ldr	r3, [r3, #32]
	cmp	r3, #10240
	bls	.L1506
	bl	ftl_tmp_into_update
.L1506:
	ldr	r3, .L1624+4
	ldr	r3, [r3]
	ldr	r2, [r3, #568]
	ldr	r1, [r3, #12]
	add	r4, r2, #35840
	adds	r4, r4, #160
	cmp	r1, r4
	bcs	.L1507
	ldr	r5, [r0]
	ldr	r4, [r3, #572]
	ldr	r5, [r5, #36]
	add	r4, r4, #256
	cmp	r5, r4
	bcc	.L1561
.L1507:
	add	r2, r2, #860160
	add	r2, r2, #3840
	cmp	r1, r2
	bhi	.L1509
	ldr	r4, [r0]
	ldr	r2, [r3, #572]
	ldr	r4, [r4, #36]
	adds	r2, r2, #32
	cmp	r4, r2
	bls	.L1562
.L1509:
	ldr	r2, [r0]
	movw	r4, #65535
	ldr	r10, .L1624+12
	mov	fp, r4
	movs	r5, #0
	ldrh	r7, [r2, #134]
	ldr	r0, [r2, #36]
	str	r5, [sp, #24]
	str	r1, [r3, #568]
	str	r0, [r3, #572]
	str	r5, [sp, #40]
	str	r5, [sp, #44]
	str	r5, [sp, #36]
	str	r5, [sp, #32]
	str	r5, [sp, #20]
	str	r5, [sp, #28]
.L1511:
	ldr	r3, .L1624+8
	ldrh	r3, [r3]
	cmp	r3, r7
	bhi	.L1522
	ldr	r7, .L1624+4
	movs	r3, #0
	movs	r1, #255
	movs	r2, #128
	ldr	r0, [r7]
	strh	r3, [r0, #122]	@ movhi
	add	r0, r0, #264
	bl	ftl_memset
	ldr	r3, [r7]
	ldrh	r7, [r3, #586]
	ldr	r3, .L1624+12
	ldr	r8, [r3]
	ldr	r3, .L1624+16
	ldr	r3, [r3]
	add	r10, r8, r7, lsl #2
	lsls	r1, r3, #21
	bpl	.L1523
	ldr	r1, .L1624+20
	ldr	r3, [r8, r7, lsl #2]
	ldrh	r2, [r8, r7, lsl #2]
	ldr	r1, [r1]
	ubfx	r3, r3, #11, #8
	ldr	r0, .L1624+24
	ubfx	r2, r2, #0, #11
	ldrh	r1, [r1, r7, lsl #1]
	str	r1, [sp, #12]
	ldrb	r1, [r10, #3]	@ zero_extendqisi2
	str	r1, [sp, #8]
	ldrb	r1, [r10, #2]	@ zero_extendqisi2
	lsrs	r1, r1, #5
	str	r1, [sp, #4]
	ldrb	r1, [r10, #2]	@ zero_extendqisi2
	ubfx	r1, r1, #3, #2
	str	r1, [sp]
	mov	r1, r7
	bl	printf
.L1523:
	ldrb	r3, [r10, #2]	@ zero_extendqisi2
	and	r1, r3, #224
	cmp	r1, #32
	bne	.L1524
	ldr	r2, .L1624
	ldr	r2, [r2]
	ldrh	r2, [r2, #688]
	cmp	r2, #2
	ittt	hi
	ldrhi	r2, .L1624+28
	movhi	r0, #1
	strhi	r0, [r2]
.L1524:
	lsls	r2, r3, #28
	bpl	.L1525
	ldr	r2, .L1624
	ldr	r2, [r2]
	ldrh	r0, [r2, #96]
	ldr	r2, .L1624+32
	ldrh	ip, [r2]
	ldrh	r2, [r8, r7, lsl #2]
	ubfx	r2, r2, #0, #11
	add	r2, r2, ip, lsr #2
	cmp	r0, r2
	ble	.L1525
	and	r3, r3, #192
	ldr	r7, .L1624+4
	cmp	r3, #64
	bne	.L1526
	ldr	r3, [r7]
	movs	r2, #1
	movs	r1, #0
	ldrh	r0, [r3, #586]
	bl	gc_add_sblk
	ldr	r3, .L1624+36
	movs	r2, #1
	strh	r2, [r3, #2180]	@ movhi
.L1525:
	ldr	r3, .L1624+4
	ldr	r3, [r3]
	ldrh	r7, [r3, #584]
	ldr	r3, .L1624+12
	ldr	r8, [r3]
	ldr	r3, .L1624+16
	ldr	r3, [r3]
	add	r10, r8, r7, lsl #2
	lsls	r6, r3, #21
	bpl	.L1527
	ldr	r1, .L1624+20
	ldr	r3, [r8, r7, lsl #2]
	ldrh	r2, [r8, r7, lsl #2]
	ldr	r1, [r1]
	ubfx	r3, r3, #11, #8
	ldr	r0, .L1624+40
	ubfx	r2, r2, #0, #11
	ldrh	r1, [r1, r7, lsl #1]
	str	r1, [sp, #12]
	ldrb	r1, [r10, #3]	@ zero_extendqisi2
	str	r1, [sp, #8]
	ldrb	r1, [r10, #2]	@ zero_extendqisi2
	lsrs	r1, r1, #5
	str	r1, [sp, #4]
	ldrb	r1, [r10, #2]	@ zero_extendqisi2
	ubfx	r1, r1, #3, #2
	str	r1, [sp]
	mov	r1, r7
	bl	printf
.L1527:
	ldrb	r3, [r10, #2]	@ zero_extendqisi2
	lsls	r0, r3, #28
	bpl	.L1528
	ldr	r2, .L1624
	ldr	r2, [r2]
	ldrh	r1, [r2, #98]
	ldr	r2, .L1624+44
	ldrh	r0, [r2]
	ldr	r2, [r8, r7, lsl #2]
	ubfx	r2, r2, #11, #8
	add	r2, r2, r0, lsr #2
	cmp	r1, r2
	ble	.L1528
	and	r2, r3, #192
	cmp	r2, #64
	bne	.L1529
	ldr	r3, .L1624+4
	movs	r2, #1
	movs	r1, #0
	ldr	r3, [r3]
	ldrh	r0, [r3, #584]
	bl	gc_add_sblk
	ldr	r3, .L1624+36
	movs	r2, #1
	strh	r2, [r3, #2180]	@ movhi
.L1528:
	ldr	r3, .L1624+16
	ldr	r3, [r3]
	lsls	r1, r3, #21
	bpl	.L1530
	ldr	r3, .L1624+12
	ldr	r1, .L1624+20
	ldr	r2, [r3]
	ldr	r1, [r1]
	ldr	r3, [r2, r5, lsl #2]
	ldrh	r1, [r1, r5, lsl #1]
	add	r0, r2, r5, lsl #2
	ldrh	r2, [r2, r5, lsl #2]
	ubfx	r3, r3, #11, #8
	str	r1, [sp, #12]
	ldrb	r1, [r0, #3]	@ zero_extendqisi2
	ubfx	r2, r2, #0, #11
	str	r1, [sp, #8]
	ldrb	r1, [r0, #2]	@ zero_extendqisi2
	lsrs	r1, r1, #5
	str	r1, [sp, #4]
	ldrb	r1, [r0, #2]	@ zero_extendqisi2
	ldr	r0, .L1624+48
	ubfx	r1, r1, #3, #2
	str	r1, [sp]
	mov	r1, r5
	bl	printf
.L1530:
	ldr	r3, .L1624+16
	ldr	r3, [r3]
	lsls	r2, r3, #21
	bpl	.L1531
	ldr	r3, .L1624+12
	ldr	r1, [sp, #24]
	ldr	r5, [sp, #24]
	ldr	r2, [r3]
	ldr	r3, [sp, #24]
	add	r0, r2, r3, lsl #2
	ldr	r3, [r2, r3, lsl #2]
	ldrh	r2, [r2, r1, lsl #2]
	ldr	r1, .L1624+20
	ubfx	r3, r3, #11, #8
	ubfx	r2, r2, #0, #11
	ldr	r1, [r1]
	ldrh	r1, [r1, r5, lsl #1]
	str	r1, [sp, #12]
	ldrb	r1, [r0, #3]	@ zero_extendqisi2
	str	r1, [sp, #8]
	ldrb	r1, [r0, #2]	@ zero_extendqisi2
	lsrs	r1, r1, #5
	str	r1, [sp, #4]
	ldrb	r1, [r0, #2]	@ zero_extendqisi2
	ldr	r0, .L1624+52
	ubfx	r1, r1, #3, #2
	str	r1, [sp]
	mov	r1, r5
	bl	printf
.L1531:
	ldr	r6, .L1624
	ldrh	r3, [sp, #20]
	ldr	r1, [sp, #32]
	ldr	r5, [r6]
	ldr	r0, [sp, #40]
	strh	r3, [r5, #96]	@ movhi
	ldrh	r3, [sp, #28]
	strh	r4, [r5, #92]	@ movhi
	strh	fp, [r5, #94]	@ movhi
	strh	r3, [r5, #98]	@ movhi
	bl	__aeabi_uidiv
	ldr	r1, [sp, #36]
	mov	r7, r0
	strh	r0, [r5, #88]	@ movhi
	ldr	r0, [sp, #44]
	bl	__aeabi_uidiv
	strh	r0, [r5, #90]	@ movhi
	ldr	r5, .L1624+16
	ldr	r3, [r5]
	lsls	r3, r3, #21
	bpl	.L1532
	uxth	r0, r0
	uxth	r3, r7
	ldr	r2, [sp, #36]
	str	r0, [sp]
	ldr	r1, [sp, #32]
	ldr	r0, .L1624+56
	bl	printf
.L1532:
	ldr	r3, [r5]
	ldr	r5, .L1624+44
	tst	r3, #1024
	beq	.L1533
	ldrh	r3, [r5]
	mov	r2, fp
	mov	r1, r4
	ldr	r0, .L1624+60
	str	r3, [sp, #8]
	b	.L1625
.L1626:
	.align	2
.L1624:
	.word	.LANCHOR110
	.word	.LANCHOR12
	.word	.LANCHOR8
	.word	.LANCHOR9
	.word	.LANCHOR19
	.word	.LANCHOR11
	.word	.LC83
	.word	.LANCHOR148
	.word	.LANCHOR149
	.word	.LANCHOR70
	.word	.LC84
	.word	.LANCHOR150
	.word	.LC85
	.word	.LC86
	.word	.LC87
	.word	.LC88
.L1625:
	ldr	r3, .L1627
	ldrh	r3, [r3]
	str	r3, [sp, #4]
	ldr	r3, [sp, #28]
	str	r3, [sp]
	ldr	r3, [sp, #20]
	bl	printf
.L1533:
	ldr	r3, [sp, #28]
	sub	r3, r3, fp
	str	r3, [sp, #24]
	ldr	r2, [sp, #24]
	ldrh	r3, [r5]
	cmp	r2, r3
	bgt	.L1534
	ldr	r2, .L1627
	ldr	r3, [sp, #20]
	ldrh	r2, [r2]
	subs	r3, r3, r4
	cmp	r3, r2
	ble	.L1563
.L1534:
	ldr	r3, .L1627+4
	mov	r8, #0
	ldr	r3, [r3]
	ldrh	r5, [r3, #580]
	ldr	r3, [r6]
	mov	r6, r8
	ldrh	r10, [r3, #134]
.L1536:
	ldr	r3, .L1627+8
	ldrh	r3, [r3]
	cmp	r10, r3
	bcc	.L1546
.L1545:
	ldr	r3, .L1627+4
	ldr	r3, [r3]
	str	r5, [r3, #580]
.L1535:
	cmp	fp, #0
	beq	.L1548
	ldr	r3, .L1627+12
	ldr	r1, [r3]
	ldr	r3, .L1627+8
	ldrh	r2, [r1, #134]
	ldrh	r7, [r3]
	ldr	r3, .L1627+16
	ldr	r3, [r3]
	add	r3, r3, r2, lsl #2
.L1549:
	cmp	r2, r7
	bcc	.L1551
	ldrh	r3, [r1, #72]
	add	r3, r3, fp
	strh	r3, [r1, #72]	@ movhi
	ldrh	r3, [r1, #98]
	cmp	fp, r3
	itt	cc
	subcc	r3, r3, fp
	strhcc	r3, [r1, #98]	@ movhi
.L1548:
	cbz	r4, .L1554
	ldr	r3, .L1627+12
	ldr	r1, [r3]
	ldr	r3, .L1627+8
	ldrh	r2, [r1, #134]
	ldrh	ip, [r3]
	ldr	r3, .L1627+16
	ldr	r3, [r3]
	add	r3, r3, r2, lsl #2
.L1555:
	cmp	r2, ip
	bcc	.L1557
	ldrh	r3, [r1, #74]
	add	r3, r3, r4
	strh	r3, [r1, #74]	@ movhi
	ldrh	r3, [r1, #96]
	cmp	r4, r3
	itt	cc
	subcc	r4, r3, r4
	strhcc	r4, [r1, #96]	@ movhi
.L1554:
	movs	r1, #0
	ldr	r0, .L1627+20
	bl	_list_get_gc_head_node
	movw	r2, #65535
	cmp	r0, r2
	beq	.L1510
	ldr	r2, .L1627+24
	ldr	r1, [r2]
	ldr	r2, .L1627+28
	ldrh	r3, [r1, r0, lsl #1]
	ldrh	r2, [r2]
	cmp	r3, r2, lsr #1
	bhi	.L1510
	adds	r6, r6, #1
	movs	r2, #1
	movs	r1, #0
	bl	gc_add_sblk
.L1510:
	add	r0, r6, r8
.L1505:
	add	sp, sp, #48
	@ sp needed
	pop	{r4, r5, r6, r7, r8, r10, fp, pc}
.L1522:
	ldr	r0, [r10]
	lsls	r1, r7, #2
	add	ip, r0, r1
	ldrb	r3, [ip, #2]	@ zero_extendqisi2
	and	r2, r3, #224
	cmp	r2, #224
	beq	.L1512
	ubfx	lr, r3, #3, #2
	tst	lr, #1
	beq	.L1513
	ldrh	r3, [r0, r1]
	ldr	r2, [r0, r1]
	ubfx	r3, r3, #0, #11
	ubfx	r2, r2, #11, #8
.L1514:
	ldr	r6, [sp, #32]
	cmp	r4, r3
	add	r8, r6, #1
	uxth	r6, r8
	str	r6, [sp, #32]
	ldr	r6, [sp, #40]
	add	r6, r6, r3
	str	r6, [sp, #40]
	bls	.L1560
	ldr	r4, .L1627+4
	ldr	r4, [r4]
	strh	r7, [r4, #586]	@ movhi
	mov	r4, r3
.L1560:
	ldr	r6, [sp, #20]
	movw	r8, #65535
	cmp	r6, r3
	itt	cc
	movcc	r5, r7
	strcc	r3, [sp, #20]
	cmp	r2, r8
	bne	.L1516
.L1518:
	cmp	r3, #9
	bls	.L1521
.L1512:
	adds	r7, r7, #1
	uxth	r7, r7
	b	.L1511
.L1513:
	tst	r3, #24
	bne	.L1515
	ldrh	r3, [r0, r1]
	movw	r2, #65535
	ubfx	r3, r3, #0, #11
	b	.L1514
.L1515:
	ldr	r3, [r0, r1]
	ubfx	r2, r3, #11, #8
	movw	r3, #65535
.L1516:
	ldr	r6, [sp, #36]
	cmp	fp, r2
	it	hi
	movhi	fp, r2
	add	r8, r6, #1
	uxth	r6, r8
	it	hi
	ldrhi	r8, .L1627+4
	str	r6, [sp, #36]
	ldr	r6, [sp, #44]
	it	hi
	ldrhi	r8, [r8]
	add	r6, r6, r2
	str	r6, [sp, #44]
	ldr	r6, [sp, #28]
	it	hi
	strhhi	r7, [r8, #584]	@ movhi
	cmp	r6, r2
	itt	cc
	strcc	r7, [sp, #24]
	strcc	r2, [sp, #28]
	cmp	r2, #9
	bhi	.L1518
.L1521:
	ldr	r3, .L1627+32
	ldr	r3, [r3]
	lsls	r6, r3, #23
	bpl	.L1512
	ldr	r3, [r0, r1]
	ldrh	r2, [r0, r1]
	ldr	r1, .L1627+24
	ubfx	r3, r3, #11, #8
	ldr	r0, .L1627+36
	ubfx	r2, r2, #0, #11
	ldr	r1, [r1]
	ldrh	r1, [r1, r7, lsl #1]
	str	r1, [sp, #12]
	ldrb	r1, [ip, #3]	@ zero_extendqisi2
	str	r1, [sp, #8]
	ldrb	r1, [ip, #2]	@ zero_extendqisi2
	str	lr, [sp]
	lsrs	r1, r1, #5
	str	r1, [sp, #4]
	mov	r1, r7
	bl	printf
	b	.L1512
.L1526:
	cmp	r1, #0
	bne	.L1525
	ldr	r3, [r7]
	movw	r2, #65535
	ldrh	r8, [r3, #590]
	cmp	r8, r2
	bne	.L1525
	ldrh	r0, [r3, #586]
	ldrh	r3, [r3, #588]
	cmp	r3, r0
	beq	.L1525
	bl	zftl_remove_free_node
	ldr	r3, [r7]
	ldrh	r2, [r3, #586]
	strh	r8, [r3, #586]	@ movhi
	strh	r2, [r3, #590]	@ movhi
	b	.L1525
.L1529:
	and	r3, r3, #248
	cmp	r3, #16
	bne	.L1528
	ldr	r8, .L1627+4
	movw	r2, #65535
	ldr	r3, [r8]
	ldrh	r7, [r3, #588]
	cmp	r7, r2
	bne	.L1528
	ldrh	r0, [r3, #584]
	ldrh	r3, [r3, #590]
	cmp	r3, r0
	beq	.L1528
	bl	zftl_remove_free_node
	ldr	r3, [r8]
	ldrh	r2, [r3, #584]
	strh	r7, [r3, #584]	@ movhi
	strh	r2, [r3, #588]	@ movhi
	b	.L1528
.L1628:
	.align	2
.L1627:
	.word	.LANCHOR149
	.word	.LANCHOR12
	.word	.LANCHOR8
	.word	.LANCHOR110
	.word	.LANCHOR9
	.word	.LANCHOR92
	.word	.LANCHOR11
	.word	.LANCHOR94
	.word	.LANCHOR19
	.word	.LC82
.L1546:
	adds	r5, r5, #1
	uxth	r5, r5
	cmp	r3, r5
	it	ls
	movls	r5, #0
	ldr	r3, .L1629
	lsls	r7, r5, #2
	ldr	r3, [r3]
	adds	r2, r3, r7
	ldrb	r2, [r2, #2]	@ zero_extendqisi2
	tst	r2, #192
	beq	.L1538
	and	r0, r2, #224
	cmp	r0, #224
	beq	.L1538
	ubfx	r2, r2, #3, #2
	ands	r1, r2, #1
	beq	.L1539
	cmp	r0, #160
.L1622:
	bne	.L1541
	ldr	r2, .L1629+4
	ldr	r0, [sp, #24]
	ldrh	r2, [r2]
	cmp	r0, r2
	ble	.L1542
	ldr	r2, [r3, r7]
	ubfx	r2, r2, #11, #8
	cmp	r2, fp
	bls	.L1543
	cbz	r1, .L1542
	ldrh	r2, [r3, r7]
	ubfx	r2, r2, #0, #11
	cmp	r2, r4
	bgt	.L1542
.L1543:
	movs	r2, #1
	movs	r1, #0
	mov	r0, r5
	str	r3, [sp, #28]
	bl	gc_add_sblk
	ldr	r0, .L1629+8
	movs	r2, #1
	add	r6, r6, r2
	ldr	r3, [sp, #28]
	strh	r2, [r0, #2180]	@ movhi
	ldr	r2, .L1629+12
	ldr	r2, [r2]
	tst	r2, #1024
	beq	.L1542
	ldr	r2, .L1629+16
	ldr	r1, [r3, r7]
	ldr	r2, [r2]
	ubfx	r1, r1, #11, #8
	ldrh	ip, [r2, r5, lsl #1]
	ldr	r2, .L1629
	ldr	r2, [r2]
	add	r2, r2, r7
	ldrb	r2, [r2, #2]	@ zero_extendqisi2
	str	r1, [sp, #8]
	ldrh	r1, [r3, r7]
	lsrs	r2, r2, #5
	ubfx	r1, r1, #0, #11
	str	r1, [sp, #4]
	mov	r1, r5
	ldrh	r3, [r0, #52]
	ldr	r0, .L1629+20
	str	r3, [sp]
	mov	r3, ip
.L1623:
	bl	printf
.L1542:
	cmp	r6, #4
	bhi	.L1545
	cmp	r8, #4
	bhi	.L1545
.L1538:
	add	r10, r10, #1
	uxth	r10, r10
	b	.L1536
.L1539:
	cmp	r2, #2
	b	.L1622
.L1541:
	ldr	r0, .L1629+24
	ldr	r2, [sp, #20]
	ldrh	r0, [r0]
	subs	r2, r2, r4
	cmp	r2, r0
	ble	.L1542
	ldrh	r2, [r3, r7]
	add	r0, r4, #8
	ubfx	r2, r2, #0, #11
	cmp	r2, r0
	ble	.L1544
	cmp	r1, #0
	beq	.L1542
	ldr	r2, [r3, r7]
	add	r1, fp, #4
	ubfx	r2, r2, #11, #8
	cmp	r2, r1
	bgt	.L1542
.L1544:
	movs	r2, #1
	movs	r1, #0
	mov	r0, r5
	str	r3, [sp, #28]
	bl	gc_add_sblk
	ldr	r0, .L1629+8
	movs	r2, #1
	add	r8, r8, r2
	ldr	r3, [sp, #28]
	strh	r2, [r0, #2180]	@ movhi
	ldr	r2, .L1629+12
	ldr	r2, [r2]
	tst	r2, #1024
	beq	.L1542
	ldr	r2, .L1629+16
	ldr	r1, [r3, r7]
	ldr	r2, [r2]
	ubfx	r1, r1, #11, #8
	ldrh	ip, [r2, r5, lsl #1]
	ldr	r2, .L1629
	ldr	r2, [r2]
	add	r2, r2, r7
	ldrb	r2, [r2, #2]	@ zero_extendqisi2
	str	r1, [sp, #8]
	ldrh	r1, [r3, r7]
	lsrs	r2, r2, #5
	ubfx	r1, r1, #0, #11
	str	r1, [sp, #4]
	mov	r1, r5
	ldrh	r3, [r0, #52]
	ldr	r0, .L1629+28
	str	r3, [sp]
	mov	r3, ip
	b	.L1623
.L1563:
	mov	r8, #0
	mov	r6, r8
	b	.L1535
.L1551:
	ldr	r0, [r3]
	ubfx	r5, r0, #11, #8
	cmp	fp, r5
	bhi	.L1550
	ldrb	ip, [r3, #2]	@ zero_extendqisi2
	tst	ip, #24
	ittt	ne
	subne	r5, r5, fp
	bfine	r0, r5, #11, #8
	strne	r0, [r3]
.L1550:
	adds	r2, r2, #1
	adds	r3, r3, #4
	uxth	r2, r2
	b	.L1549
.L1557:
	ldrh	r0, [r3]
	ubfx	r5, r0, #0, #11
	cmp	r5, r4
	blt	.L1556
	ldrb	r7, [r3, #2]	@ zero_extendqisi2
	and	r7, r7, #24
	cmp	r7, #16
	ittt	ne
	subne	r5, r5, r4
	bfine	r0, r5, #0, #11
	strhne	r0, [r3]	@ movhi
.L1556:
	adds	r2, r2, #1
	adds	r3, r3, #4
	uxth	r2, r2
	b	.L1555
.L1562:
	mov	r8, #0
	mov	r6, r8
	b	.L1510
.L1561:
	movs	r0, #0
	b	.L1505
.L1630:
	.align	2
.L1629:
	.word	.LANCHOR9
	.word	.LANCHOR150
	.word	.LANCHOR70
	.word	.LANCHOR19
	.word	.LANCHOR11
	.word	.LC89
	.word	.LANCHOR149
	.word	.LC90
	.size	gc_static_wearleveling, .-gc_static_wearleveling
	.section	.text.zftl_sblk_list_init,"ax",%progbits
	.align	1
	.global	zftl_sblk_list_init
	.syntax unified
	.thumb
	.thumb_func
	.fpu softvfp
	.type	zftl_sblk_list_init, %function
zftl_sblk_list_init:
	@ args = 0, pretend = 0, frame = 24
	@ frame_needed = 0, uses_anonymous_args = 0
	push	{r4, r5, r6, r7, r8, r10, fp, lr}
	movs	r2, #6
	ldr	r8, .L1663+84
	sub	sp, sp, #24
	movs	r1, #0
	movs	r4, #0
	ldr	fp, .L1663+88
	ldrh	r3, [r8]
	ldr	r6, .L1663
	ldr	r0, [fp]
	ldr	r10, .L1663+80
	muls	r2, r3, r2
	ldr	r7, .L1663+4
	bl	ftl_memset
	ldr	r3, .L1663+8
	movs	r2, #32
	ldr	r1, .L1663+12
	mov	r0, #32768
	strh	r4, [r10]	@ movhi
	str	r4, [r3]
	ldr	r3, .L1663+16
	ldrh	r1, [r1]
	strh	r4, [r7]	@ movhi
	str	r4, [r3]
	ldr	r3, .L1663+20
	str	r4, [r3]
	ldr	r3, .L1663+24
	str	r4, [r3]
	ldr	r3, .L1663+28
	str	r4, [r3]
	ldr	r3, .L1663+32
	str	r4, [r3]
	ldr	r3, .L1663+36
	strh	r2, [r3]	@ movhi
	ldr	r2, .L1663+40
	ldr	r3, .L1663+44
	strh	r4, [r2]	@ movhi
	ldr	r2, .L1663+48
	strh	r4, [r3]	@ movhi
	str	r3, [sp, #4]
	strh	r4, [r2]	@ movhi
	ldr	r2, .L1663+52
	strh	r4, [r2]	@ movhi
	ldrb	r2, [r6]	@ zero_extendqisi2
	muls	r1, r2, r1
	bl	__aeabi_idiv
	ldr	r2, .L1663+56
	sxth	r3, r0
	str	fp, [sp, #12]
	mov	fp, r10
	str	r3, [sp]
	ldr	r1, [r2]
	ldr	r3, [sp, #4]
	ldr	r10, .L1663+92
	ldrsh	r5, [r1, #134]
	str	r8, [sp, #8]
	mov	r8, r3
	strh	r4, [r1, #146]	@ movhi
	str	r2, [sp, #16]
	str	r6, [sp, #20]
.L1632:
	ldr	r3, [sp, #8]
	ldrh	r3, [r3]
	cmp	r5, r3
	blt	.L1649
	ldr	r3, [sp, #16]
	ldrh	r2, [r8]
	ldr	r3, [r3]
	strh	r2, [r3, #114]	@ movhi
	ldrh	r2, [r7]
	strh	r2, [r3, #118]	@ movhi
	ldrh	r2, [fp]
	strh	r2, [r3, #116]	@ movhi
	ldr	r2, .L1663+40
	ldrh	r2, [r2]
	strh	r2, [r3, #122]	@ movhi
	ldr	r2, .L1663+48
	ldrh	r2, [r2]
	strh	r2, [r3, #120]	@ movhi
	ldr	r2, .L1663+52
	ldrh	r2, [r2]
	strh	r2, [r3, #124]	@ movhi
	add	sp, sp, #24
	@ sp needed
	pop	{r4, r5, r6, r7, r8, r10, fp, pc}
.L1649:
	ldr	r6, [r10]
	add	r6, r6, r5, lsl #2
	ldrb	r0, [r6, #3]	@ zero_extendqisi2
	cmp	r0, #0
	beq	.L1650
	ldr	r3, [sp, #20]
	ldrb	lr, [r3]	@ zero_extendqisi2
	ldr	r3, .L1663+56
	ldr	ip, [r3]
	ldr	r3, .L1663+12
	ldrh	r3, [r3]
	str	r3, [sp, #4]
	movs	r3, #0
	mov	r1, r3
.L1634:
	cmp	r3, lr
	blt	.L1637
	cmp	r1, #0
	beq	.L1638
	mov	r0, #32768
	bl	__aeabi_idiv
	adds	r1, r0, #1
	sxth	r1, r1
.L1633:
	ldr	r3, [sp, #12]
	lsls	r0, r5, #1
	adds	r2, r0, r5
	ldr	r3, [r3]
	add	ip, r3, r2, lsl #1
	strh	r1, [ip, #4]	@ movhi
	movw	r1, #65535
	strh	r1, [ip, #2]	@ movhi
	strh	r1, [r3, r2, lsl #1]	@ movhi
	ldrb	r3, [r6, #2]	@ zero_extendqisi2
	and	r3, r3, #224
	cmp	r3, #32
	beq	.L1639
	cmp	r3, #224
	beq	.L1639
	ldr	r2, .L1663+60
	ldr	r2, [r2]
	ldrh	r1, [r2, #16]
	cmp	r5, r1
	beq	.L1639
	ldrh	r1, [r2, #48]
	cmp	r5, r1
	beq	.L1639
	ldrh	r2, [r2, #80]
	cmp	r5, r2
	beq	.L1639
	cmp	r3, #64
	bne	.L1640
	ldr	r2, .L1663+40
	uxth	r1, r5
	ldr	r0, .L1663+28
.L1661:
	bl	_insert_data_list
.L1639:
	adds	r5, r5, #1
	sxth	r5, r5
	b	.L1632
.L1637:
	asr	r2, r0, r3
	adds	r3, r3, #1
	lsls	r2, r2, #31
	itete	mi
	ldrhmi	r2, [ip, #146]
	ldrpl	r2, [sp, #4]
	addmi	r2, r2, #1
	addpl	r1, r1, r2
	ite	mi
	strhmi	r2, [ip, #146]	@ movhi
	sxthpl	r1, r1
	b	.L1634
.L1638:
	ldrb	r3, [r6, #2]	@ zero_extendqisi2
	movw	r2, #65535
	orr	r3, r3, #224
	strb	r3, [r6, #2]
	ldr	r3, .L1663+64
	ldr	r3, [r3]
	strh	r2, [r3, r5, lsl #1]	@ movhi
	b	.L1633
.L1650:
	ldr	r1, [sp]
	b	.L1633
.L1640:
	cmp	r3, #96
	bne	.L1641
	ldr	r2, .L1663+52
	uxth	r1, r5
	ldr	r0, .L1663+24
	b	.L1661
.L1641:
	cmp	r3, #160
	bne	.L1642
	ldr	r2, .L1663+48
	uxth	r1, r5
	ldr	r0, .L1663+32
	b	.L1661
.L1642:
	cmp	r3, #0
	bne	.L1639
	ldr	r3, .L1663+64
	ldr	r3, [r3]
	ldrh	r2, [r3, r0]
	cbz	r2, .L1643
	cmp	r4, #2
	bgt	.L1644
	mov	r1, r5
	ldr	r0, .L1663+68
	bl	printf
	ldrb	r3, [r6, #2]	@ zero_extendqisi2
	adds	r4, r4, #1
	movs	r1, #1
	uxth	r0, r5
	sxth	r4, r4
	lsls	r2, r3, #27
	ite	mi
	movmi	r2, #5
	movpl	r2, #2
	bfi	r3, r2, #5, #3
	movs	r2, #0
	strb	r3, [r6, #2]
	bl	gc_add_sblk
	b	.L1639
.L1644:
	mov	r2, #656
	ldr	r1, .L1663+72
	ldr	r0, .L1663+76
	bl	printf
.L1643:
	ldrb	r3, [r6, #2]	@ zero_extendqisi2
	uxth	r1, r5
	ands	r3, r3, #24
	bne	.L1647
	ldr	r2, .L1663+44
	ldr	r0, .L1663+8
.L1662:
	bl	_insert_free_list
	b	.L1639
.L1647:
	cmp	r3, #16
	ittee	eq
	ldreq	r2, .L1663+4
	ldreq	r0, .L1663+16
	ldrne	r2, .L1663+80
	ldrne	r0, .L1663+20
	b	.L1662
.L1664:
	.align	2
.L1663:
	.word	.LANCHOR79
	.word	.LANCHOR105
	.word	.LANCHOR104
	.word	.LANCHOR85
	.word	.LANCHOR106
	.word	.LANCHOR108
	.word	.LANCHOR90
	.word	.LANCHOR95
	.word	.LANCHOR92
	.word	.LANCHOR109
	.word	.LANCHOR97
	.word	.LANCHOR103
	.word	.LANCHOR91
	.word	.LANCHOR99
	.word	.LANCHOR110
	.word	.LANCHOR12
	.word	.LANCHOR11
	.word	.LC91
	.word	.LANCHOR151
	.word	.LC0
	.word	.LANCHOR107
	.word	.LANCHOR8
	.word	.LANCHOR4
	.word	.LANCHOR9
	.size	zftl_sblk_list_init, .-zftl_sblk_list_init
	.section	.text.pm_free_sblk,"ax",%progbits
	.align	1
	.global	pm_free_sblk
	.syntax unified
	.thumb
	.thumb_func
	.fpu softvfp
	.type	pm_free_sblk, %function
pm_free_sblk:
	@ args = 0, pretend = 0, frame = 272
	@ frame_needed = 0, uses_anonymous_args = 0
	push	{r4, r5, r6, r7, r8, r10, fp, lr}
	sub	sp, sp, #280
	ldr	r5, .L1690
	ldrh	r2, [r5]
	cmp	r2, #128
	bls	.L1666
	movs	r2, #94
	ldr	r1, .L1690+4
	ldr	r0, .L1690+8
	bl	printf
.L1666:
	ldr	r4, .L1690+12
	movs	r2, #0
	ldrh	r5, [r5]
	mov	r3, r2
	movw	r6, #65535
	ldr	r1, [r4]
	ldrh	r0, [r1, #688]
	add	r1, r1, #416
.L1669:
	ldrh	r7, [r1], #2
	cmp	r7, r6
	itt	ne
	addne	r2, r2, #1
	uxthne	r2, r2
	cmp	r2, r0
	bcs	.L1668
	cmp	r2, r5
	bcs	.L1668
	adds	r3, r3, #1
	uxth	r3, r3
	cmp	r3, #128
	bne	.L1669
.L1668:
	adds	r3, r3, #1
	mov	r2, #256
	uxth	r3, r3
	movs	r1, #0
	add	r0, sp, #24
	cmp	r3, #129
	mov	r5, #1
	it	eq
	moveq	r3, #128
	movs	r6, #0
	str	r3, [sp, #8]
	add	fp, sp, #24
	bl	ftl_memset
	ldr	r2, .L1690+16
	ldr	r7, [r4]
	ldrh	r8, [r2]
	ldr	r2, .L1690+20
	add	r10, r7, #704
	ldrh	r3, [r7, #698]
	ldrb	r2, [r2]	@ zero_extendqisi2
	rsb	r2, r2, #24
	sub	r2, r2, r8
	lsls	r5, r5, r2
	ldr	r2, .L1690+24
	subs	r5, r5, #1
	ldrb	r2, [r2]	@ zero_extendqisi2
.L1671:
	uxth	r1, r6
	cmp	r3, r1
	bhi	.L1674
	ldr	r3, .L1690+28
	movs	r5, #0
	ldr	r2, .L1690+32
	movw	r10, #65535
	mov	r8, r5
	ldrb	r6, [r3]	@ zero_extendqisi2
	ldrh	r2, [r2]
	str	r3, [sp, #12]
	smulbb	r6, r6, r2
	uxth	r6, r6
.L1680:
	ldr	r2, [r4]
	add	r7, r5, #208
	uxth	fp, r5
	ldrh	r3, [r2, r7, lsl #1]
	ldrh	r0, [r2, #692]
	str	r2, [sp, #16]
	str	r3, [sp, #20]
	ldr	r3, .L1690+24
	ldrb	r1, [r3]	@ zero_extendqisi2
	bl	__aeabi_idiv
	ldr	r3, [sp, #20]
	ldr	r2, [sp, #16]
	cmp	r0, r3
	bne	.L1675
	ldr	r1, [sp, #12]
	ldr	r0, .L1690+32
	ldrb	r1, [r1]	@ zero_extendqisi2
	ldrh	r0, [r0]
	smulbb	r1, r1, r0
	add	r0, sp, #24
	strh	r1, [r0, r5, lsl #1]	@ movhi
.L1675:
	add	r1, sp, #24
	ldrh	r1, [r1, r5, lsl #1]
	cmp	r1, r6
	bcs	.L1676
	cmp	r1, #0
	itt	ne
	movne	r8, fp
	movne	r6, r1
.L1676:
	ldrh	r0, [r2, #74]
	cmp	r0, #2
	bls	.L1677
	movw	r0, #65535
	cmp	r3, r0
	beq	.L1677
	ldr	r0, .L1690+36
	ldrh	r2, [r2, #92]
	ldr	r0, [r0]
	adds	r2, r2, #4
	ldrh	r0, [r0, r3, lsl #2]
	ubfx	r0, r0, #0, #11
	cmp	r0, r2
	bgt	.L1677
	mov	r10, fp
	str	r0, [sp]
	mov	r2, r1
	ldr	r0, .L1690+40
	mov	r1, r5
	bl	printf
.L1677:
	add	r3, sp, #24
	ldrh	r2, [r3, r5, lsl #1]
	cbnz	r2, .L1678
	ldr	r1, [r4]
	movw	r0, #65535
	ldrh	r3, [r1, r7, lsl #1]
	cmp	r3, r0
	beq	.L1678
	ldr	r0, .L1690+44
	ldr	r0, [r0]
	lsls	r0, r0, #19
	bpl	.L1679
	ldrh	r1, [r1, #688]
	ldr	r0, .L1690+48
	str	r1, [sp]
	mov	r1, r5
	bl	printf
.L1679:
	ldr	r3, [r4]
	ldrh	r0, [r3, r7, lsl #1]
	bl	ftl_free_sblk
	ldr	r3, [r4]
	movw	r2, #65535
	strh	r2, [r3, r7, lsl #1]	@ movhi
	ldrh	r2, [r3, #688]
	subs	r2, r2, #1
	strh	r2, [r3, #688]	@ movhi
.L1678:
	adds	r5, r5, #1
	ldr	r2, [sp, #8]
	uxth	r3, r5
	cmp	r3, r2
	bcc	.L1680
	movw	r0, #65535
	cmp	r10, r0
	ite	ne
	movne	r0, r10
	moveq	r0, r8
	add	sp, sp, #280
	@ sp needed
	pop	{r4, r5, r6, r7, r8, r10, fp, pc}
.L1674:
	ldr	r0, [r10], #4
	mov	r1, r2
	str	r3, [sp, #20]
	str	r2, [sp, #16]
	lsr	r0, r0, r8
	ands	r0, r0, r5
	bl	__aeabi_uidiv
	uxth	r3, r0
	ldr	r2, [sp, #16]
	add	lr, r7, #416
	str	r3, [sp, #12]
	movs	r1, #0
	ldr	r3, [sp, #20]
.L1673:
	ldrh	ip, [lr], #2
	ldr	r0, [sp, #12]
	cmp	r0, ip
	ldr	r0, [sp, #8]
	ittt	eq
	ldrheq	ip, [fp, r1, lsl #1]
	addeq	ip, ip, #1
	strheq	ip, [fp, r1, lsl #1]	@ movhi
	adds	r1, r1, #1
	uxth	ip, r1
	cmp	r0, ip
	bhi	.L1673
	adds	r6, r6, #1
	b	.L1671
.L1691:
	.align	2
.L1690:
	.word	.LANCHOR152
	.word	.LANCHOR153
	.word	.LC0
	.word	.LANCHOR110
	.word	.LANCHOR74
	.word	.LANCHOR31
	.word	.LANCHOR75
	.word	.LANCHOR79
	.word	.LANCHOR94
	.word	.LANCHOR9
	.word	.LC92
	.word	.LANCHOR19
	.word	.LC93
	.size	pm_free_sblk, .-pm_free_sblk
	.section	.text.ftl_memcpy,"ax",%progbits
	.align	1
	.global	ftl_memcpy
	.syntax unified
	.thumb
	.thumb_func
	.fpu softvfp
	.type	ftl_memcpy, %function
ftl_memcpy:
	@ args = 0, pretend = 0, frame = 0
	@ frame_needed = 0, uses_anonymous_args = 0
	@ link register save eliminated.
	b	memcpy
	.size	ftl_memcpy, .-ftl_memcpy
	.section	.text.flash_info_data_init,"ax",%progbits
	.align	1
	.global	flash_info_data_init
	.syntax unified
	.thumb
	.thumb_func
	.fpu softvfp
	.type	flash_info_data_init, %function
flash_info_data_init:
	@ args = 0, pretend = 0, frame = 0
	@ frame_needed = 0, uses_anonymous_args = 0
	ldr	r3, .L1698
	push	{r4, lr}
	ldr	r3, [r3]
	lsls	r3, r3, #19
	bpl	.L1694
	ldr	r2, .L1698+4
	movs	r1, #120
	ldr	r0, .L1698+8
	bl	printf
.L1694:
	ldr	r4, .L1698+12
	mov	r2, #2048
	movs	r1, #0
	ldr	r0, [r4]
	bl	ftl_memset
	ldr	r0, [r4]
	movs	r2, #32
	ldr	r3, .L1698+16
	ldr	r1, .L1698+20
	adds	r0, r0, #80
	str	r3, [r0, #-80]
	mov	r3, #2032
	str	r3, [r0, #-72]
	movs	r3, #1
	strh	r3, [r0, #-64]	@ movhi
	bl	ftl_memcpy
	ldr	r0, [r4]
	movs	r2, #32
	ldr	r1, .L1698+24
	pop	{r4, lr}
	adds	r0, r0, #48
	b	ftl_memcpy
.L1699:
	.align	2
.L1698:
	.word	.LANCHOR19
	.word	.LANCHOR154
	.word	.LC94
	.word	.LANCHOR6
	.word	1398362953
	.word	.LANCHOR25
	.word	.LANCHOR32
	.size	flash_info_data_init, .-flash_info_data_init
	.section	.text.ftl_memcpy32,"ax",%progbits
	.align	1
	.global	ftl_memcpy32
	.syntax unified
	.thumb
	.thumb_func
	.fpu softvfp
	.type	ftl_memcpy32, %function
ftl_memcpy32:
	@ args = 0, pretend = 0, frame = 0
	@ frame_needed = 0, uses_anonymous_args = 0
	movs	r3, #0
	push	{r4, lr}
.L1701:
	cmp	r3, r2
	bne	.L1702
	pop	{r4, pc}
.L1702:
	ldr	r4, [r1, r3, lsl #2]
	str	r4, [r0, r3, lsl #2]
	adds	r3, r3, #1
	b	.L1701
	.size	ftl_memcpy32, .-ftl_memcpy32
	.section	.text.ftl_memcmp,"ax",%progbits
	.align	1
	.global	ftl_memcmp
	.syntax unified
	.thumb
	.thumb_func
	.fpu softvfp
	.type	ftl_memcmp, %function
ftl_memcmp:
	@ args = 0, pretend = 0, frame = 0
	@ frame_needed = 0, uses_anonymous_args = 0
	@ link register save eliminated.
	b	memcmp
	.size	ftl_memcmp, .-ftl_memcmp
	.section	.text.rknand_get_clk_rate,"ax",%progbits
	.align	1
	.global	rknand_get_clk_rate
	.syntax unified
	.thumb
	.thumb_func
	.fpu softvfp
	.type	rknand_get_clk_rate, %function
rknand_get_clk_rate:
	@ args = 0, pretend = 0, frame = 0
	@ frame_needed = 0, uses_anonymous_args = 0
	@ link register save eliminated.
	ldr	r0, .L1705
	bx	lr
.L1706:
	.align	2
.L1705:
	.word	148000000
	.size	rknand_get_clk_rate, .-rknand_get_clk_rate
	.section	.text.ftl_malloc,"ax",%progbits
	.align	1
	.global	ftl_malloc
	.syntax unified
	.thumb
	.thumb_func
	.fpu softvfp
	.type	ftl_malloc, %function
ftl_malloc:
	@ args = 0, pretend = 0, frame = 0
	@ frame_needed = 0, uses_anonymous_args = 0
	@ link register save eliminated.
	movs	r1, #0
	b	kmalloc
	.size	ftl_malloc, .-ftl_malloc
	.section	.text.nandc_init,"ax",%progbits
	.align	1
	.global	nandc_init
	.syntax unified
	.thumb
	.thumb_func
	.fpu softvfp
	.type	nandc_init, %function
nandc_init:
	@ args = 0, pretend = 0, frame = 8
	@ frame_needed = 0, uses_anonymous_args = 0
	push	{r4, r5, r6, r7, lr}
	movs	r3, #0
	ldr	r6, .L1727
	sub	sp, sp, #20
	mov	r4, r0
	str	r3, [sp, #12]
	ldr	r3, [r6]
	lsls	r0, r3, #19
	bpl	.L1709
	mov	r2, r4
	ldr	r1, .L1727+4
	ldr	r0, .L1727+8
	bl	printf
.L1709:
	ldr	r1, [r4, #352]
	movs	r3, #6
	ldr	r2, .L1727+12
	ldr	r5, .L1727+16
	ldr	r7, .L1727+20
	cmp	r1, r2
	ldr	r2, [r4, #128]
	strb	r3, [r5]
	itt	eq
	moveq	r3, #8
	strbeq	r3, [r5]
	ldr	r3, .L1727+24
	str	r4, [r7]
	cmp	r2, r3
	ldr	r2, .L1727+28
	itt	eq
	moveq	r3, #9
	strbeq	r3, [r5]
	ldrb	r3, [r5]	@ zero_extendqisi2
	cmp	r3, #9
	ldr	r3, .L1727+32
	bne	.L1712
	movs	r1, #1
	strb	r1, [r3]
	movs	r1, #2
	ldr	r3, [sp, #12]
	orr	r3, r3, #256
	str	r3, [sp, #12]
	ldr	r3, [sp, #12]
	bfi	r3, r1, #18, #3
	str	r3, [sp, #12]
	ldr	r3, [sp, #12]
	str	r3, [r4]
	movs	r3, #0
	str	r3, [r4, #520]
	movw	r3, #4161
	str	r3, [r4, #4]
	movw	r3, #8321
	str	r3, [r4, #8]
	movs	r3, #38
	str	r2, [r4, #80]
	str	r3, [r4, #84]
	movs	r3, #39
	str	r3, [r4, #84]
	ldr	r3, [r6]
	lsls	r1, r3, #19
	bpl	.L1714
	ldr	r1, [r4]
	ldr	r2, [r4, #8]
	ldr	r3, [r4, #80]
	ldr	r0, [r4, #84]
	ldr	r4, [r4, #88]
	stm	sp, {r0, r4}
.L1726:
	ldr	r0, .L1727+36
	bl	printf
.L1714:
	ldr	r3, .L1727+40
	movs	r2, #1
	strb	r2, [r3]
	movs	r3, #0
	ldr	r2, .L1727+44
	strh	r3, [r2]	@ movhi
	ldr	r2, .L1727+48
	strb	r3, [r2]
	ldr	r3, [r6]
	lsls	r3, r3, #19
	bpl	.L1708
	ldrb	r1, [r5]	@ zero_extendqisi2
	ldr	r0, .L1727+52
	bl	printf
.L1708:
	add	sp, sp, #20
	@ sp needed
	pop	{r4, r5, r6, r7, pc}
.L1712:
	movs	r1, #0
	movs	r0, #1
	strb	r1, [r3]
	ldr	r3, [sp, #12]
	orr	r3, r3, #256
	str	r3, [sp, #12]
	ldr	r3, [sp, #12]
	bfi	r3, r0, #24, #3
	mov	r0, #2048
	str	r3, [sp, #12]
	ldr	r3, [sp, #12]
	str	r3, [r4]
	movw	r3, #4193
	str	r1, [r4, #336]
	str	r3, [r4, #4]
	movw	r3, #8321
	str	r3, [r4, #344]
	movs	r3, #38
	str	r2, [r4, #304]
	str	r3, [r4, #308]
	movs	r3, #39
	str	r3, [r4, #308]
	bl	ftl_malloc
	ldr	r3, .L1727+56
	str	r0, [r3]
	ldr	r3, [r6]
	lsls	r2, r3, #19
	bpl	.L1714
	ldr	r0, [r7]
	ldr	r1, [r0]
	ldr	r2, [r0, #344]
	ldr	r3, [r0, #304]
	ldr	r4, [r0, #308]
	ldr	r0, [r0, #312]
	str	r4, [sp]
	str	r0, [sp, #4]
	b	.L1726
.L1728:
	.align	2
.L1727:
	.word	.LANCHOR19
	.word	.LANCHOR155
	.word	.LC95
	.word	1446522928
	.word	.LANCHOR27
	.word	.LANCHOR7
	.word	1446588464
	.word	1052675
	.word	.LANCHOR50
	.word	.LC96
	.word	.LANCHOR51
	.word	.LANCHOR53
	.word	.LANCHOR49
	.word	.LC97
	.word	.LANCHOR52
	.size	nandc_init, .-nandc_init
	.section	.text.zbuf_init,"ax",%progbits
	.align	1
	.global	zbuf_init
	.syntax unified
	.thumb
	.thumb_func
	.fpu softvfp
	.type	zbuf_init, %function
zbuf_init:
	@ args = 0, pretend = 0, frame = 0
	@ frame_needed = 0, uses_anonymous_args = 0
	push	{r4, r5, r6, r7, r8, lr}
	movs	r5, #0
	ldr	r4, .L1732
	mov	r6, r5
	ldr	r8, .L1732+12
	mov	r7, r4
.L1730:
	ldrb	r0, [r8]	@ zero_extendqisi2
	uxtb	r3, r5
	strb	r6, [r4, #2]
	adds	r5, r5, #1
	adds	r2, r3, #1
	strb	r3, [r4, #1]
	strb	r2, [r4]
	adds	r4, r4, #48
	str	r6, [r4, #-40]
	lsls	r0, r0, #9
	bl	ftl_malloc
	str	r0, [r4, #-44]
	movs	r0, #64
	bl	ftl_malloc
	cmp	r5, #32
	str	r0, [r4, #-36]
	bne	.L1730
	movs	r3, #255
	strb	r3, [r7, #1488]
	ldr	r3, .L1732+4
	strb	r6, [r3]
	ldr	r3, .L1732+8
	strb	r5, [r3]
	pop	{r4, r5, r6, r7, r8, pc}
.L1733:
	.align	2
.L1732:
	.word	.LANCHOR55
	.word	.LANCHOR56
	.word	.LANCHOR57
	.word	.LANCHOR131
	.size	zbuf_init, .-zbuf_init
	.section	.text.gc_init,"ax",%progbits
	.align	1
	.global	gc_init
	.syntax unified
	.thumb
	.thumb_func
	.fpu softvfp
	.type	gc_init, %function
gc_init:
	@ args = 0, pretend = 0, frame = 0
	@ frame_needed = 0, uses_anonymous_args = 0
	ldr	r3, .L1735
	movw	r2, #2204
	push	{r4, r5, r6, lr}
	movs	r4, #0
	ldr	r5, .L1735+4
	mov	r1, r4
	strb	r4, [r3]
	ldr	r3, .L1735+8
	mov	r0, r5
	strb	r4, [r3]
	ldr	r3, .L1735+12
	str	r4, [r3]
	ldr	r3, .L1735+16
	strh	r4, [r3]	@ movhi
	bl	ftl_memset
	movw	r3, #65535
	str	r4, [r5, #8]
	strh	r3, [r5]	@ movhi
	ldr	r3, .L1735+20
	ldrh	r3, [r3]
	lsrs	r2, r3, #1
	lsrs	r1, r3, #2
	strh	r2, [r5, #34]	@ movhi
	ldr	r2, .L1735+24
	strh	r1, [r5, #32]	@ movhi
	ldr	r5, .L1735+28
	strh	r4, [r2]	@ movhi
	ldr	r2, .L1735+32
	strh	r4, [r2]	@ movhi
	ldr	r2, .L1735+36
	strh	r4, [r2]	@ movhi
	ldr	r4, .L1735+40
	ldrb	r0, [r4]	@ zero_extendqisi2
	smulbb	r2, r0, r3
	uxth	r2, r2
	sub	r6, r2, #32
	strh	r6, [r5]	@ movhi
	ldr	r5, .L1735+44
	strh	r2, [r5]	@ movhi
	ldr	r2, .L1735+48
	ldr	r5, .L1735+52
	strh	r3, [r2]	@ movhi
	movs	r2, #4
	ldr	r3, .L1735+56
	strh	r2, [r3]	@ movhi
	ldr	r3, .L1735+60
	strh	r1, [r3]	@ movhi
	ldrh	r3, [r5]
	muls	r0, r3, r0
	lsls	r0, r0, #2
	bl	ftl_malloc
	ldr	r3, .L1735+64
	str	r0, [r3]
	ldrh	r3, [r5]
	ldrb	r0, [r4]	@ zero_extendqisi2
	muls	r0, r3, r0
	lsls	r0, r0, #2
	bl	ftl_malloc
	ldr	r3, .L1735+68
	str	r0, [r3]
	ldrh	r3, [r5]
	ldrb	r0, [r4]	@ zero_extendqisi2
	muls	r0, r3, r0
	bl	ftl_malloc
	ldr	r3, .L1735+72
	str	r0, [r3]
	ldrh	r3, [r5]
	ldrb	r0, [r4]	@ zero_extendqisi2
	muls	r0, r3, r0
	lsls	r0, r0, #2
	bl	ftl_malloc
	ldr	r3, .L1735+76
	str	r0, [r3]
	ldrh	r3, [r5]
	ldrb	r0, [r4]	@ zero_extendqisi2
	muls	r0, r3, r0
	lsls	r0, r0, #2
	bl	ftl_malloc
	ldr	r3, .L1735+80
	ldr	r2, .L1735+84
	str	r0, [r3]
	ldr	r3, .L1735+88
	ldrh	r3, [r3]
	lsrs	r3, r3, #2
	strh	r3, [r2]	@ movhi
	pop	{r4, r5, r6, pc}
.L1736:
	.align	2
.L1735:
	.word	.LANCHOR84
	.word	.LANCHOR70
	.word	.LANCHOR156
	.word	.LANCHOR157
	.word	.LANCHOR96
	.word	.LANCHOR94
	.word	.LANCHOR87
	.word	.LANCHOR102
	.word	.LANCHOR88
	.word	.LANCHOR89
	.word	.LANCHOR79
	.word	.LANCHOR100
	.word	.LANCHOR93
	.word	.LANCHOR85
	.word	.LANCHOR158
	.word	.LANCHOR69
	.word	.LANCHOR159
	.word	.LANCHOR160
	.word	.LANCHOR82
	.word	.LANCHOR76
	.word	.LANCHOR161
	.word	.LANCHOR86
	.word	.LANCHOR98
	.size	gc_init, .-gc_init
	.section	.text.ftl_free,"ax",%progbits
	.align	1
	.global	ftl_free
	.syntax unified
	.thumb
	.thumb_func
	.fpu softvfp
	.type	ftl_free, %function
ftl_free:
	@ args = 0, pretend = 0, frame = 0
	@ frame_needed = 0, uses_anonymous_args = 0
	@ link register save eliminated.
	b	free
	.size	ftl_free, .-ftl_free
	.section	.text.js_hash,"ax",%progbits
	.align	1
	.global	js_hash
	.syntax unified
	.thumb
	.thumb_func
	.fpu softvfp
	.type	js_hash, %function
js_hash:
	@ args = 0, pretend = 0, frame = 0
	@ frame_needed = 0, uses_anonymous_args = 0
	ldr	r3, .L1741
	add	r1, r1, r0
	push	{r4, lr}
.L1739:
	cmp	r0, r1
	bne	.L1740
	mov	r0, r3
	pop	{r4, pc}
.L1740:
	lsrs	r2, r3, #2
	ldrb	r4, [r0], #1	@ zero_extendqisi2
	add	r2, r2, r3, lsl #5
	add	r2, r2, r4
	eors	r3, r3, r2
	b	.L1739
.L1742:
	.align	2
.L1741:
	.word	1204201446
	.size	js_hash, .-js_hash
	.section	.text.ftl_debug_info_fill,"ax",%progbits
	.align	1
	.global	ftl_debug_info_fill
	.syntax unified
	.thumb
	.thumb_func
	.fpu softvfp
	.type	ftl_debug_info_fill, %function
ftl_debug_info_fill:
	@ args = 0, pretend = 0, frame = 0
	@ frame_needed = 0, uses_anonymous_args = 0
	ldr	r3, .L1749
	push	{r4, lr}
	mov	r4, r1
	ldrb	r3, [r3]	@ zero_extendqisi2
	cmp	r3, #8
	bls	.L1744
	cmp	r0, #2
	bne	.L1745
	cbz	r2, .L1745
	ldr	r3, .L1749+4
	mov	r0, r2
	str	r3, [r1]
	mov	r1, #1024
	bl	js_hash
	str	r0, [r4, #4]
.L1744:
	movs	r0, #0
	pop	{r4, pc}
.L1745:
	movs	r3, #0
	str	r3, [r4]
	str	r3, [r4, #4]
	b	.L1744
.L1750:
	.align	2
.L1749:
	.word	.LANCHOR131
	.word	1212240712
	.size	ftl_debug_info_fill, .-ftl_debug_info_fill
	.section	.text.timer_get_time,"ax",%progbits
	.align	1
	.global	timer_get_time
	.syntax unified
	.thumb
	.thumb_func
	.fpu softvfp
	.type	timer_get_time, %function
timer_get_time:
	@ args = 0, pretend = 0, frame = 0
	@ frame_needed = 0, uses_anonymous_args = 0
	@ link register save eliminated.
	movs	r0, #0
	bx	lr
	.size	timer_get_time, .-timer_get_time
	.section	.text.FlashCs123Init,"ax",%progbits
	.align	1
	.global	FlashCs123Init
	.syntax unified
	.thumb
	.thumb_func
	.fpu softvfp
	.type	FlashCs123Init, %function
FlashCs123Init:
	@ args = 0, pretend = 0, frame = 0
	@ frame_needed = 0, uses_anonymous_args = 0
	@ link register save eliminated.
	bx	lr
	.size	FlashCs123Init, .-FlashCs123Init
	.section	.text.rk_nand_de_init,"ax",%progbits
	.align	1
	.global	rk_nand_de_init
	.syntax unified
	.thumb
	.thumb_func
	.fpu softvfp
	.type	rk_nand_de_init, %function
rk_nand_de_init:
	@ args = 0, pretend = 0, frame = 0
	@ frame_needed = 0, uses_anonymous_args = 0
	@ link register save eliminated.
	b	zftl_flash_de_init
	.size	rk_nand_de_init, .-rk_nand_de_init
	.section	.text.ftl_get_density,"ax",%progbits
	.align	1
	.global	ftl_get_density
	.syntax unified
	.thumb
	.thumb_func
	.fpu softvfp
	.type	ftl_get_density, %function
ftl_get_density:
	@ args = 0, pretend = 0, frame = 0
	@ frame_needed = 0, uses_anonymous_args = 0
	@ link register save eliminated.
	b	zftl_get_density
	.size	ftl_get_density, .-ftl_get_density
	.section	.text.ftl_get_capacity,"ax",%progbits
	.align	1
	.global	ftl_get_capacity
	.syntax unified
	.thumb
	.thumb_func
	.fpu softvfp
	.type	ftl_get_capacity, %function
ftl_get_capacity:
	@ args = 0, pretend = 0, frame = 0
	@ frame_needed = 0, uses_anonymous_args = 0
	@ link register save eliminated.
	ldr	r3, .L1756
	ldr	r0, [r3]
	bx	lr
.L1757:
	.align	2
.L1756:
	.word	.LANCHOR67
	.size	ftl_get_capacity, .-ftl_get_capacity
	.section	.text.rknand_print_hex,"ax",%progbits
	.align	1
	.global	rknand_print_hex
	.syntax unified
	.thumb
	.thumb_func
	.fpu softvfp
	.type	rknand_print_hex, %function
rknand_print_hex:
	@ args = 0, pretend = 0, frame = 8
	@ frame_needed = 0, uses_anonymous_args = 0
	push	{r0, r1, r4, r5, r6, r7, r8, r10, fp, lr}
	movs	r6, #0
	ldr	r10, .L1767+12
	mov	r7, r1
	mov	r8, r2
	mov	fp, r3
	mov	r5, r6
	mov	r4, r6
	str	r0, [sp, #4]
.L1759:
	cmp	r4, fp
	bne	.L1765
	ldr	r1, .L1767
	ldr	r0, .L1767+4
	add	sp, sp, #8
	@ sp needed
	pop	{r4, r5, r6, r7, r8, r10, fp, lr}
	b	printf
.L1765:
	cbnz	r5, .L1760
	mov	r3, r6
	mov	r2, r7
	ldr	r1, [sp, #4]
	ldr	r0, .L1767+8
	bl	printf
.L1760:
	cmp	r8, #4
	bne	.L1761
	ldr	r1, [r7, r4, lsl #2]
.L1766:
	mov	r0, r10
	adds	r5, r5, #1
	bl	printf
	cmp	r5, #15
	bls	.L1764
	movs	r5, #0
	ldr	r1, .L1767
	ldr	r0, .L1767+4
	bl	printf
.L1764:
	adds	r4, r4, #1
	add	r6, r6, r8
	b	.L1759
.L1761:
	cmp	r8, #2
	ite	eq
	ldrsheq	r1, [r7, r4, lsl #1]
	ldrbne	r1, [r7, r4]	@ zero_extendqisi2
	b	.L1766
.L1768:
	.align	2
.L1767:
	.word	.LC100
	.word	.LC101
	.word	.LC98
	.word	.LC99
	.size	rknand_print_hex, .-rknand_print_hex
	.section	.text.hynix_get_read_retry_default,"ax",%progbits
	.align	1
	.global	hynix_get_read_retry_default
	.syntax unified
	.thumb
	.thumb_func
	.fpu softvfp
	.type	hynix_get_read_retry_default, %function
hynix_get_read_retry_default:
	@ args = 0, pretend = 0, frame = 56
	@ frame_needed = 0, uses_anonymous_args = 0
	ldr	r3, .L1880
	cmp	r0, #2
	push	{r4, r5, r6, r7, r8, r10, fp, lr}
	sub	sp, sp, #56
	mov	r1, #173
	mov	r2, #174
	mov	r4, r0
	ldr	fp, [r3]
	add	r3, fp, #128
	strb	r0, [fp, #112]
	str	r3, [sp]
	mov	r3, #172
	strb	r3, [fp, #128]
	mov	r3, #175
	strb	r1, [fp, #129]
	strb	r2, [fp, #130]
	strb	r3, [fp, #131]
	bne	.L1770
	movs	r3, #167
	mov	r8, #7
	strb	r3, [fp, #128]
	movs	r2, #247
	ldr	r3, .L1880+4
	strb	r2, [r3, #17]
.L1874:
	mov	r10, #4
	b	.L1771
.L1770:
	cmp	r0, #3
	bne	.L1772
	add	r2, fp, #127
	movs	r3, #176
.L1773:
	strb	r3, [r2, #1]!
	adds	r3, r3, #1
	uxtb	r3, r3
	cmp	r3, #184
	bne	.L1773
.L1875:
	mov	r8, #8
	mov	r10, r8
.L1771:
	subs	r3, r4, #1
	cmp	r3, #1
	bhi	.L1779
	movs	r6, #0
.L1780:
	ldr	r3, .L1880+8
	uxtb	r2, r6
	ldrb	r1, [r3]	@ zero_extendqisi2
	cmp	r1, r2
	bhi	.L1785
.L1786:
	strb	r10, [fp, #113]
	strb	r8, [fp, #114]
	add	sp, sp, #56
	@ sp needed
	pop	{r4, r5, r6, r7, r8, r10, fp, pc}
.L1772:
	cmp	r0, #4
	bne	.L1774
	movs	r0, #204
	strb	r1, [fp, #133]
	strb	r0, [fp, #128]
	movs	r0, #191
	strb	r0, [fp, #129]
	movs	r0, #170
	strb	r0, [fp, #130]
	movs	r0, #171
	strb	r0, [fp, #131]
	movs	r0, #205
	strb	r0, [fp, #132]
	strb	r2, [fp, #134]
	strb	r3, [fp, #135]
	b	.L1875
.L1774:
	cmp	r0, #5
	bne	.L1775
	movs	r3, #56
	mov	r8, #8
	strb	r3, [fp, #128]
	movs	r3, #57
	strb	r3, [fp, #129]
	movs	r3, #58
	strb	r3, [fp, #130]
	movs	r3, #59
	strb	r3, [fp, #131]
	b	.L1874
.L1775:
	cmp	r0, #6
	bne	.L1776
	movs	r3, #14
	mov	r8, #12
	strb	r3, [fp, #128]
	movs	r3, #15
	strb	r3, [fp, #129]
	movs	r3, #16
	strb	r3, [fp, #130]
	movs	r3, #17
	strb	r3, [fp, #131]
	b	.L1874
.L1776:
	cmp	r0, #7
	bne	.L1777
	add	r2, fp, #127
	movs	r3, #176
.L1778:
	strb	r3, [r2, #1]!
	adds	r3, r3, #1
	uxtb	r3, r3
	cmp	r3, #184
	bne	.L1778
	movs	r3, #212
	mov	r8, #12
	strb	r3, [fp, #136]
	movs	r3, #213
	strb	r3, [fp, #137]
	mov	r10, #10
	b	.L1771
.L1777:
	cmp	r0, #8
	mov	r3, #7
	bne	.L1833
	strb	r3, [fp, #129]
	movs	r3, #9
	movs	r2, #6
	strb	r3, [fp, #131]
	movs	r3, #10
	strb	r2, [fp, #128]
	strb	r0, [fp, #130]
	mov	r8, #50
	strb	r3, [fp, #132]
	mov	r10, #5
	b	.L1771
.L1833:
	mov	r8, r3
	b	.L1874
.L1785:
	ldr	r3, .L1880+12
	movs	r4, #160
	ldr	r1, .L1880+16
	add	r7, fp, #127
	ldr	r0, [sp]
	ldrb	r2, [r3, r2]	@ zero_extendqisi2
	ldr	r5, [r1]
	add	r1, r10, #-1
	uxtab	r1, r0, r1
	mla	r4, r4, r2, fp
	str	r1, [sp, #4]
	add	r5, r5, r2, lsl #8
	movs	r1, #55
	adds	r4, r4, #144
	addw	r2, r5, #2056
	subs	r3, r4, #1
.L1781:
	str	r1, [r2]
	ldrb	r0, [r7, #1]!	@ zero_extendqisi2
	str	r3, [sp, #16]
	str	r1, [sp, #12]
	str	r0, [r5, #2052]
	movs	r0, #1
	str	r2, [sp, #8]
	bl	udelay
	ldr	r2, [sp, #4]
	ldr	r0, [r5, #2048]
	ldr	r3, [sp, #16]
	cmp	r2, r7
	ldr	r1, [sp, #12]
	ldr	r2, [sp, #8]
	strb	r0, [r3, #1]!
	bne	.L1781
	ldr	r3, .L1880+4
	mov	r0, r4
	movs	r1, #0
.L1782:
	movs	r2, #1
	adds	r7, r3, r1
.L1783:
	ldrb	r5, [r7, r2, lsl #2]	@ zero_extendqisi2
	ldrb	lr, [r0]	@ zero_extendqisi2
	add	r5, r5, lr
	strb	r5, [r0, r2, lsl #3]
	adds	r2, r2, #1
	cmp	r2, #7
	bne	.L1783
	adds	r1, r1, #1
	adds	r0, r0, #1
	cmp	r1, #4
	bne	.L1782
	movs	r2, #0
	adds	r6, r6, #1
	strb	r2, [r4, #16]
	strb	r2, [r4, #24]
	strb	r2, [r4, #32]
	strb	r2, [r4, #40]
	strb	r2, [r4, #48]
	strb	r2, [r4, #41]
	strb	r2, [r4, #49]
	b	.L1780
.L1779:
	subs	r3, r4, #3
	cmp	r3, #5
	bhi	.L1786
	smulbb	r3, r8, r10
	asrs	r2, r3, #1
	lsls	r3, r3, #4
	str	r3, [sp, #48]
	lsls	r3, r2, #2
	str	r2, [sp, #8]
	str	r3, [sp, #44]
	lsls	r3, r2, #1
	str	r3, [sp, #24]
	movs	r3, #0
.L1879:
	str	r3, [sp, #20]
	ldr	r3, .L1880+8
	ldrb	r2, [r3]	@ zero_extendqisi2
	ldrb	r3, [sp, #20]	@ zero_extendqisi2
	cmp	r2, r3
	bls	.L1786
	ldr	r2, .L1880+12
	movs	r6, #255
	ldrb	r3, [r2, r3]	@ zero_extendqisi2
	mov	r0, r3
	str	r3, [sp]
	bl	zftl_flash_exit_slc_mode
	ldr	r3, [sp]
	movs	r1, #160
	ldr	r2, [sp]
	mla	r1, r1, r3, fp
	add	r3, r1, #144
	str	r3, [sp, #40]
	ldr	r3, .L1880+16
	ldr	r3, [r3]
	str	r3, [sp, #4]
	add	r5, r3, r2, lsl #8
	str	r6, [r5, #2056]
	bl	nandc_wait_flash_ready
	cmp	r4, #8
	bne	.L1788
	add	r3, fp, #144
	movs	r2, #23
	str	r3, [sp, #40]
	movs	r3, #120
	str	r3, [r5, #2056]
	movs	r3, #0
	str	r3, [r5, #2052]
	movs	r1, #25
	str	r3, [r5, #2052]
	str	r3, [r5, #2052]
	str	r2, [r5, #2056]
	movs	r2, #4
	str	r2, [r5, #2056]
	str	r1, [r5, #2056]
	movs	r1, #218
	str	r1, [r5, #2056]
	movs	r1, #21
	str	r3, [r5, #2056]
	str	r3, [r5, #2052]
	str	r3, [r5, #2052]
	str	r1, [r5, #2052]
	str	r2, [r5, #2052]
	str	r3, [r5, #2052]
.L1789:
	ldm	sp, {r2, r3}
	add	r3, r3, r2, lsl #8
	movs	r2, #48
	str	r2, [r3, #2056]
	bl	nandc_wait_flash_ready
	subs	r3, r4, #5
	cmp	r3, #1
	str	r3, [sp, #28]
	bls	.L1835
	cmp	r4, #8
	beq	.L1835
	cmp	r4, #7
	ite	ne
	movne	r2, #2
	moveq	r2, #32
.L1795:
	ldr	r3, .L1880+20
	subs	r2, r2, #1
	ldr	r5, [sp, #4]
	ldr	r6, [sp]
	ldr	r3, [r3]
	add	r7, r5, r6, lsl #8
	subs	r1, r3, #1
	uxtab	r2, r3, r2
	mov	r0, r1
.L1796:
	ldr	r5, [r7, #2048]
	strb	r5, [r0, #1]!
	cmp	r2, r0
	bne	.L1796
	cmp	r4, #8
	bne	.L1797
	movs	r2, #0
.L1799:
	ldrb	r0, [r3, r2, lsl #2]	@ zero_extendqisi2
	uxtb	r1, r2
	cmp	r0, #50
	beq	.L1798
	add	r0, r3, r2, lsl #2
	ldrb	r0, [r0, #1]	@ zero_extendqisi2
	cmp	r0, #5
	beq	.L1798
	adds	r2, r2, #1
	cmp	r2, #8
	bne	.L1799
.L1800:
	movs	r1, #0
	ldr	r0, .L1880+24
	bl	printf
.L1802:
	b	.L1802
.L1788:
	cmp	r4, #4
	mov	r3, #54
	str	r3, [r5, #2056]
	bne	.L1790
	movs	r3, #64
	str	r6, [r5, #2052]
	str	r3, [r5, #2048]
	movs	r3, #204
.L1876:
	str	r3, [r5, #2052]
	movs	r3, #77
	b	.L1877
.L1881:
	.align	2
.L1880:
	.word	.LANCHOR6
	.word	.LANCHOR162
	.word	.LANCHOR23
	.word	.LANCHOR29
	.word	.LANCHOR7
	.word	.LANCHOR163
	.word	.LC102
.L1790:
	subs	r3, r4, #5
	cmp	r3, #1
	bhi	.L1792
	ldrb	r3, [fp, #128]	@ zero_extendqisi2
	str	r3, [r5, #2052]
	movs	r3, #82
.L1877:
	str	r3, [r5, #2048]
.L1791:
	ldm	sp, {r2, r3}
	cmp	r4, #6
	add	r3, r3, r2, lsl #8
	mov	r2, #22
	str	r2, [r3, #2056]
	mov	r2, #23
	str	r2, [r3, #2056]
	mov	r2, #4
	str	r2, [r3, #2056]
	mov	r2, #25
	str	r2, [r3, #2056]
	mov	r2, #0
	str	r2, [r3, #2056]
	str	r2, [r3, #2052]
	str	r2, [r3, #2052]
	it	eq
	moveq	r2, #31
	str	r2, [r3, #2052]
	movs	r2, #2
	str	r2, [r3, #2052]
	movs	r2, #0
	str	r2, [r3, #2052]
	b	.L1789
.L1792:
	cmp	r4, #7
	bne	.L1791
	movs	r3, #174
	str	r3, [r5, #2052]
	movs	r3, #0
	str	r3, [r5, #2048]
	movs	r3, #176
	b	.L1876
.L1835:
	movs	r2, #16
	b	.L1795
.L1798:
	cmp	r1, #6
	bhi	.L1800
.L1801:
	ldr	r3, .L1882
	ldr	ip, [r3]
	mov	r3, ip
.L1811:
	ldr	r1, [sp, #48]
	sub	r2, r3, ip
	cmp	r1, r2
	bgt	.L1812
	ldr	r3, .L1882
	ldr	r1, [r3]
	ldr	r3, [sp, #24]
	adds	r2, r1, r3
	movs	r3, #8
.L1814:
	mov	r5, r2
	movs	r0, #0
.L1813:
	ldrh	r6, [r5]
	adds	r0, r0, #1
	mvns	r6, r6
	strh	r6, [r5], #2	@ movhi
	ldr	r6, [sp, #8]
	cmp	r6, r0
	bgt	.L1813
	ldr	r0, [sp, #44]
	subs	r3, r3, #1
	add	r2, r2, r0
	bne	.L1814
	mov	r6, r1
	str	r3, [sp, #16]
.L1815:
	movs	r0, #0
	mov	r2, r0
.L1819:
	movs	r3, #1
	mov	lr, r6
	lsl	r5, r3, r2
	movs	r3, #0
	str	r3, [sp, #12]
	str	r5, [sp, #32]
	movs	r5, #16
	str	r5, [sp, #36]
.L1817:
	ldrh	r3, [lr]
	str	r3, [sp, #52]
	ldr	r3, [sp, #32]
	mov	r5, r3
	ldr	r3, [sp, #52]
	bics	r3, r5, r3
	ittt	eq
	ldreq	r3, [sp, #12]
	addeq	r3, r3, #1
	streq	r3, [sp, #12]
	ldr	r3, [sp, #24]
	add	lr, lr, r3
	ldr	r3, [sp, #36]
	subs	r3, r3, #1
	str	r3, [sp, #36]
	bne	.L1817
	ldr	r3, [sp, #12]
	adds	r2, r2, #1
	cmp	r3, #8
	ittt	hi
	ldrhi	r3, [sp, #32]
	orrhi	r0, r0, r3
	uxthhi	r0, r0
	cmp	r2, #16
	bne	.L1819
	ldr	r3, [sp, #16]
	strh	r0, [r6], #2	@ movhi
	adds	r3, r3, #1
	str	r3, [sp, #16]
	ldr	r2, [sp, #16]
	ldr	r3, [sp, #8]
	cmp	r3, r2
	bgt	.L1815
	subs	r2, r1, #4
	add	r0, r1, #28
	movs	r3, #0
.L1822:
	ldr	r5, [r2, #4]!
	cbnz	r5, .L1821
	adds	r3, r3, #1
.L1821:
	cmp	r0, r2
	bne	.L1822
	cmp	r3, #7
	ble	.L1823
	ldr	r0, .L1882+4
	mov	r3, #1024
	movs	r2, #1
	bl	rknand_print_hex
	movs	r1, #0
	ldr	r0, .L1882+8
	bl	printf
.L1824:
	b	.L1824
.L1797:
	cmp	r4, #7
	bne	.L1803
	movs	r2, #0
.L1805:
	ldrb	r0, [r3, r2, lsl #2]	@ zero_extendqisi2
	uxtb	r1, r2
	cmp	r0, #12
	beq	.L1804
	add	r0, r3, r2, lsl #2
	ldrb	r0, [r0, #1]	@ zero_extendqisi2
	cmp	r0, #10
	beq	.L1804
	adds	r2, r2, #1
	cmp	r2, #8
	bne	.L1805
.L1806:
	movs	r1, #0
	ldr	r0, .L1882+8
	bl	printf
.L1807:
	b	.L1807
.L1804:
	cmp	r1, #6
	bls	.L1801
	b	.L1806
.L1803:
	cmp	r4, #6
	bne	.L1801
	adds	r3, r3, #7
.L1808:
	ldrb	r2, [r1, #1]!	@ zero_extendqisi2
	cmp	r2, #12
	beq	.L1801
	ldrb	r2, [r1, #8]	@ zero_extendqisi2
	cmp	r2, #4
	beq	.L1801
	cmp	r3, r1
	bne	.L1808
	movs	r1, #0
	ldr	r0, .L1882+8
	bl	printf
.L1810:
	b	.L1810
.L1812:
	ldr	r2, [r7, #2048]
	strb	r2, [r3], #1
	b	.L1811
.L1823:
	cmp	r4, #6
	beq	.L1837
	cmp	r4, #7
	beq	.L1838
	cmp	r4, #8
	ite	ne
	movne	r0, #8
	moveq	r0, #5
.L1825:
	add	r3, r10, #-1
	ldr	r1, [sp, #40]
	uxtb	r3, r3
	movs	r5, #0
	adds	r3, r3, #1
.L1826:
	mov	lr, r1
	mov	r2, ip
.L1827:
	ldrb	r6, [r2], #1	@ zero_extendqisi2
	strb	r6, [lr], #1
	sub	r6, r2, ip
	uxtb	r6, r6
	cmp	r10, r6
	bhi	.L1827
	adds	r5, r5, #1
	add	ip, ip, r3
	cmp	r8, r5
	add	r1, r1, r0
	bgt	.L1826
	ldm	sp, {r2, r3}
	movs	r6, #255
	add	r5, r3, r2, lsl #8
	str	r6, [r5, #2056]
	bl	nandc_wait_flash_ready
	ldr	r3, [sp, #28]
	cmp	r3, #1
	bhi	.L1829
	movs	r3, #54
	movs	r2, #22
	str	r3, [r5, #2056]
	ldrb	r3, [fp, #128]	@ zero_extendqisi2
	str	r3, [r7, #2052]
	movs	r3, #0
	str	r3, [r7, #2048]
	str	r2, [r5, #2056]
	str	r3, [r5, #2056]
	str	r3, [r7, #2052]
	str	r3, [r7, #2052]
	movs	r3, #48
	str	r6, [r7, #2052]
	str	r6, [r7, #2052]
	str	r6, [r7, #2052]
.L1878:
	str	r3, [r5, #2056]
	bl	nandc_wait_flash_ready
	ldr	r3, [sp, #20]
	adds	r3, r3, #1
	b	.L1879
.L1837:
	movs	r0, #4
	b	.L1825
.L1838:
	movs	r0, #10
	b	.L1825
.L1829:
	cmp	r4, #8
	ite	eq
	moveq	r3, #190
	movne	r3, #56
	b	.L1878
.L1883:
	.align	2
.L1882:
	.word	.LANCHOR163
	.word	.LC103
	.word	.LC102
	.size	hynix_get_read_retry_default, .-hynix_get_read_retry_default
	.section	.text.flash_get_read_retry_tbl,"ax",%progbits
	.align	1
	.global	flash_get_read_retry_tbl
	.syntax unified
	.thumb
	.thumb_func
	.fpu softvfp
	.type	flash_get_read_retry_tbl, %function
flash_get_read_retry_tbl:
	@ args = 0, pretend = 0, frame = 0
	@ frame_needed = 0, uses_anonymous_args = 0
	@ link register save eliminated.
	ldr	r3, .L1886
	ldrb	r0, [r3, #19]	@ zero_extendqisi2
	subs	r3, r0, #1
	cmp	r3, #7
	bhi	.L1884
	b	hynix_get_read_retry_default
.L1884:
	bx	lr
.L1887:
	.align	2
.L1886:
	.word	.LANCHOR32
	.size	flash_get_read_retry_tbl, .-flash_get_read_retry_tbl
	.section	.text.nandc_xfer_done,"ax",%progbits
	.align	1
	.global	nandc_xfer_done
	.syntax unified
	.thumb
	.thumb_func
	.fpu softvfp
	.type	nandc_xfer_done, %function
nandc_xfer_done:
	@ args = 0, pretend = 0, frame = 8
	@ frame_needed = 0, uses_anonymous_args = 0
	ldr	r3, .L1923
	push	{r0, r1, r4, r5, r6, r7, r8, lr}
	movs	r1, #0
	ldr	r4, .L1923+4
	ldrb	r3, [r3]	@ zero_extendqisi2
	ldr	r5, .L1923+8
	strb	r1, [r4]
	cmp	r3, #9
	ldr	r6, [r5]
	bne	.L1889
	ldr	r3, [r6, #16]
	str	r3, [sp]
	ldr	r3, [r6, #48]
	ubfx	r3, r3, #1, #1
	cmp	r3, #0
	bne	.L1894
	ldr	r7, .L1923+12
	mov	r4, r3
	ldr	r8, .L1923+32
.L1891:
	ldr	r3, [sp]
	lsls	r0, r3, #11
	bmi	.L1893
	ldr	r3, [r5]
	adds	r4, r4, #1
	ldr	r3, [r3, #16]
	str	r3, [sp]
	bics	r3, r4, #-16777216
	bne	.L1891
	ldr	r2, [sp]
	mov	r1, r4
	ldr	r3, [r6, #64]
	mov	r0, r7
	ubfx	r3, r3, #16, #6
	bl	printf
	movs	r3, #64
	movs	r2, #4
	ldr	r1, [r5]
	mov	r0, r8
	bl	rknand_print_hex
	b	.L1891
.L1892:
	ldr	r3, [sp]
	adds	r1, r1, #1
	ubfx	r3, r3, #22, #6
	cmp	r1, r3, lsl #12
	bne	.L1894
	ldr	r2, [r6, #64]
	ldr	r3, [sp]
	ldr	r0, .L1923+16
	ubfx	r2, r2, #16, #5
	ubfx	r3, r3, #22, #6
	bl	printf
	ldr	r3, [sp, #4]
	movs	r3, #1
	strb	r3, [r4]
.L1893:
	ldr	r3, .L1923+20
	movs	r2, #0
	str	r2, [r3, #20]
	add	sp, sp, #8
	@ sp needed
	pop	{r4, r5, r6, r7, r8, pc}
.L1894:
	ldr	r2, [r6, #64]
	ldr	r3, [sp]
	ubfx	r2, r2, #16, #6
	ubfx	r3, r3, #22, #6
	cmp	r2, r3
	bge	.L1893
	ldr	r3, [r6]
	str	r3, [sp, #4]
	ldr	r3, [sp, #4]
	lsls	r7, r3, #18
	bpl	.L1892
	ldr	r3, [sp, #4]
	lsls	r5, r3, #14
	bpl	.L1892
	ldr	r1, [sp, #4]
	ldr	r0, .L1923+24
	ubfx	r1, r1, #17, #1
.L1922:
	bl	printf
	b	.L1893
.L1889:
	ldr	r3, [r6, #8]
	str	r3, [sp]
	ldr	r4, [r6, #16]
	ubfx	r4, r4, #1, #1
	cbnz	r4, .L1899
	ldr	r7, .L1923+12
	ldr	r8, .L1923+32
.L1900:
	ldr	r3, [sp]
	lsls	r3, r3, #11
	bmi	.L1893
	ldr	r3, [r5]
	adds	r4, r4, #1
	ldr	r3, [r3, #8]
	str	r3, [sp]
	bics	r3, r4, #-16777216
	bne	.L1900
	ldr	r2, [sp]
	mov	r1, r4
	ldr	r3, [r6, #28]
	mov	r0, r7
	ubfx	r3, r3, #16, #5
	bl	printf
	movs	r3, #64
	movs	r2, #4
	ldr	r1, [r5]
	mov	r0, r8
	bl	rknand_print_hex
	b	.L1900
.L1899:
	ldr	r7, .L1923+16
	mov	r4, r1
	ldr	r8, .L1923+32
.L1901:
	ldr	r2, [r6, #28]
	ldr	r3, [sp]
	ubfx	r2, r2, #16, #5
	ubfx	r3, r3, #22, #6
	cmp	r2, r3
	bge	.L1893
	ldr	r3, [r5]
	ldr	r3, [r3]
	str	r3, [sp, #4]
	ldr	r3, [sp, #4]
	lsls	r1, r3, #18
	bpl	.L1902
	ldr	r3, [sp, #4]
	lsls	r2, r3, #14
	bpl	.L1902
	ldr	r1, [sp, #4]
	ldr	r0, .L1923+28
	b	.L1922
.L1902:
	adds	r4, r4, #1
	bics	r3, r4, #-16777216
	bne	.L1901
	ldr	r2, [r6, #28]
	mov	r1, r4
	ldr	r3, [sp]
	mov	r0, r7
	ubfx	r2, r2, #16, #5
	ubfx	r3, r3, #22, #6
	bl	printf
	movs	r3, #64
	movs	r2, #4
	ldr	r1, [r5]
	mov	r0, r8
	bl	rknand_print_hex
	b	.L1901
.L1924:
	.align	2
.L1923:
	.word	.LANCHOR27
	.word	.LANCHOR164
	.word	.LANCHOR7
	.word	.LC106
	.word	.LC105
	.word	.LANCHOR52
	.word	.LC104
	.word	.LC108
	.word	.LC107
	.size	nandc_xfer_done, .-nandc_xfer_done
	.section	.text.nandc_xfer,"ax",%progbits
	.align	1
	.global	nandc_xfer
	.syntax unified
	.thumb
	.thumb_func
	.fpu softvfp
	.type	nandc_xfer, %function
nandc_xfer:
	@ args = 4, pretend = 0, frame = 8
	@ frame_needed = 0, uses_anonymous_args = 0
	push	{r0, r1, r4, r5, r6, r7, r8, lr}
	mov	r4, r1
	ldr	r5, [sp, #32]
	mov	r7, r2
	mov	r6, r3
	mov	r0, r4
	mov	r2, r6
	mov	r1, r7
	mov	r3, r5
	bl	nandc_xfer_start
	mov	r0, r4
	bl	nandc_xfer_done
	cmp	r4, #0
	bne	.L1944
	ldr	r3, .L1963
	ldrb	r3, [r3]	@ zero_extendqisi2
	cmp	r3, #9
	bne	.L1927
	ldr	r3, .L1963+4
	lsrs	r7, r7, #2
	movs	r2, #1
	mov	r0, r4
	ldr	r1, [r3]
	mov	r8, r3
.L1928:
	cmp	r4, r7
	bcc	.L1932
	ldr	r4, [r1]
	cmp	r2, #0
	it	ne
	movne	r0, #512
	and	r3, r4, #139264
	cmp	r3, #139264
	bne	.L1934
	mov	r1, r4
	ldr	r0, .L1963+8
	bl	printf
	ldr	r3, [r8]
	mov	r0, #-1
	orr	r4, r4, #131072
	str	r4, [r3]
.L1934:
	lsls	r2, r4, #18
	bpl	.L1935
	ldr	r3, .L1963+12
	ldrb	r3, [r3]	@ zero_extendqisi2
	cmp	r3, #0
	beq	.L1935
	mov	r1, r4
	ldr	r0, .L1963+16
	bl	printf
	ldr	r3, [r8]
	movs	r2, #1
	str	r2, [r3, #16]
.L1962:
	mov	r0, #-1
.L1926:
	add	sp, sp, #8
	@ sp needed
	pop	{r4, r5, r6, r7, r8, pc}
.L1932:
	add	r3, r4, #84
	ldr	r3, [r1, r3, lsl #2]
	str	r3, [sp, #4]
	ldr	ip, [sp, #4]
	ldr	r3, [sp, #4]
	ubfx	r3, r3, #26, #1
	and	r3, r3, ip, lsr #10
	ands	r2, r2, r3
	ldr	r3, [sp, #4]
	lsls	r3, r3, #29
	bmi	.L1946
	ldr	r3, [sp, #4]
	lsls	r3, r3, #13
	bmi	.L1946
	ldr	r3, [sp, #4]
	ubfx	ip, r3, #3, #7
	ldr	r3, [sp, #4]
	ubfx	r3, r3, #19, #7
	cmp	ip, r3
	ldr	r3, [sp, #4]
	ite	gt
	ubfxgt	r3, r3, #3, #7
	ubfxle	r3, r3, #19, #7
	cmp	r0, r3
	it	cc
	movcc	r0, r3
.L1929:
	adds	r4, r4, #1
	b	.L1928
.L1946:
	mov	r0, #-1
	b	.L1929
.L1927:
	ldr	r3, .L1963+20
	lsrs	r0, r7, #1
	ldr	r8, .L1963+28
	mov	r1, r4
	ldrb	r3, [r3]	@ zero_extendqisi2
	cmp	r3, #25
	mov	r3, r5
	ite	cc
	movcc	lr, #64
	movcs	lr, #128
.L1937:
	cmp	r1, r0
	add	ip, lr, r4
	add	r3, r3, #4
	bcc	.L1938
	lsrs	r4, r7, #2
	ldr	r7, .L1963+4
	movs	r2, #0
	mov	r0, r2
	ldr	r1, [r7]
.L1939:
	cmp	r2, r4
	bcc	.L1943
	movs	r3, #0
	str	r3, [r1, #16]
	ldr	r4, [r1]
	and	r3, r4, #139264
	cmp	r3, #139264
	bne	.L1935
	mov	r1, r4
	ldr	r0, .L1963+24
	bl	printf
	ldr	r3, [r7]
	orr	r4, r4, #131072
	str	r4, [r3]
	b	.L1962
.L1938:
	ldr	r2, [r8]
	bic	r4, r4, #3
	adds	r1, r1, #1
	ldr	r2, [r2, r4]
	strb	r2, [r3, #-4]
	lsrs	r4, r2, #8
	strb	r4, [r3, #-3]
	lsrs	r4, r2, #16
	lsrs	r2, r2, #24
	strb	r4, [r3, #-2]
	mov	r4, ip
	strb	r2, [r3, #-1]
	b	.L1937
.L1943:
	add	r3, r2, #8
	ldr	r3, [r1, r3, lsl #2]
	str	r3, [sp, #4]
	ldr	r3, [sp, #4]
	lsls	r3, r3, #29
	bmi	.L1949
	ldr	r3, [sp, #4]
	lsls	r3, r3, #16
	bmi	.L1949
	ldr	r3, [sp, #4]
	ubfx	ip, r3, #3, #5
	ldr	r3, [sp, #4]
	ubfx	r8, r3, #27, #1
	ldr	r3, [sp, #4]
	ldr	lr, [sp, #4]
	orr	ip, ip, r8, lsl #5
	ubfx	r3, r3, #16, #5
	ubfx	lr, lr, #29, #1
	orr	r3, r3, lr, lsl #5
	cmp	ip, r3
	ldr	r3, [sp, #4]
	itete	hi
	ldrhi	ip, [sp, #4]
	ldrls	ip, [sp, #4]
	ubfxhi	r3, r3, #3, #5
	ubfxls	r3, r3, #16, #5
	ite	hi
	ubfxhi	ip, ip, #27, #1
	ubfxls	ip, ip, #29, #1
	orr	r3, r3, ip, lsl #5
	cmp	r0, r3
	it	cc
	movcc	r0, r3
.L1940:
	adds	r2, r2, #1
	b	.L1939
.L1949:
	mov	r0, #-1
	b	.L1940
.L1935:
	adds	r3, r0, #1
	beq	.L1926
	ldr	r3, [r5]
	adds	r3, r3, #1
	bne	.L1926
	ldr	r3, [r5, #4]
	adds	r3, r3, #1
	bne	.L1926
	ldr	r3, [r6]
	adds	r3, r3, #1
	it	eq
	moveq	r0, #512
	b	.L1926
.L1944:
	movs	r0, #0
	b	.L1926
.L1964:
	.align	2
.L1963:
	.word	.LANCHOR27
	.word	.LANCHOR7
	.word	.LC109
	.word	.LANCHOR164
	.word	.LC110
	.word	.LANCHOR49
	.word	.LC111
	.word	.LANCHOR52
	.size	nandc_xfer, .-nandc_xfer
	.section	.text.flash_read_page,"ax",%progbits
	.align	1
	.global	flash_read_page
	.syntax unified
	.thumb
	.thumb_func
	.fpu softvfp
	.type	flash_read_page, %function
flash_read_page:
	@ args = 4, pretend = 0, frame = 8
	@ frame_needed = 0, uses_anonymous_args = 0
	push	{r0, r1, r2, r3, r4, r5, r6, r7, r8, r10, fp, lr}
	mov	r7, r3
	ldr	r3, .L1980
	mov	r5, r0
	ubfx	r10, r1, #24, #2
	lsl	fp, r5, #8
	str	r2, [sp, #12]
	ldr	r8, [r3]
	ldr	r3, .L1980+4
	ldr	r6, .L1980+8
	ldrb	r4, [r3]	@ zero_extendqisi2
	rsb	r3, r4, #24
	movs	r4, #1
	lsls	r4, r4, r3
	subs	r4, r4, #1
	ands	r4, r4, r1
	bl	nandc_wait_flash_ready
	mov	r0, r5
	bl	nandc_cs
	cmp	r10, #0
	bne	.L1966
	mov	r0, r5
	bl	zftl_flash_enter_slc_mode
.L1967:
	ldr	r3, [r6]
	ldrb	r2, [r3, #7]	@ zero_extendqisi2
	cmp	r2, #1
	bne	.L1969
	ldrb	r2, [r3, #12]	@ zero_extendqisi2
	cmp	r2, #2
	ittt	eq
	addeq	r2, r8, fp
	moveq	r1, #38
	streq	r1, [r2, #2056]
.L1969:
	add	r6, r8, fp
	movs	r1, #0
	str	r1, [r6, #2056]
	str	r1, [r6, #2052]
	str	r1, [r6, #2052]
	uxtb	r1, r4
	str	r1, [r6, #2052]
	lsrs	r1, r4, #8
	str	r1, [r6, #2052]
	lsrs	r1, r4, #16
	str	r1, [r6, #2052]
	ldr	r1, .L1980+12
	ldrb	r1, [r1]	@ zero_extendqisi2
	cbz	r1, .L1970
	lsrs	r1, r4, #24
	str	r1, [r6, #2052]
.L1970:
	add	r1, r8, fp
	movs	r0, #48
	str	r0, [r1, #2056]
	ldrb	r3, [r3, #12]	@ zero_extendqisi2
	cmp	r3, #3
	bne	.L1971
	cmp	r10, #0
	beq	.L1971
	ldr	r3, .L1980+16
	ldrb	r3, [r3]	@ zero_extendqisi2
	cmp	r3, #0
	bne	.L1971
	ldr	r3, .L1980+20
	ldrb	r3, [r3]	@ zero_extendqisi2
	cbnz	r3, .L1971
	add	r4, r4, r4, lsl #1
	subs	r0, r4, #1
	add	r0, r0, r10
.L1979:
	bl	nandc_set_seed
	bl	nandc_wait_flash_ready
	add	r3, r8, fp
	movs	r1, #5
	str	r1, [r3, #2056]
	movs	r2, #224
	movs	r1, #0
	mov	r0, r5
	str	r1, [r6, #2052]
	str	r1, [r6, #2052]
	str	r2, [r3, #2056]
	ldr	r3, [sp, #12]
	ldrb	r2, [sp, #48]	@ zero_extendqisi2
	str	r7, [sp]
	bl	nandc_xfer
	bl	nandc_de_cs.constprop.32
	add	sp, sp, #16
	@ sp needed
	pop	{r4, r5, r6, r7, r8, r10, fp, pc}
.L1966:
	ldr	r2, [r6]
	ldrb	r2, [r2, #12]	@ zero_extendqisi2
	cmp	r2, #3
	bne	.L1968
	ldr	r2, .L1980+16
	ldrb	r2, [r2]	@ zero_extendqisi2
	cbnz	r2, .L1968
	ldr	r2, .L1980+20
	ldrb	r2, [r2]	@ zero_extendqisi2
	cbnz	r2, .L1968
	add	r2, r8, fp
	str	r10, [r2, #2056]
	b	.L1967
.L1968:
	mov	r0, r5
	bl	zftl_flash_exit_slc_mode
	b	.L1967
.L1971:
	mov	r0, r4
	b	.L1979
.L1981:
	.align	2
.L1980:
	.word	.LANCHOR7
	.word	.LANCHOR31
	.word	.LANCHOR21
	.word	.LANCHOR30
	.word	.LANCHOR35
	.word	.LANCHOR36
	.size	flash_read_page, .-flash_read_page
	.section	.text.micron_read_retrial,"ax",%progbits
	.align	1
	.global	micron_read_retrial
	.syntax unified
	.thumb
	.thumb_func
	.fpu softvfp
	.type	micron_read_retrial, %function
micron_read_retrial:
	@ args = 4, pretend = 0, frame = 16
	@ frame_needed = 0, uses_anonymous_args = 0
	push	{r4, r5, r6, r7, r8, r10, fp, lr}
	sub	sp, sp, #24
	str	r3, [sp, #20]
	mov	r6, r0
	mov	fp, r1
	mov	r10, #0
	ldr	r3, .L2006
	str	r2, [sp, #16]
	ldrb	r3, [r3]	@ zero_extendqisi2
	add	r3, r3, r3, lsl #1
	asrs	r3, r3, #2
	str	r3, [sp, #8]
	bl	nandc_wait_flash_ready
	ldr	r3, .L2006+4
	ldr	r5, [r3]
	add	r5, r5, r6, lsl #8
.L1983:
	mov	r0, r6
	mov	r8, #0
	mov	r4, #-1
	bl	zftl_flash_enter_slc_mode
	mov	r0, r6
	bl	zftl_flash_exit_slc_mode
.L1984:
	ldr	r3, .L2006+8
	ldrb	r3, [r3]	@ zero_extendqisi2
	cmp	r8, r3
	bcc	.L1989
.L1988:
	movs	r3, #239
	movs	r0, #1
	str	r3, [r5, #2056]
	movs	r3, #137
	str	r3, [r5, #2052]
	movs	r7, #0
	bl	udelay
	ldr	r3, [sp, #8]
	str	r7, [r5, #2048]
	str	r7, [r5, #2048]
	cmp	r4, r3
	str	r7, [r5, #2048]
	str	r7, [r5, #2048]
	bcc	.L1990
	adds	r1, r4, #1
	mov	r3, r8
	it	ne
	movne	r4, #256
	mov	r2, fp
	str	r4, [sp]
	mov	r1, r6
	ldr	r0, .L2006+12
	bl	printf
	cmp	r10, #0
	bne	.L1992
	adds	r2, r4, #1
	bne	.L1993
	movs	r1, #3
	mov	r0, r6
	bl	mt_auto_read_calibration_config
	mov	r10, #1
	b	.L1983
.L1989:
	movs	r3, #239
	movs	r0, #1
	str	r3, [r5, #2056]
	movs	r3, #137
	str	r3, [r5, #2052]
	bl	udelay
	add	r3, r8, #1
	ldr	r2, [sp, #16]
	str	r3, [r5, #2048]
	mov	r1, fp
	str	r3, [sp, #12]
	movs	r3, #0
	str	r3, [r5, #2048]
	mov	r0, r6
	str	r3, [r5, #2048]
	str	r3, [r5, #2048]
	ldr	r3, [sp, #56]
	str	r3, [sp]
	ldr	r3, [sp, #20]
	bl	flash_read_page
	ldr	r3, .L2006+16
	mov	r7, r0
	ldr	r3, [r3]
	lsls	r3, r3, #19
	bpl	.L1985
	str	r0, [sp]
	mov	r3, r4
	mov	r2, fp
	mov	r1, r8
	ldr	r0, .L2006+20
	bl	printf
.L1985:
	adds	r0, r7, #1
	beq	.L1986
	ldr	r3, .L2006+24
	cmp	r4, #-1
	it	eq
	moveq	r4, r7
	ldr	r3, [r3]
	str	r3, [sp, #16]
	ldr	r3, .L2006+28
	ldr	r3, [r3]
	str	r3, [sp, #20]
	ldr	r3, [sp, #8]
	cmp	r7, r3
	bcc	.L1995
.L1986:
	ldr	r8, [sp, #12]
	b	.L1984
.L1995:
	mov	r4, r7
	b	.L1988
.L1992:
	mov	r1, r7
	mov	r0, r6
	bl	mt_auto_read_calibration_config
	adds	r3, r4, #1
	it	ne
	movne	r4, #256
.L1993:
	bl	nandc_wait_flash_ready
	mov	r0, r4
	add	sp, sp, #24
	@ sp needed
	pop	{r4, r5, r6, r7, r8, r10, fp, pc}
.L1990:
	cmp	r10, #0
	beq	.L1993
	mov	r1, r7
	mov	r0, r6
	bl	mt_auto_read_calibration_config
	mov	r4, #256
	b	.L1993
.L2007:
	.align	2
.L2006:
	.word	.LANCHOR49
	.word	.LANCHOR7
	.word	.LANCHOR166
	.word	.LC113
	.word	.LANCHOR19
	.word	.LC112
	.word	.LANCHOR163
	.word	.LANCHOR165
	.size	micron_read_retrial, .-micron_read_retrial
	.section	.text.toshiba_3d_read_retrial,"ax",%progbits
	.align	1
	.global	toshiba_3d_read_retrial
	.syntax unified
	.thumb
	.thumb_func
	.fpu softvfp
	.type	toshiba_3d_read_retrial, %function
toshiba_3d_read_retrial:
	@ args = 4, pretend = 0, frame = 16
	@ frame_needed = 0, uses_anonymous_args = 0
	push	{r4, r5, r6, r7, r8, r10, fp, lr}
	sub	sp, sp, #24
	mov	r7, r0
	str	r2, [sp, #8]
	mov	r8, r1
	ubfx	r4, r1, #24, #2
	str	r3, [sp, #12]
	add	r6, r7, #8
	bl	nandc_wait_flash_ready
	ldr	r3, .L2051
	ldr	fp, [r3]
	ldr	r3, .L2051+4
	ldrb	r2, [r3]	@ zero_extendqisi2
	add	r6, fp, r6, lsl #8
	cmp	r2, #36
	ite	ne
	movne	r2, #56
	moveq	r2, #46
	str	r2, [sp, #20]
	ite	ne
	movne	r2, #10
	moveq	r2, #26
	str	r2, [sp, #16]
	cmp	r4, #0
	bne	.L2010
	mov	r4, #-1
	movs	r5, #1
	str	r3, [sp, #20]
.L2017:
	ldr	r3, [sp, #20]
	ldrb	r3, [r3]	@ zero_extendqisi2
	cmp	r3, #36
	bne	.L2011
	movs	r2, #0
	mov	r1, r5
	mov	r0, r6
	bl	toshiba_tlc_set_rr_para
	add	r3, fp, r7, lsl #8
	movs	r2, #93
	str	r2, [r3, #2056]
.L2012:
	ldr	r3, [sp, #56]
	mov	r1, r8
	ldr	r2, [sp, #8]
	mov	r0, r7
	str	r3, [sp]
	ldr	r3, [sp, #12]
	bl	flash_read_page
	ldr	r3, .L2051+8
	mov	r10, r0
	ldr	r3, [r3]
	lsls	r1, r3, #27
	bpl	.L2013
	mov	r3, r0
	mov	r2, r8
	mov	r1, r5
	ldr	r0, .L2051+12
	bl	printf
.L2013:
	cmp	r10, #-1
	beq	.L2014
	ldr	r3, .L2051+16
	cmp	r4, #-1
	it	eq
	moveq	r4, r10
	ldr	r3, [r3]
	str	r3, [sp, #8]
	ldr	r3, .L2051+20
	ldr	r3, [r3]
	str	r3, [sp, #12]
	ldr	r3, .L2051+24
	ldrb	r3, [r3]	@ zero_extendqisi2
	add	r3, r3, r3, lsl #1
	cmp	r10, r3, asr #2
	bcc	.L2032
.L2014:
	ldr	r3, [sp, #16]
	adds	r5, r5, #1
	cmp	r3, r5
	bne	.L2017
.L2016:
	ldr	r3, .L2051+4
	ldrb	r3, [r3]	@ zero_extendqisi2
	cmp	r3, #36
	bne	.L2018
	movs	r2, #0
.L2050:
	movs	r1, #0
	mov	r0, r6
	bl	toshiba_tlc_set_rr_para
	b	.L2019
.L2011:
	uxtb	r1, r5
	mov	r0, r6
	bl	toshiba_3d_set_slc_rr_para
	b	.L2012
.L2032:
	mov	r4, r10
	b	.L2016
.L2018:
	movs	r1, #0
	mov	r0, r6
	bl	toshiba_3d_set_slc_rr_para
.L2019:
	ldr	r3, .L2051+4
	ldrb	r3, [r3]	@ zero_extendqisi2
	cmp	r3, #36
	bne	.L2028
	add	r3, fp, r7, lsl #8
	movs	r2, #85
	str	r2, [r3, #2056]
	movs	r2, #0
	str	r2, [r3, #2052]
	str	r2, [r3, #2048]
	movs	r2, #255
	str	r2, [r3, #2056]
.L2028:
	ldr	r3, .L2051+24
	ldrb	r3, [r3]	@ zero_extendqisi2
	add	r3, r3, r3, lsl #1
	cmp	r4, r3, asr #2
	bcc	.L2029
	adds	r3, r4, #1
	mov	r2, r8
	it	ne
	movne	r4, #256
	mov	r3, r5
	str	r4, [sp]
	mov	r1, r7
	ldr	r0, .L2051+28
	bl	printf
.L2029:
	bl	nandc_wait_flash_ready
	mov	r0, r4
	add	sp, sp, #24
	@ sp needed
	pop	{r4, r5, r6, r7, r8, r10, fp, pc}
.L2010:
	mov	r4, #-1
	movs	r5, #1
	str	r3, [sp, #16]
.L2026:
	ldr	r3, [sp, #16]
	ldrb	r3, [r3]	@ zero_extendqisi2
	cmp	r3, #36
	bne	.L2020
	movs	r2, #1
	mov	r1, r5
	mov	r0, r6
	bl	toshiba_tlc_set_rr_para
	add	r3, fp, r7, lsl #8
	movs	r2, #93
.L2049:
	str	r2, [r3, #2056]
	mov	r1, r8
	ldr	r3, [sp, #56]
	mov	r0, r7
	ldr	r2, [sp, #8]
	str	r3, [sp]
	ldr	r3, [sp, #12]
	bl	flash_read_page
	ldr	r3, .L2051+8
	mov	r10, r0
	ldr	r3, [r3]
	lsls	r2, r3, #27
	bpl	.L2022
	mov	r3, r0
	mov	r2, r8
	mov	r1, r5
	ldr	r0, .L2051+32
	bl	printf
.L2022:
	cmp	r10, #-1
	beq	.L2023
	ldr	r3, .L2051+16
	cmp	r4, #-1
	it	eq
	moveq	r4, r10
	ldr	r3, [r3]
	str	r3, [sp, #8]
	ldr	r3, .L2051+20
	ldr	r3, [r3]
	str	r3, [sp, #12]
	ldr	r3, .L2051+24
	ldrb	r3, [r3]	@ zero_extendqisi2
	add	r3, r3, r3, lsl #1
	cmp	r10, r3, asr #2
	bcc	.L2033
.L2023:
	ldr	r3, [sp, #20]
	adds	r5, r5, #1
	cmp	r3, r5
	bne	.L2026
.L2025:
	ldr	r3, .L2051+4
	ldrb	r3, [r3]	@ zero_extendqisi2
	cmp	r3, #36
	bne	.L2027
	movs	r2, #1
	b	.L2050
.L2020:
	uxtb	r1, r5
	mov	r0, r6
	bl	toshiba_3d_set_tlc_rr_para
	add	r3, fp, r7, lsl #8
	movs	r2, #38
	b	.L2049
.L2033:
	mov	r4, r10
	b	.L2025
.L2027:
	movs	r1, #0
	mov	r0, r6
	bl	toshiba_3d_set_tlc_rr_para
	b	.L2019
.L2052:
	.align	2
.L2051:
	.word	.LANCHOR7
	.word	.LANCHOR15
	.word	.LANCHOR19
	.word	.LC114
	.word	.LANCHOR163
	.word	.LANCHOR165
	.word	.LANCHOR49
	.word	.LC116
	.word	.LC115
	.size	toshiba_3d_read_retrial, .-toshiba_3d_read_retrial
	.section	.text.toshiba_read_retrial,"ax",%progbits
	.align	1
	.global	toshiba_read_retrial
	.syntax unified
	.thumb
	.thumb_func
	.fpu softvfp
	.type	toshiba_read_retrial, %function
toshiba_read_retrial:
	@ args = 4, pretend = 0, frame = 16
	@ frame_needed = 0, uses_anonymous_args = 0
	push	{r4, r5, r6, r7, r8, r10, fp, lr}
	mov	r5, r0
	sub	sp, sp, #24
	add	r10, r5, #8
	str	r2, [sp, #12]
	str	r3, [sp, #16]
	str	r1, [sp, #8]
	bl	nandc_wait_flash_ready
	mov	r0, r5
	bl	zftl_flash_enter_slc_mode
	mov	r0, r5
	bl	zftl_flash_exit_slc_mode
	ldr	r3, .L2080
	ldr	r2, .L2080+4
	ldr	r7, [r3]
	ldrb	r3, [r2]	@ zero_extendqisi2
	str	r2, [sp, #20]
	subs	r3, r3, #67
	add	r10, r7, r10, lsl #8
	cmp	r3, #1
	bls	.L2071
	ldr	r3, .L2080+8
	ldrb	r6, [r3]	@ zero_extendqisi2
	cbz	r6, .L2055
	movs	r6, #1
	movs	r0, #1
	bl	nandc_set_if_mode
.L2055:
	add	r3, r7, r5, lsl #8
	movs	r2, #92
	str	r2, [r3, #2056]
	movs	r2, #197
	str	r2, [r3, #2056]
.L2054:
	mov	r8, #1
	mov	fp, #-1
.L2056:
	ldr	r3, .L2080+12
	ldrb	r3, [r3]	@ zero_extendqisi2
	adds	r3, r3, #1
	cmp	r8, r3
	bcc	.L2065
	mov	r4, fp
.L2064:
	ldr	r3, .L2080+4
	movs	r1, #0
	mov	r0, r10
	ldrb	r3, [r3]	@ zero_extendqisi2
	subs	r3, r3, #67
	cmp	r3, #1
	bhi	.L2066
	bl	sandisk_set_rr_para
.L2067:
	add	r5, r7, r5, lsl #8
	movs	r3, #255
	str	r3, [r5, #2056]
	ldr	r3, .L2080+16
	ldrb	r3, [r3]	@ zero_extendqisi2
	add	r3, r3, r3, lsl #1
	cmp	r4, r3, asr #2
	bcc	.L2068
	adds	r3, r4, #1
	ldr	r2, [sp, #8]
	it	ne
	movne	r4, #256
	mov	r3, r8
	str	r4, [sp]
	mov	r1, r8
	ldr	r0, .L2080+20
	bl	printf
.L2068:
	bl	nandc_wait_flash_ready
	cbz	r6, .L2053
	movs	r0, #4
	bl	nandc_set_if_mode
.L2053:
	mov	r0, r4
	add	sp, sp, #24
	@ sp needed
	pop	{r4, r5, r6, r7, r8, r10, fp, pc}
.L2071:
	movs	r6, #0
	b	.L2054
.L2065:
	ldr	r3, [sp, #20]
	mov	r0, r10
	uxtb	r1, r8
	ldrb	r3, [r3]	@ zero_extendqisi2
	subs	r3, r3, #67
	cmp	r3, #1
	bhi	.L2057
	bl	sandisk_set_rr_para
.L2058:
	ldr	r3, .L2080+4
	ldrb	r3, [r3]	@ zero_extendqisi2
	cmp	r3, #34
	bne	.L2059
	ldr	r3, .L2080+12
	ldrb	r3, [r3]	@ zero_extendqisi2
	subs	r3, r3, #3
	cmp	r8, r3
	ittt	eq
	addeq	r3, r7, r5, lsl #8
	moveq	r2, #179
	streq	r2, [r3, #2056]
.L2059:
	add	r3, r7, r5, lsl #8
	movs	r2, #38
	add	r1, sp, #8
	str	r2, [r3, #2056]
	movs	r2, #93
	str	r2, [r3, #2056]
	mov	r0, r5
	ldr	r3, [sp, #56]
	str	r3, [sp]
	ldm	r1, {r1, r2, r3}
	bl	flash_read_page
	adds	r2, r0, #1
	mov	r4, r0
	beq	.L2062
	ldr	r3, .L2080+24
	cmp	fp, #-1
	it	eq
	moveq	fp, r0
	ldr	r3, [r3]
	str	r3, [sp, #12]
	ldr	r3, .L2080+28
	ldr	r3, [r3]
	str	r3, [sp, #16]
	ldr	r3, .L2080+16
	ldrb	r3, [r3]	@ zero_extendqisi2
	add	r3, r3, r3, lsl #1
	cmp	r0, r3, asr #2
	bcc	.L2064
.L2062:
	add	r8, r8, #1
	b	.L2056
.L2057:
	bl	toshiba_set_rr_para
	b	.L2058
.L2066:
	bl	toshiba_set_rr_para
	b	.L2067
.L2081:
	.align	2
.L2080:
	.word	.LANCHOR7
	.word	.LANCHOR15
	.word	.LANCHOR26
	.word	.LANCHOR166
	.word	.LANCHOR49
	.word	.LC116
	.word	.LANCHOR163
	.word	.LANCHOR165
	.size	toshiba_read_retrial, .-toshiba_read_retrial
	.section	.text.ymtc_3d_read_retrial,"ax",%progbits
	.align	1
	.global	ymtc_3d_read_retrial
	.syntax unified
	.thumb
	.thumb_func
	.fpu softvfp
	.type	ymtc_3d_read_retrial, %function
ymtc_3d_read_retrial:
	@ args = 4, pretend = 0, frame = 0
	@ frame_needed = 0, uses_anonymous_args = 0
	push	{r0, r1, r4, r5, r6, r7, r8, r10, fp, lr}
	mov	r7, r0
	mov	r8, r1
	mov	r10, r2
	mov	fp, r3
	mov	r4, #-1
	bl	nandc_wait_flash_ready
	mov	r0, r7
	movs	r5, #1
	bl	zftl_flash_enter_slc_mode
	mov	r0, r7
	bl	zftl_flash_exit_slc_mode
	ldr	r2, .L2106
	tst	r8, #50331648
	add	r3, r7, #8
	ldr	r6, [r2]
	add	r6, r6, r3, lsl #8
	bne	.L2092
.L2087:
	uxtb	r1, r5
	mov	r0, r6
	bl	ymtc_3d_set_slc_rr_para
	ldr	r3, [sp, #40]
	mov	r1, r8
	mov	r2, r10
	mov	r0, r7
	str	r3, [sp]
	mov	r3, fp
	bl	flash_read_page
	adds	r1, r0, #1
	beq	.L2084
	ldr	r3, .L2106+4
	cmp	r4, #-1
	it	eq
	moveq	r4, r0
	ldr	r10, [r3]
	ldr	r3, .L2106+8
	ldr	fp, [r3]
	ldr	r3, .L2106+12
	ldrb	r3, [r3]	@ zero_extendqisi2
	add	r3, r3, r3, lsl #1
	cmp	r0, r3, asr #2
	bcc	.L2095
.L2084:
	adds	r5, r5, #1
	cmp	r5, #10
	bne	.L2087
.L2086:
	movs	r1, #0
	mov	r0, r6
	bl	ymtc_3d_set_slc_rr_para
.L2088:
	ldr	r3, .L2106+12
	ldrb	r3, [r3]	@ zero_extendqisi2
	add	r3, r3, r3, lsl #1
	cmp	r4, r3, asr #2
	bcc	.L2093
	adds	r3, r4, #1
	mov	r2, r8
	it	ne
	movne	r4, #256
	mov	r3, r5
	str	r4, [sp]
	mov	r1, r5
	ldr	r0, .L2106+16
	bl	printf
.L2093:
	bl	nandc_wait_flash_ready
	mov	r0, r4
	add	sp, sp, #8
	@ sp needed
	pop	{r4, r5, r6, r7, r8, r10, fp, pc}
.L2095:
	mov	r4, r0
	b	.L2086
.L2092:
	uxtb	r1, r5
	mov	r0, r6
	bl	ymtc_3d_set_tlc_rr_para
	ldr	r3, [sp, #40]
	mov	r2, r10
	mov	r1, r8
	mov	r0, r7
	str	r3, [sp]
	mov	r3, fp
	bl	flash_read_page
	adds	r2, r0, #1
	beq	.L2089
	ldr	r3, .L2106+4
	cmp	r4, #-1
	it	eq
	moveq	r4, r0
	ldr	r10, [r3]
	ldr	r3, .L2106+8
	ldr	fp, [r3]
	ldr	r3, .L2106+12
	ldrb	r3, [r3]	@ zero_extendqisi2
	add	r3, r3, r3, lsl #1
	cmp	r0, r3, asr #2
	bcc	.L2096
.L2089:
	adds	r5, r5, #1
	cmp	r5, #51
	bne	.L2092
.L2091:
	movs	r1, #0
	mov	r0, r6
	bl	ymtc_3d_set_tlc_rr_para
	b	.L2088
.L2096:
	mov	r4, r0
	b	.L2091
.L2107:
	.align	2
.L2106:
	.word	.LANCHOR7
	.word	.LANCHOR163
	.word	.LANCHOR165
	.word	.LANCHOR49
	.word	.LC117
	.size	ymtc_3d_read_retrial, .-ymtc_3d_read_retrial
	.section	.text.samsung_read_retrial,"ax",%progbits
	.align	1
	.global	samsung_read_retrial
	.syntax unified
	.thumb
	.thumb_func
	.fpu softvfp
	.type	samsung_read_retrial, %function
samsung_read_retrial:
	@ args = 4, pretend = 0, frame = 16
	@ frame_needed = 0, uses_anonymous_args = 0
	push	{r4, r5, r6, r7, r8, r10, fp, lr}
	mov	r7, r0
	sub	sp, sp, #24
	mov	r8, r1
	str	r3, [sp, #16]
	str	r2, [sp, #12]
	bl	nandc_wait_flash_ready
	mov	r0, r7
	bl	zftl_flash_enter_slc_mode
	mov	r0, r7
	bl	zftl_flash_exit_slc_mode
	ldr	r3, .L2141
	tst	r8, #50331648
	ldr	r3, [r3]
	str	r3, [sp, #8]
	bne	.L2109
	lsl	fp, r7, #8
	mov	r4, #-1
	movs	r5, #1
	add	r6, r3, fp
.L2114:
	movs	r3, #239
	str	r3, [r6, #2056]
	movs	r3, #141
	str	r3, [r6, #2052]
	ldr	r3, .L2141+4
	ldrsb	r3, [r5, r3]
	str	r3, [r6, #2048]
	movs	r3, #0
	str	r3, [r6, #2048]
	str	r3, [r6, #2048]
	str	r3, [r6, #2048]
	bl	nandc_wait_flash_ready
	ldr	r3, [sp, #56]
	mov	r1, r8
	ldr	r2, [sp, #12]
	mov	r0, r7
	str	r3, [sp]
	ldr	r3, [sp, #16]
	bl	flash_read_page
	ldr	r3, .L2141+8
	mov	r10, r0
	ldr	r3, [r3]
	lsls	r1, r3, #27
	bpl	.L2110
	mov	r3, r0
	mov	r2, r8
	mov	r1, r5
	ldr	r0, .L2141+12
	bl	printf
.L2110:
	cmp	r10, #-1
	beq	.L2111
	ldr	r3, .L2141+16
	cmp	r4, #-1
	it	eq
	moveq	r4, r10
	ldr	r3, [r3]
	str	r3, [sp, #12]
	ldr	r3, .L2141+20
	ldr	r3, [r3]
	str	r3, [sp, #16]
	ldr	r3, .L2141+24
	ldrb	r3, [r3]	@ zero_extendqisi2
	add	r3, r3, r3, lsl #1
	cmp	r10, r3, asr #2
	bcc	.L2123
.L2111:
	adds	r5, r5, #1
	cmp	r5, #26
	bne	.L2114
.L2113:
	ldr	r3, [sp, #8]
	add	r3, r3, fp
	mov	fp, r3
	movs	r3, #239
	str	r3, [fp, #2056]
	movs	r3, #141
.L2140:
	str	r3, [r6, #2052]
	movs	r3, #0
	str	r3, [r6, #2048]
	str	r3, [r6, #2048]
	str	r3, [r6, #2048]
	str	r3, [r6, #2048]
	bl	nandc_wait_flash_ready
	ldr	r3, .L2141+24
	ldrb	r3, [r3]	@ zero_extendqisi2
	add	r3, r3, r3, lsl #1
	cmp	r4, r3, asr #2
	bcc	.L2121
	adds	r3, r4, #1
	mov	r2, r8
	it	ne
	movne	r4, #256
	mov	r3, r5
	str	r4, [sp]
	mov	r1, r5
	ldr	r0, .L2141+28
	bl	printf
.L2121:
	bl	nandc_wait_flash_ready
	mov	r0, r4
	add	sp, sp, #24
	@ sp needed
	pop	{r4, r5, r6, r7, r8, r10, fp, pc}
.L2123:
	mov	r4, r10
	b	.L2113
.L2109:
	ldr	r3, [sp, #8]
	mov	r4, #-1
	ldr	r10, .L2141+36
	movs	r5, #1
	add	r6, r3, r7, lsl #8
	addw	r3, r6, #2056
	str	r3, [sp, #20]
.L2120:
	ldr	r3, [sp, #20]
	mov	r2, r3
	movs	r3, #239
	str	r3, [r2]
	movs	r3, #137
	str	r3, [r6, #2052]
	ldrb	r3, [r10, #4]	@ zero_extendqisi2
	str	r3, [r6, #2048]
	ldrb	r3, [r10, #5]	@ zero_extendqisi2
	str	r3, [r6, #2048]
	ldrb	r3, [r10, #6]	@ zero_extendqisi2
	str	r3, [r6, #2048]
	ldrb	r3, [r10, #7]	@ zero_extendqisi2
	str	r3, [r6, #2048]
	bl	nandc_wait_flash_ready
	ldr	r3, [sp, #56]
	mov	r1, r8
	ldr	r2, [sp, #12]
	mov	r0, r7
	str	r3, [sp]
	ldr	r3, [sp, #16]
	bl	flash_read_page
	ldr	r3, .L2141+8
	mov	fp, r0
	ldr	r3, [r3]
	lsls	r2, r3, #27
	bpl	.L2116
	mov	r3, r0
	mov	r2, r8
	mov	r1, r5
	ldr	r0, .L2141+32
	bl	printf
.L2116:
	cmp	fp, #-1
	beq	.L2117
	ldr	r3, .L2141+16
	cmp	r4, #-1
	it	eq
	moveq	r4, fp
	ldr	r3, [r3]
	str	r3, [sp, #12]
	ldr	r3, .L2141+20
	ldr	r3, [r3]
	str	r3, [sp, #16]
	ldr	r3, .L2141+24
	ldrb	r3, [r3]	@ zero_extendqisi2
	add	r3, r3, r3, lsl #1
	cmp	fp, r3, asr #2
	bcc	.L2124
.L2117:
	adds	r5, r5, #1
	add	r10, r10, #4
	cmp	r5, #26
	bne	.L2120
.L2119:
	ldr	r3, [sp, #8]
	add	r7, r3, r7, lsl #8
	movs	r3, #239
	str	r3, [r7, #2056]
	movs	r3, #137
	b	.L2140
.L2124:
	mov	r4, fp
	b	.L2119
.L2142:
	.align	2
.L2141:
	.word	.LANCHOR7
	.word	.LANCHOR167
	.word	.LANCHOR19
	.word	.LC118
	.word	.LANCHOR163
	.word	.LANCHOR165
	.word	.LANCHOR49
	.word	.LC120
	.word	.LC119
	.word	.LANCHOR168
	.size	samsung_read_retrial, .-samsung_read_retrial
	.section	.text.hynix_read_retrial,"ax",%progbits
	.align	1
	.global	hynix_read_retrial
	.syntax unified
	.thumb
	.thumb_func
	.fpu softvfp
	.type	hynix_read_retrial, %function
hynix_read_retrial:
	@ args = 4, pretend = 0, frame = 8
	@ frame_needed = 0, uses_anonymous_args = 0
	push	{r0, r1, r2, r3, r4, r5, r6, r7, r8, r10, fp, lr}
	mov	r6, r0
	str	r3, [sp, #12]
	mov	r8, r1
	movs	r7, #0
	mov	r4, #-1
	ldr	r3, .L2157
	str	r2, [sp, #8]
	ldr	r3, [r3]
	add	r10, r3, r0
	ldrb	fp, [r3, #114]	@ zero_extendqisi2
	ldrb	r5, [r10, #120]	@ zero_extendqisi2
	bl	nandc_wait_flash_ready
	mov	r0, r6
	bl	zftl_flash_enter_slc_mode
	mov	r0, r6
	bl	zftl_flash_exit_slc_mode
.L2144:
	cmp	r7, fp
	bcc	.L2149
.L2148:
	ldr	r3, .L2157+4
	strb	r5, [r10, #120]
	ldrb	r3, [r3]	@ zero_extendqisi2
	add	r3, r3, r3, lsl #1
	cmp	r4, r3, asr #2
	bcc	.L2150
	adds	r3, r4, #1
	mov	r2, r8
	it	ne
	movne	r4, #256
	mov	r3, r7
	str	r4, [sp]
	mov	r1, r7
	ldr	r0, .L2157+8
	bl	printf
.L2150:
	bl	nandc_wait_flash_ready
	mov	r0, r4
	add	sp, sp, #16
	@ sp needed
	pop	{r4, r5, r6, r7, r8, r10, fp, pc}
.L2149:
	adds	r5, r5, #1
	mov	r0, r6
	uxtb	r5, r5
	cmp	fp, r5
	it	ls
	movls	r5, #0
	mov	r1, r5
	bl	hynix_set_rr_para
	ldr	r3, [sp, #48]
	mov	r1, r8
	ldr	r2, [sp, #8]
	mov	r0, r6
	str	r3, [sp]
	ldr	r3, [sp, #12]
	bl	flash_read_page
	adds	r2, r0, #1
	beq	.L2146
	ldr	r3, .L2157+12
	cmp	r4, #-1
	it	eq
	moveq	r4, r0
	ldr	r3, [r3]
	str	r3, [sp, #8]
	ldr	r3, .L2157+16
	ldr	r3, [r3]
	str	r3, [sp, #12]
	ldr	r3, .L2157+4
	ldrb	r3, [r3]	@ zero_extendqisi2
	add	r3, r3, r3, lsl #1
	cmp	r0, r3, asr #2
	bcc	.L2152
.L2146:
	adds	r7, r7, #1
	b	.L2144
.L2152:
	mov	r4, r0
	b	.L2148
.L2158:
	.align	2
.L2157:
	.word	.LANCHOR6
	.word	.LANCHOR49
	.word	.LC121
	.word	.LANCHOR163
	.word	.LANCHOR165
	.size	hynix_read_retrial, .-hynix_read_retrial
	.section	.text.flash_ddr_tuning_read,"ax",%progbits
	.align	1
	.global	flash_ddr_tuning_read
	.syntax unified
	.thumb
	.thumb_func
	.fpu softvfp
	.type	flash_ddr_tuning_read, %function
flash_ddr_tuning_read:
	@ args = 4, pretend = 0, frame = 24
	@ frame_needed = 0, uses_anonymous_args = 0
	push	{r4, r5, r6, r7, r8, r10, fp, lr}
	movs	r4, #0
	sub	sp, sp, #32
	mov	r5, r4
	mov	r6, #1024
	movs	r7, #6
	str	r3, [sp, #20]
	mov	r8, r0
	mov	fp, r1
	str	r2, [sp, #16]
	bl	nandc_get_ddr_para
	mov	r3, #-1
	str	r0, [sp, #28]
	str	r4, [sp, #24]
	str	r4, [sp, #12]
	str	r3, [sp, #8]
.L2165:
	uxtb	r0, r7
	bl	nandc_set_ddr_para
	ldr	r3, [sp, #64]
	mov	r1, fp
	ldr	r2, [sp, #16]
	mov	r0, r8
	str	r3, [sp]
	ldr	r3, [sp, #20]
	bl	flash_read_page
	ldr	r3, .L2185
	mov	r10, r0
	ldr	r3, [r3]
	lsls	r2, r3, #27
	bpl	.L2160
	mov	r3, r0
	mov	r2, fp
	mov	r1, r7
	ldr	r0, .L2185+4
	bl	printf
.L2160:
	adds	r3, r6, #1
	cmp	r10, r3
	bhi	.L2161
	ldr	r3, .L2185+8
	ldr	r3, [r3]
	str	r3, [sp, #16]
	ldr	r3, .L2185+12
	ldr	r3, [r3]
	str	r3, [sp, #20]
	ldr	r3, .L2185+16
	ldrb	r3, [r3]	@ zero_extendqisi2
	cmp	r10, r3, lsr #2
	bcs	.L2171
	adds	r5, r5, #1
	cmp	r5, #7
	bls	.L2171
	subs	r4, r7, r5
	mov	r6, r10
	movs	r3, #0
	str	r3, [sp, #8]
.L2163:
	ldr	r3, [sp, #24]
	ldr	r2, [sp, #12]
	cmp	r5, r2
	it	cc
	movcc	r4, r3
.L2164:
	cmp	r4, #0
	beq	.L2166
	ldr	r3, .L2185+16
	ldrb	r2, [r3]	@ zero_extendqisi2
	ldr	r3, .L2185+20
	umull	r2, r3, r2, r3
	ubfx	r3, r3, #1, #8
	cmp	r3, r6
	bls	.L2166
	mov	r1, r4
	ldr	r0, .L2185+24
	bl	printf
	uxtb	r0, r4
.L2184:
	bl	nandc_set_ddr_para
	ldr	r3, [sp, #8]
	cmp	r3, #0
	beq	.L2159
	ldr	r4, .L2185+28
	ldrb	r3, [r4]	@ zero_extendqisi2
	lsls	r3, r3, #31
	bpl	.L2159
	mov	r1, r8
	mov	r2, fp
	ldr	r0, .L2185+32
	bl	printf
	mov	r0, r8
	bl	flash_reset
	movs	r0, #1
	bl	flash_set_interface_mode
	movs	r0, #1
	bl	nandc_set_if_mode
	ldr	r3, .L2185+36
	movs	r2, #2
	mov	r0, r8
	strb	r2, [r3, r8]
	bl	zftl_flash_enter_slc_mode
	ldr	r3, [sp, #64]
	mov	r1, fp
	ldr	r2, [sp, #16]
	mov	r0, r8
	str	r3, [sp]
	ldr	r3, [sp, #20]
	bl	flash_read_page
	mov	r2, fp
	mov	r3, r0
	mov	r6, r0
	mov	r1, r8
	ldr	r0, .L2185+40
	bl	printf
	ldr	r3, .L2185+16
	ldrb	r3, [r3]	@ zero_extendqisi2
	cmp	r6, r3
	bhi	.L2173
	ldr	r2, .L2185+44
	ldr	r3, [r2]
	adds	r3, r3, #1
	cmp	r3, #100
	str	r3, [r2]
	bls	.L2169
	ldr	r3, .L2185+48
	movs	r2, #0
	strb	r2, [r3]
.L2159:
	mov	r0, r6
	add	sp, sp, #32
	@ sp needed
	pop	{r4, r5, r6, r7, r8, r10, fp, pc}
.L2161:
	ldr	r3, [sp, #12]
	cmp	r5, r3
	bls	.L2172
	cmp	r5, #7
	sub	r3, r4, r5
	str	r3, [sp, #24]
	bhi	.L2164
	str	r5, [sp, #12]
.L2172:
	movs	r5, #0
	b	.L2162
.L2171:
	mov	r4, r7
	mov	r6, r10
	movs	r3, #0
	str	r3, [sp, #8]
.L2162:
	adds	r7, r7, #2
	cmp	r7, #50
	bne	.L2165
	b	.L2163
.L2166:
	ldrb	r0, [sp, #28]	@ zero_extendqisi2
	b	.L2184
.L2173:
	ldr	r6, [sp, #8]
.L2169:
	ldrb	r0, [r4]	@ zero_extendqisi2
	bl	flash_set_interface_mode
	ldrb	r0, [r4]	@ zero_extendqisi2
	bl	nandc_set_if_mode
	b	.L2159
.L2186:
	.align	2
.L2185:
	.word	.LANCHOR19
	.word	.LC122
	.word	.LANCHOR163
	.word	.LANCHOR165
	.word	.LANCHOR49
	.word	-1431655765
	.word	.LC123
	.word	.LANCHOR48
	.word	.LC124
	.word	.LANCHOR33
	.word	.LC125
	.word	.LANCHOR169
	.word	.LANCHOR26
	.size	flash_ddr_tuning_read, .-flash_ddr_tuning_read
	.section	.text.flash_read_page_en,"ax",%progbits
	.align	1
	.global	flash_read_page_en
	.syntax unified
	.thumb
	.thumb_func
	.fpu softvfp
	.type	flash_read_page_en, %function
flash_read_page_en:
	@ args = 4, pretend = 0, frame = 8
	@ frame_needed = 0, uses_anonymous_args = 0
	push	{r0, r1, r2, r3, r4, r5, r6, r7, r8, r10, fp, lr}
	mov	r8, r3
	ldr	r3, .L2214
	mov	r7, r2
	mov	r5, r0
	mov	r4, r1
	ldr	r10, [sp, #48]
	ldrb	r2, [r3]	@ zero_extendqisi2
	mov	fp, r3
	cmp	r2, r0
	bhi	.L2188
	movw	r2, #431
	ldr	r1, .L2214+4
	ldr	r0, .L2214+8
	bl	printf
.L2188:
	ldr	r3, .L2214+12
	ldrb	r6, [r3, r5]	@ zero_extendqisi2
	ldrb	r3, [fp]	@ zero_extendqisi2
	cmp	r5, r3
	bcc	.L2189
	ldr	r2, .L2214+16
	ldr	r2, [r2]
	lsls	r0, r2, #25
	bmi	.L2190
.L2213:
	mov	r0, #-1
.L2187:
	add	sp, sp, #16
	@ sp needed
	pop	{r4, r5, r6, r7, r8, r10, fp, pc}
.L2190:
	str	r3, [sp]
	mov	r2, r5
	mov	r3, r4
	mov	r1, r6
	ldr	r0, .L2214+20
	bl	printf
	b	.L2213
.L2189:
	tst	r4, #50331648
	bne	.L2192
	ldr	r3, .L2214+24
	ldrb	r2, [r3]	@ zero_extendqisi2
	ldr	r3, .L2214+28
	cbz	r2, .L2193
	ldrb	r2, [r3]	@ zero_extendqisi2
	cbz	r2, .L2192
.L2193:
	ldr	r2, .L2214+32
	mov	r0, r4
	str	r3, [sp, #12]
	ldrh	r5, [r2]
	mov	r1, r5
	bl	__aeabi_uidiv
	mov	r1, r5
	mul	fp, r5, r0
	mov	r0, r4
	bl	__aeabi_uidivmod
	ldr	r3, [sp, #12]
	ldrb	r3, [r3]	@ zero_extendqisi2
	cbz	r3, .L2194
	add	r4, fp, r1, lsl #1
.L2192:
	mov	r1, r4
	str	r10, [sp]
	mov	r3, r8
	mov	r2, r7
	mov	r0, r6
	bl	flash_read_page
	adds	r1, r0, #1
	bne	.L2187
	ldr	r5, .L2214+36
	ldrb	fp, [r5]	@ zero_extendqisi2
	cmp	fp, #0
	bne	.L2195
.L2198:
	ldr	r3, .L2214+40
	ldr	fp, [r3]
	cmp	fp, #0
	bne	.L2196
.L2197:
	ldrb	r3, [r5]	@ zero_extendqisi2
	mov	r2, r4
	movs	r1, #0
	ldr	r0, .L2214+44
	str	r3, [sp]
	mov	r3, #-1
	bl	printf
	ldr	r3, .L2214+48
	ldrb	r3, [r3]	@ zero_extendqisi2
	cmp	r3, #0
	beq	.L2213
	str	r10, [sp, #48]
	mov	r3, r8
	mov	r2, r7
	mov	r1, r4
	mov	r0, r6
	add	sp, sp, #16
	@ sp needed
	pop	{r4, r5, r6, r7, r8, r10, fp, lr}
	b	flash_ddr_tuning_read
.L2194:
	ldr	r3, .L2214+52
	ldrh	r4, [r3, r1, lsl #1]
	add	r4, r4, fp
	b	.L2192
.L2195:
	movs	r3, #0
	mov	r2, r7
	strb	r3, [r5]
	mov	r1, r4
	str	r10, [sp]
	mov	r3, r8
	mov	r0, r6
	bl	flash_read_page
	adds	r2, r0, #1
	strb	fp, [r5]
	beq	.L2198
	b	.L2187
.L2196:
	mov	r3, r8
	str	r10, [sp]
	mov	r2, r7
	mov	r1, r4
	mov	r0, r6
	blx	fp
	adds	r3, r0, #1
	beq	.L2197
	b	.L2187
.L2215:
	.align	2
.L2214:
	.word	.LANCHOR23
	.word	.LANCHOR170
	.word	.LC0
	.word	.LANCHOR29
	.word	.LANCHOR19
	.word	.LC126
	.word	.LANCHOR0
	.word	.LANCHOR1
	.word	.LANCHOR2
	.word	.LANCHOR51
	.word	.LANCHOR171
	.word	.LC127
	.word	.LANCHOR26
	.word	.LANCHOR3
	.size	flash_read_page_en, .-flash_read_page_en
	.section	.text.flash_get_last_written_page,"ax",%progbits
	.align	1
