	.arch armv8-a+nosimd
	.file	"rk3308-secure-otp.c"
	.text
.Ltext0:
	.cfi_sections	.debug_frame
	.section	.text.rk3308_spl_rockchip_otp_start,"ax",@progbits
	.align	2
	.type	rk3308_spl_rockchip_otp_start, %function
rk3308_spl_rockchip_otp_start:
.LFB262:
	.file 1 "drivers/misc/rk3308-secure-otp.c"
	.loc 1 90 0
	.cfi_startproc
.LVL0:
.LBB28:
	.loc 1 91 0
#APP
// 91 "drivers/misc/rk3308-secure-otp.c" 1
	dmb sy
// 0 "" 2
#NO_APP
	mov	w1, 16
.LVL1:
	sdiv	w3, w3, w1
.LVL2:
	mov	w1, -65536
	lsl	w3, w3, 2
	sxtw	x3, w3
	str	w1, [x3, x2]
.LVL3:
.LBE28:
.LBB29:
	.loc 1 92 0
#APP
// 92 "drivers/misc/rk3308-secure-otp.c" 1
	dmb sy
// 0 "" 2
#NO_APP
	mov	w1, 262148
	str	w1, [x0]
	ret
.LBE29:
	.cfi_endproc
.LFE262:
	.size	rk3308_spl_rockchip_otp_start, .-rk3308_spl_rockchip_otp_start
	.section	.text.rk3308_spl_rockchip_otp_stop,"ax",@progbits
	.align	2
	.type	rk3308_spl_rockchip_otp_stop, %function
rk3308_spl_rockchip_otp_stop:
.LFB263:
	.loc 1 98 0
	.cfi_startproc
.LVL4:
.LBB30:
	.loc 1 99 0
#APP
// 99 "drivers/misc/rk3308-secure-otp.c" 1
	dmb sy
// 0 "" 2
#NO_APP
	mov	w1, 262144
.LVL5:
	str	w1, [x0]
.LVL6:
.LBE30:
.LBB31:
	.loc 1 100 0
#APP
// 100 "drivers/misc/rk3308-secure-otp.c" 1
	dmb sy
// 0 "" 2
#NO_APP
	mov	w0, 16
.LVL7:
	sdiv	w3, w3, w0
.LVL8:
	mov	w0, -1
	lsl	w3, w3, 2
	sxtw	x3, w3
	str	w0, [x3, x2]
	ret
.LBE31:
	.cfi_endproc
.LFE263:
	.size	rk3308_spl_rockchip_otp_stop, .-rk3308_spl_rockchip_otp_stop
	.section	.text.rk3308s_secure_otp_read,"ax",@progbits
	.align	2
	.type	rk3308s_secure_otp_read, %function
rk3308s_secure_otp_read:
.LFB268:
	.loc 1 191 0
	.cfi_startproc
.LVL9:
	stp	x29, x30, [sp, -96]!
	.cfi_def_cfa_offset 96
	.cfi_offset 29, -96
	.cfi_offset 30, -88
	add	x29, sp, 0
	.cfi_def_cfa_register 29
	stp	x25, x26, [sp, 64]
	.cfi_offset 25, -32
	.cfi_offset 26, -24
	mov	x25, x2
	stp	x19, x20, [sp, 16]
	.cfi_offset 19, -80
	.cfi_offset 20, -72
	mov	w19, w1
	stp	x23, x24, [sp, 48]
	.cfi_offset 23, -48
	.cfi_offset 24, -40
	mov	w23, w3
	stp	x21, x22, [sp, 32]
	stp	x27, x28, [sp, 80]
	.cfi_offset 21, -64
	.cfi_offset 22, -56
	.cfi_offset 27, -16
	.cfi_offset 28, -8
	.loc 1 192 0
	bl	dev_get_platdata
.LVL10:
	.loc 1 198 0
	tst	x25, 3
	bne	.L4
	mov	x20, x0
	.loc 1 198 0 is_stmt 0 discriminator 1
	orr	w0, w19, w23
.LVL11:
	tst	x0, 3
	beq	.L5
.LVL12:
.L4:
	.loc 1 199 0 is_stmt 1
	adrp	x0, .LC0
	add	x0, x0, :lo12:.LC0
.LVL13:
.L15:
	.loc 1 214 0
	bl	printf
.LVL14:
.L12:
	.loc 1 209 0
	mov	w0, -1
	b	.L3
.LVL15:
.L5:
	.loc 1 203 0
	asr	w26, w19, 2
.LVL16:
	asr	w23, w23, 2
.LVL17:
	add	w22, w26, 1
	.loc 1 206 0
	mov	x21, 0
	lsl	w22, w22, 2
	.loc 1 196 0
	mov	w24, 10000
.LBB32:
	.loc 1 220 0
	mov	w27, 1
.LBE32:
.LBB33:
	.loc 1 222 0
	mov	w28, 3
.LVL18:
.L7:
	add	w1, w26, w21
.LVL19:
.LBE33:
	.loc 1 206 0
	cmp	x21, x23
	bne	.L11
	.loc 1 194 0
	mov	w0, 0
	b	.L3
.L11:
	.loc 1 208 0
	cmp	w19, 448
	bgt	.L12
	.loc 1 211 0
	sub	w0, w19, #16
	cmp	w19, 0
	ccmp	w0, 31, 0, ne
	bls	.L8
	.loc 1 211 0 is_stmt 0 discriminator 1
	sub	w19, w19, #128
.LVL20:
	cmp	w19, 263
	bls	.L8
	.loc 1 214 0 is_stmt 1
	adrp	x0, .LC1
	add	x0, x0, :lo12:.LC1
	b	.L15
.LVL21:
.L8:
.LBB34:
	.loc 1 219 0
#APP
// 219 "drivers/misc/rk3308-secure-otp.c" 1
	dmb sy
// 0 "" 2
#NO_APP
	ldr	x0, [x20]
.LVL22:
	str	wzr, [x0, 8200]
.LVL23:
.LBE34:
.LBB35:
	.loc 1 220 0
#APP
// 220 "drivers/misc/rk3308-secure-otp.c" 1
	dmb sy
// 0 "" 2
#NO_APP
	ldr	x0, [x20]
	str	w27, [x0, 8224]
.LVL24:
.LBE35:
.LBB36:
	.loc 1 221 0
#APP
// 221 "drivers/misc/rk3308-secure-otp.c" 1
	dmb sy
// 0 "" 2
#NO_APP
	ldr	x0, [x20]
	str	w1, [x0, 8204]
.LVL25:
.LBE36:
.LBB37:
	.loc 1 222 0
#APP
// 222 "drivers/misc/rk3308-secure-otp.c" 1
	dmb sy
// 0 "" 2
#NO_APP
	ldr	x0, [x20]
	str	w28, [x0, 8192]
.LVL26:
.L9:
.LBE37:
.LBB38:
	.loc 1 224 0
	ldr	x0, [x20]
	ldr	w0, [x0, 8200]
.LVL27:
#APP
// 224 "drivers/misc/rk3308-secure-otp.c" 1
	dmb sy
// 0 "" 2
#NO_APP
.LBE38:
	tbz	x0, 0, .L10
.LVL28:
.LBB39:
	.loc 1 235 0
#APP
// 235 "drivers/misc/rk3308-secure-otp.c" 1
	dmb sy
// 0 "" 2
#NO_APP
	ldr	x0, [x20]
.LVL29:
	str	w27, [x0, 8200]
.LBE39:
.LBB40:
	.loc 1 236 0
	ldr	w0, [x0, 8208]
.LVL30:
#APP
// 236 "drivers/misc/rk3308-secure-otp.c" 1
	dmb sy
// 0 "" 2
#NO_APP
.LBE40:
	str	w0, [x25, x21, lsl 2]
	.loc 1 237 0
	mov	w19, w22
.LVL31:
	add	x21, x21, 1
.LVL32:
	add	w22, w22, 4
	b	.L7
.LVL33:
.L10:
	.loc 1 225 0
	mov	x0, 1
.LVL34:
	.loc 1 226 0
	sub	w24, w24, #1
.LVL35:
	.loc 1 225 0
	bl	udelay
.LVL36:
	.loc 1 227 0
	cmp	w24, 0
	bgt	.L9
	.loc 1 228 0
	adrp	x1, .LANCHOR0
	adrp	x0, .LC2
	add	x1, x1, :lo12:.LANCHOR0
	add	x0, x0, :lo12:.LC2
	bl	printf
.LVL37:
	.loc 1 229 0
	mov	w0, -110
.LVL38:
.L3:
	.loc 1 242 0
	ldp	x19, x20, [sp, 16]
	ldp	x21, x22, [sp, 32]
	ldp	x23, x24, [sp, 48]
	ldp	x25, x26, [sp, 64]
.LVL39:
	ldp	x27, x28, [sp, 80]
	ldp	x29, x30, [sp], 96
	.cfi_restore 30
	.cfi_restore 29
	.cfi_restore 27
	.cfi_restore 28
	.cfi_restore 25
	.cfi_restore 26
	.cfi_restore 23
	.cfi_restore 24
	.cfi_restore 21
	.cfi_restore 22
	.cfi_restore 19
	.cfi_restore 20
	.cfi_def_cfa 31, 0
	ret
	.cfi_endproc
.LFE268:
	.size	rk3308s_secure_otp_read, .-rk3308s_secure_otp_read
	.section	.text.secure_otp_write,"ax",@progbits
	.align	2
	.type	secure_otp_write, %function
secure_otp_write:
.LFB280:
	.loc 1 711 0
	.cfi_startproc
.LVL40:
	stp	x29, x30, [sp, -48]!
	.cfi_def_cfa_offset 48
	.cfi_offset 29, -48
	.cfi_offset 30, -40
	add	x29, sp, 0
	.cfi_def_cfa_register 29
	stp	x19, x20, [sp, 16]
	.cfi_offset 19, -32
	.cfi_offset 20, -24
	mov	x19, x0
	stp	x21, x22, [sp, 32]
	.cfi_offset 21, -16
	.cfi_offset 22, -8
	.loc 1 711 0
	mov	w20, w1
	mov	x21, x2
	mov	w22, w3
	.loc 1 712 0
	bl	dev_get_driver_data
.LVL41:
	.loc 1 714 0
	ldr	x4, [x0, 8]
	mov	w3, w22
	mov	x2, x21
	mov	w1, w20
	mov	x0, x19
.LVL42:
	.loc 1 715 0
	ldp	x21, x22, [sp, 32]
.LVL43:
	ldp	x19, x20, [sp, 16]
.LVL44:
	ldp	x29, x30, [sp], 48
	.cfi_restore 30
	.cfi_restore 29
	.cfi_restore 21
	.cfi_restore 22
	.cfi_restore 19
	.cfi_restore 20
	.cfi_def_cfa 31, 0
	.loc 1 714 0
	br	x4
.LVL45:
	.cfi_endproc
.LFE280:
	.size	secure_otp_write, .-secure_otp_write
	.section	.text.secure_otp_read,"ax",@progbits
	.align	2
	.type	secure_otp_read, %function
secure_otp_read:
.LFB279:
	.loc 1 703 0
	.cfi_startproc
.LVL46:
	stp	x29, x30, [sp, -48]!
	.cfi_def_cfa_offset 48
	.cfi_offset 29, -48
	.cfi_offset 30, -40
	add	x29, sp, 0
	.cfi_def_cfa_register 29
	stp	x19, x20, [sp, 16]
	.cfi_offset 19, -32
	.cfi_offset 20, -24
	mov	x19, x0
	stp	x21, x22, [sp, 32]
	.cfi_offset 21, -16
	.cfi_offset 22, -8
	.loc 1 703 0
	mov	w20, w1
	mov	x21, x2
	mov	w22, w3
	.loc 1 704 0
	bl	dev_get_driver_data
.LVL47:
	.loc 1 706 0
	ldr	x4, [x0]
	mov	w3, w22
	mov	x2, x21
	mov	w1, w20
	mov	x0, x19
.LVL48:
	.loc 1 707 0
	ldp	x21, x22, [sp, 32]
.LVL49:
	ldp	x19, x20, [sp, 16]
.LVL50:
	ldp	x29, x30, [sp], 48
	.cfi_restore 30
	.cfi_restore 29
	.cfi_restore 21
	.cfi_restore 22
	.cfi_restore 19
	.cfi_restore 20
	.cfi_def_cfa 31, 0
	.loc 1 706 0
	br	x4
.LVL51:
	.cfi_endproc
.LFE279:
	.size	secure_otp_read, .-secure_otp_read
	.section	.text.rockchip_secure_otp_ofdata_to_platdata,"ax",@progbits
	.align	2
	.type	rockchip_secure_otp_ofdata_to_platdata, %function
rockchip_secure_otp_ofdata_to_platdata:
.LFB283:
	.loc 1 750 0
	.cfi_startproc
.LVL52:
	stp	x29, x30, [sp, -32]!
	.cfi_def_cfa_offset 32
	.cfi_offset 29, -32
	.cfi_offset 30, -24
	add	x29, sp, 0
	.cfi_def_cfa_register 29
	stp	x19, x20, [sp, 16]
	.cfi_offset 19, -16
	.cfi_offset 20, -8
	.loc 1 750 0
	mov	x20, x0
	.loc 1 751 0
	bl	dev_get_platdata
.LVL53:
	mov	x19, x0
.LVL54:
	.loc 1 753 0
	mov	x0, x20
.LVL55:
	bl	dev_read_addr_ptr
.LVL56:
	.loc 1 754 0
	mov	w2, 0
	adrp	x1, .LC3
	.loc 1 753 0
	str	x0, [x19]
	.loc 1 754 0
	add	x1, x1, :lo12:.LC3
	mov	x0, x20
	bl	dev_read_u32_default
.LVL57:
	.loc 1 755 0
	uxtw	x0, w0
	str	x0, [x19, 8]
	.loc 1 756 0
	mov	w2, 0
	mov	x0, x20
	adrp	x1, .LC4
	add	x1, x1, :lo12:.LC4
	bl	dev_read_u32_default
.LVL58:
	.loc 1 757 0
	uxtw	x0, w0
	str	x0, [x19, 16]
	.loc 1 758 0
	mov	w2, 0
	mov	x0, x20
	adrp	x1, .LC5
	add	x1, x1, :lo12:.LC5
	bl	dev_read_u32_default
.LVL59:
	.loc 1 759 0
	uxtw	x0, w0
	str	x0, [x19, 24]
	.loc 1 762 0
	mov	w0, 0
	ldp	x19, x20, [sp, 16]
.LVL60:
	ldp	x29, x30, [sp], 32
	.cfi_restore 30
	.cfi_restore 29
	.cfi_restore 19
	.cfi_restore 20
	.cfi_def_cfa 31, 0
	ret
	.cfi_endproc
.LFE283:
	.size	rockchip_secure_otp_ofdata_to_platdata, .-rockchip_secure_otp_ofdata_to_platdata
	.section	.text.rockchip_secure_otp_wait_status.isra.2,"ax",@progbits
	.align	2
	.type	rockchip_secure_otp_wait_status.isra.2, %function
rockchip_secure_otp_wait_status.isra.2:
.LFB286:
	.loc 1 103 0
	.cfi_startproc
.LVL61:
	stp	x29, x30, [sp, -48]!
	.cfi_def_cfa_offset 48
	.cfi_offset 29, -48
	.cfi_offset 30, -40
	add	x29, sp, 0
	.cfi_def_cfa_register 29
	stp	x19, x20, [sp, 16]
	.cfi_offset 19, -32
	.cfi_offset 20, -24
	mov	w19, w1
	str	x21, [sp, 32]
	.cfi_offset 21, -16
	.loc 1 103 0
	mov	x21, x0
	mov	w20, 10000
.LVL62:
.L23:
.LBB47:
	.loc 1 108 0
	ldr	x0, [x21]
	ldr	w0, [x0, 772]
.LVL63:
#APP
// 108 "drivers/misc/rk3308-secure-otp.c" 1
	dmb sy
// 0 "" 2
#NO_APP
.LBE47:
	tst	w0, w19
	beq	.L25
.LBB48:
	.loc 1 118 0
	orr	w19, w19, -65536
.LVL64:
#APP
// 118 "drivers/misc/rk3308-secure-otp.c" 1
	dmb sy
// 0 "" 2
#NO_APP
	ldr	x0, [x21]
.LVL65:
	str	w19, [x0, 772]
.LBE48:
	.loc 1 120 0
	mov	w0, 0
	b	.L22
.LVL66:
.L25:
	.loc 1 109 0
	mov	x0, 1
.LVL67:
	bl	udelay
.LVL68:
	.loc 1 111 0
	subs	w20, w20, #1
.LVL69:
	bne	.L23
.LVL70:
.LBB49:
.LBB50:
	.loc 1 112 0
	adrp	x1, .LANCHOR1
	adrp	x0, .LC2
	add	x1, x1, :lo12:.LANCHOR1
	add	x0, x0, :lo12:.LC2
	bl	printf
.LVL71:
	mov	w0, -110
.LVL72:
.L22:
.LBE50:
.LBE49:
	.loc 1 121 0
	ldp	x19, x20, [sp, 16]
.LVL73:
	ldr	x21, [sp, 32]
	ldp	x29, x30, [sp], 48
	.cfi_restore 30
	.cfi_restore 29
	.cfi_restore 21
	.cfi_restore 19
	.cfi_restore 20
	.cfi_def_cfa 31, 0
	ret
	.cfi_endproc
.LFE286:
	.size	rockchip_secure_otp_wait_status.isra.2, .-rockchip_secure_otp_wait_status.isra.2
	.section	.text.rockchip_secure_otp_read,"ax",@progbits
	.align	2
	.type	rockchip_secure_otp_read, %function
rockchip_secure_otp_read:
.LFB270:
	.loc 1 298 0
	.cfi_startproc
.LVL74:
.LBB67:
	.loc 1 302 0
	mov	x4, 2048
	movk	x4, 0xff00, lsl 16
	ldr	w4, [x4]
.LVL75:
#APP
// 302 "drivers/misc/rk3308-secure-otp.c" 1
	dmb sy
// 0 "" 2
.LVL76:
#NO_APP
.LBE67:
	.loc 1 304 0
	mov	w5, 12428
	movk	w5, 0x3, lsl 16
	cmp	w4, w5
	bne	.L29
	.loc 1 305 0
	b	rk3308s_secure_otp_read
.LVL77:
.L29:
	.loc 1 298 0
	stp	x29, x30, [sp, -80]!
	.cfi_def_cfa_offset 80
	.cfi_offset 29, -80
	.cfi_offset 30, -72
	add	x29, sp, 0
	.cfi_def_cfa_register 29
	stp	x19, x20, [sp, 16]
	.cfi_offset 19, -64
	.cfi_offset 20, -56
	mov	w20, w1
	stp	x21, x22, [sp, 32]
	.loc 1 307 0
	mov	w1, 13064
.LVL78:
	.loc 1 298 0
	stp	x23, x24, [sp, 48]
	.loc 1 307 0
	cmp	w4, w1
	.loc 1 298 0
	str	x25, [sp, 64]
	.cfi_offset 21, -48
	.cfi_offset 22, -40
	.cfi_offset 23, -32
	.cfi_offset 24, -24
	.cfi_offset 25, -16
	.loc 1 307 0
	bne	.L30
	mov	x22, x2
	mov	w24, w3
	mov	x23, x0
.LVL79:
.LBB68:
.LBB69:
	.loc 1 247 0
	bl	dev_get_platdata
.LVL80:
	mov	x19, x0
.LVL81:
	.loc 1 248 0
	mov	x0, x23
.LVL82:
	bl	dev_get_driver_data
.LVL83:
	mov	x25, x0
.LVL84:
	.loc 1 253 0
	mov	w3, w20
	ldp	x0, x2, [x19, 8]
.LVL85:
	ldr	x1, [x19, 24]
	ldr	x4, [x25, 16]
	blr	x4
.LVL86:
.LBB70:
.LBB71:
.LBB72:
	.loc 1 172 0
#APP
// 172 "drivers/misc/rk3308-secure-otp.c" 1
	dmb sy
// 0 "" 2
#NO_APP
	ldr	x0, [x19]
	mov	w1, 512
	movk	w1, 0xff00, lsl 16
	str	w1, [x0, 32]
.LVL87:
.LBE72:
.LBB73:
	.loc 1 173 0
#APP
// 173 "drivers/misc/rk3308-secure-otp.c" 1
	dmb sy
// 0 "" 2
#NO_APP
	ldr	x0, [x19]
	mov	w1, -65535
	str	w1, [x0, 36]
.LVL88:
.LBE73:
.LBB74:
	.loc 1 174 0
#APP
// 174 "drivers/misc/rk3308-secure-otp.c" 1
	dmb sy
// 0 "" 2
#NO_APP
	ldr	x0, [x19]
	mov	w1, 250
	str	w1, [x0, 4096]
.LVL89:
.LBE74:
.LBB75:
	.loc 1 176 0
#APP
// 176 "drivers/misc/rk3308-secure-otp.c" 1
	dmb sy
// 0 "" 2
#NO_APP
	ldr	x0, [x19]
	str	wzr, [x0, 4100]
.LVL90:
.LBE75:
.LBB76:
	.loc 1 180 0
#APP
// 180 "drivers/misc/rk3308-secure-otp.c" 1
	dmb sy
// 0 "" 2
#NO_APP
	ldr	x0, [x19]
	mov	w1, 65537
	str	w1, [x0, 32]
.LBE76:
	.loc 1 182 0
	mov	w1, 2
	mov	x0, x19
	bl	rockchip_secure_otp_wait_status.isra.2
.LVL91:
	.loc 1 183 0
	tbz	w0, #31, .L31
	.loc 1 184 0
	adrp	x1, .LANCHOR2
	adrp	x0, .LC6
.LVL92:
	add	x1, x1, :lo12:.LANCHOR2
	add	x0, x0, :lo12:.LC6
	bl	printf
.LVL93:
.L31:
.LBE71:
.LBE70:
.LBB77:
	.loc 1 257 0
#APP
// 257 "drivers/misc/rk3308-secure-otp.c" 1
	dmb sy
// 0 "" 2
#NO_APP
	ldr	x0, [x19]
	mov	w23, 65537
.LVL94:
	add	w24, w24, w20
.LVL95:
.LBE77:
	.loc 1 251 0
	mov	w21, 0
.LBB78:
	.loc 1 257 0
	str	w23, [x0, 256]
.LBE78:
	.loc 1 258 0
	mov	x0, 50
	bl	udelay
.LVL96:
.L32:
	.loc 1 259 0
	cmp	w20, w24
	beq	.L36
	.loc 1 261 0
	cmp	w20, 448
	bgt	.L38
	.loc 1 264 0
	sub	w1, w20, #16
	mov	w0, w20
	cmp	w1, 31
	ccmp	w20, 3, 4, hi
	ble	.L34
	sub	w1, w20, #128
	cmp	w1, 263
	bls	.L34
	.loc 1 267 0
	adrp	x0, .LC1
	add	x0, x0, :lo12:.LC1
.LVL97:
.L41:
.LBE69:
.LBE68:
	.loc 1 311 0
	bl	printf
.LVL98:
.L38:
.LBB88:
.LBB85:
	.loc 1 262 0
	mov	w21, -1
.LVL99:
.LBE85:
.LBE88:
	.loc 1 315 0
	b	.L28
.LVL100:
.L34:
.LBB89:
.LBB86:
.LBB79:
	.loc 1 271 0
	add	w20, w20, 1
.LVL101:
	orr	w0, w0, -65536
.LVL102:
#APP
// 271 "drivers/misc/rk3308-secure-otp.c" 1
	dmb sy
// 0 "" 2
#NO_APP
	ldr	x1, [x19]
	str	w0, [x1, 260]
.LVL103:
.LBE79:
.LBB80:
	.loc 1 273 0
#APP
// 273 "drivers/misc/rk3308-secure-otp.c" 1
	dmb sy
// 0 "" 2
#NO_APP
	ldr	x0, [x19]
.LVL104:
.LBE80:
	.loc 1 275 0
	mov	w1, 4
.LVL105:
.LBB81:
	.loc 1 273 0
	str	w23, [x0, 264]
.LVL106:
.LBE81:
	.loc 1 275 0
	mov	x0, x19
	bl	rockchip_secure_otp_wait_status.isra.2
.LVL107:
	mov	w21, w0
.LVL108:
	.loc 1 276 0
	tbz	w0, #31, .L35
	.loc 1 277 0
	adrp	x1, .LANCHOR3
	adrp	x0, .LC7
.LVL109:
	add	x1, x1, :lo12:.LANCHOR3
	add	x0, x0, :lo12:.LC7
	bl	printf
.LVL110:
.L36:
.LBB82:
	.loc 1 287 0
#APP
// 287 "drivers/misc/rk3308-secure-otp.c" 1
	dmb sy
// 0 "" 2
#NO_APP
	ldr	x0, [x19]
	mov	w1, 65536
.LBE82:
	.loc 1 289 0
	ldr	x2, [x19, 16]
	mov	w3, w20
	ldr	x4, [x25, 24]
.LBB83:
	.loc 1 287 0
	str	w1, [x0, 256]
.LBE83:
	.loc 1 289 0
	ldr	x0, [x19, 8]
	ldr	x1, [x19, 24]
	blr	x4
.LVL111:
.L28:
.LBE86:
.LBE89:
	.loc 1 316 0
	mov	w0, w21
	ldr	x25, [sp, 64]
	ldp	x19, x20, [sp, 16]
	ldp	x21, x22, [sp, 32]
	ldp	x23, x24, [sp, 48]
	ldp	x29, x30, [sp], 80
	.cfi_remember_state
	.cfi_restore 30
	.cfi_restore 29
	.cfi_restore 25
	.cfi_restore 23
	.cfi_restore 24
	.cfi_restore 21
	.cfi_restore 22
	.cfi_restore 19
	.cfi_restore 20
	.cfi_def_cfa 31, 0
	ret
.LVL112:
.L35:
	.cfi_restore_state
.LBB90:
.LBB87:
.LBB84:
	.loc 1 281 0
	ldr	x0, [x19]
.LVL113:
	ldrb	w0, [x0, 292]
	and	w0, w0, 255
.LVL114:
#APP
// 281 "drivers/misc/rk3308-secure-otp.c" 1
	dmb sy
// 0 "" 2
.LVL115:
#NO_APP
.LBE84:
	.loc 1 283 0
	strb	w0, [x22], 1
.LVL116:
	b	.L32
.LVL117:
.L30:
.LBE87:
.LBE90:
	.loc 1 311 0
	adrp	x0, .LC8
.LVL118:
	add	x0, x0, :lo12:.LC8
	b	.L41
	.cfi_endproc
.LFE270:
	.size	rockchip_secure_otp_read, .-rockchip_secure_otp_read
	.section	.text.rockchip_secure_otp_write,"ax",@progbits
	.align	2
	.type	rockchip_secure_otp_write, %function
rockchip_secure_otp_write:
.LFB278:
	.loc 1 682 0
	.cfi_startproc
.LVL119:
	stp	x29, x30, [sp, -112]!
	.cfi_def_cfa_offset 112
	.cfi_offset 29, -112
	.cfi_offset 30, -104
	add	x29, sp, 0
	.cfi_def_cfa_register 29
	stp	x19, x20, [sp, 16]
	.cfi_offset 19, -96
	.cfi_offset 20, -88
	mov	w19, w1
.LBB173:
	.loc 1 686 0
	mov	x1, 2048
.LVL120:
.LBE173:
	.loc 1 682 0
	stp	x21, x22, [sp, 32]
.LBB174:
	.loc 1 686 0
	movk	x1, 0xff00, lsl 16
.LBE174:
	.loc 1 682 0
	stp	x25, x26, [sp, 64]
	stp	x23, x24, [sp, 48]
	.cfi_offset 21, -80
	.cfi_offset 22, -72
	.cfi_offset 25, -48
	.cfi_offset 26, -40
	.cfi_offset 23, -64
	.cfi_offset 24, -56
	mov	x25, x0
.LVL121:
.LBB175:
	.loc 1 686 0
	ldr	w1, [x1]
.LVL122:
.LBE175:
	.loc 1 682 0
	mov	w21, w3
	stp	x27, x28, [sp, 80]
	.cfi_offset 27, -32
	.cfi_offset 28, -24
	.loc 1 682 0
	str	x2, [x29, 104]
.LBB176:
	.loc 1 686 0
#APP
// 686 "drivers/misc/rk3308-secure-otp.c" 1
	dmb sy
// 0 "" 2
.LVL123:
#NO_APP
.LBE176:
	.loc 1 688 0
	mov	w2, 12428
.LVL124:
	movk	w2, 0x3, lsl 16
	cmp	w1, w2
	bne	.L43
.LVL125:
.LBB177:
.LBB178:
	.loc 1 570 0
	bl	dev_get_platdata
.LVL126:
	.loc 1 575 0
	ldr	x0, [x29, 104]
	tst	x0, 3
	bne	.L44
	orr	w0, w19, w21
	tst	x0, 3
	beq	.L45
.L44:
	.loc 1 576 0
	adrp	x0, .LC0
	add	x0, x0, :lo12:.LC0
.LVL127:
.L102:
.LBE178:
.LBE177:
	.loc 1 695 0
	bl	printf
.LVL128:
	b	.L101
.LVL129:
.L45:
.LBB203:
.LBB200:
	.loc 1 580 0
	sxtw	x0, w21
	bl	malloc_simple
.LVL130:
	mov	x20, x0
.LVL131:
	.loc 1 581 0
	cbnz	x0, .L47
.LVL132:
.L101:
.LBE200:
.LBE203:
	.loc 1 696 0
	mov	w26, -1
	.loc 1 699 0
	b	.L42
.LVL133:
.L47:
.LBB204:
.LBB201:
	.loc 1 584 0
	mov	x2, x0
	mov	w3, w21
	mov	w1, w19
	mov	x0, x25
.LVL134:
	bl	rk3308s_secure_otp_read
.LVL135:
	.loc 1 585 0
	cbnz	w0, .L101
	mov	x0, 0
.LVL136:
.L50:
	.loc 1 590 0
	cmp	w21, w0
	bgt	.L51
	.loc 1 600 0
	asr	w19, w19, 2
.LVL137:
	.loc 1 599 0
	asr	w21, w21, 2
.LVL138:
	lsl	w20, w19, 2
.LVL139:
	.loc 1 600 0
	mov	x26, 0
.LBB179:
.LBB180:
.LBB181:
.LBB182:
.LBB183:
	.loc 1 508 0
	mov	w23, 2
.LVL140:
.L52:
.LBE183:
.LBE182:
.LBE181:
.LBE180:
.LBE179:
	.loc 1 602 0
	cmp	w21, w26
	bgt	.L59
.LVL141:
.L83:
.LBE201:
.LBE204:
	.loc 1 696 0
	mov	w26, 0
	b	.L42
.LVL142:
.L51:
	add	x0, x0, 1
.LVL143:
.LBB205:
.LBB202:
	.loc 1 591 0
	add	x1, x20, x0
	ldrb	w1, [x1, -1]
	cbz	w1, .L50
.LVL144:
.L62:
	.loc 1 592 0
	adrp	x0, .LC9
	add	x0, x0, :lo12:.LC9
	b	.L102
.LVL145:
.L59:
	.loc 1 603 0
	ldr	x0, [x29, 104]
.LBB198:
.LBB196:
	.loc 1 538 0
	cmp	w20, 448
.LBE196:
.LBE198:
	.loc 1 603 0
	ldr	w24, [x0, x26, lsl 2]
.LVL146:
.LBB199:
.LBB197:
	.loc 1 538 0
	bgt	.L101
	.loc 1 542 0
	sub	w0, w20, #16
	cmp	w20, 0
	ccmp	w0, 31, 0, ne
	bls	.L53
	sub	w0, w20, #128
	cmp	w0, 263
	bls	.L53
.LVL147:
.L67:
	.loc 1 545 0
	adrp	x0, .LC1
	add	x0, x0, :lo12:.LC1
	b	.L102
.LVL148:
.L53:
	.loc 1 549 0
	cbz	w24, .L54
	.loc 1 554 0
	add	w28, w19, w26
	.loc 1 549 0
	mov	w27, 0
.L58:
.LVL149:
	.loc 1 553 0
	lsr	w0, w24, w27
	tbz	x0, 0, .L55
	.loc 1 554 0
	orr	w3, w28, w27, lsl 8
.LBB193:
.LBB190:
	.loc 1 503 0
	mov	x0, x25
.LBE190:
.LBE193:
	.loc 1 554 0
	str	w3, [x29, 100]
.LVL150:
.LBB194:
.LBB191:
	.loc 1 503 0
	bl	dev_get_platdata
.LVL151:
	mov	x22, x0
.LVL152:
.LBB184:
	.loc 1 507 0
#APP
// 507 "drivers/misc/rk3308-secure-otp.c" 1
	dmb sy
// 0 "" 2
#NO_APP
	ldr	x0, [x0]
.LVL153:
	str	wzr, [x0, 8200]
.LVL154:
.LBE184:
.LBB185:
	.loc 1 508 0
#APP
// 508 "drivers/misc/rk3308-secure-otp.c" 1
	dmb sy
// 0 "" 2
#NO_APP
	ldr	x0, [x22]
	str	w23, [x0, 8224]
.LBE185:
.LBB186:
	.loc 1 509 0
#APP
// 509 "drivers/misc/rk3308-secure-otp.c" 1
	dmb sy
// 0 "" 2
#NO_APP
	ldr	x0, [x22]
	ldr	w3, [x29, 100]
	str	w3, [x0, 8204]
.LVL155:
.LBE186:
.LBB187:
	.loc 1 510 0
#APP
// 510 "drivers/misc/rk3308-secure-otp.c" 1
	dmb sy
// 0 "" 2
#NO_APP
	ldr	x0, [x22]
	mov	w1, 8
	mov	w3, 10000
	str	w1, [x0, 8192]
.LVL156:
.L56:
.LBE187:
.LBB188:
	.loc 1 512 0
	ldr	x0, [x22]
	ldr	w0, [x0, 8200]
.LVL157:
#APP
// 512 "drivers/misc/rk3308-secure-otp.c" 1
	dmb sy
// 0 "" 2
#NO_APP
.LBE188:
	tbz	x0, 1, .L57
.LVL158:
.LBB189:
	.loc 1 523 0
#APP
// 523 "drivers/misc/rk3308-secure-otp.c" 1
	dmb sy
// 0 "" 2
#NO_APP
	ldr	x0, [x22]
.LVL159:
	str	w23, [x0, 8200]
.LVL160:
.L55:
.LBE189:
.LBE191:
.LBE194:
	.loc 1 552 0
	add	w27, w27, 1
.LVL161:
	cmp	w27, 32
	bne	.L58
.LVL162:
.L54:
	add	x26, x26, 1
.LVL163:
	add	w20, w20, 4
	b	.L52
.LVL164:
.L57:
	str	w3, [x29, 100]
.LBB195:
.LBB192:
	.loc 1 513 0
	mov	x0, 1
.LVL165:
	bl	udelay
.LVL166:
	.loc 1 515 0
	ldr	w3, [x29, 100]
	subs	w3, w3, #1
	bne	.L56
	.loc 1 517 0
	mov	w26, -110
.LVL167:
	.loc 1 516 0
	adrp	x1, .LANCHOR4
	adrp	x0, .LC2
	add	x1, x1, :lo12:.LANCHOR4
	add	x0, x0, :lo12:.LC2
	bl	printf
.LVL168:
.LBE192:
.LBE195:
	.loc 1 557 0
	adrp	x1, .LANCHOR5
	adrp	x0, .LC10
	add	x1, x1, :lo12:.LANCHOR5
	add	x0, x0, :lo12:.LC10
	bl	printf
.LVL169:
.L42:
.LBE197:
.LBE199:
.LBE202:
.LBE205:
	.loc 1 700 0
	mov	w0, w26
	ldp	x19, x20, [sp, 16]
	ldp	x21, x22, [sp, 32]
	ldp	x23, x24, [sp, 48]
	ldp	x25, x26, [sp, 64]
.LVL170:
	ldp	x27, x28, [sp, 80]
	ldp	x29, x30, [sp], 112
	.cfi_remember_state
	.cfi_restore 30
	.cfi_restore 29
	.cfi_restore 27
	.cfi_restore 28
	.cfi_restore 25
	.cfi_restore 26
	.cfi_restore 23
	.cfi_restore 24
	.cfi_restore 21
	.cfi_restore 22
	.cfi_restore 19
	.cfi_restore 20
	.cfi_def_cfa 31, 0
.LVL171:
	ret
.LVL172:
.L43:
	.cfi_restore_state
	.loc 1 691 0
	mov	w2, 13064
	cmp	w1, w2
	bne	.L60
.LVL173:
.LBB206:
.LBB207:
	.loc 1 467 0
	bl	dev_get_platdata
.LVL174:
	mov	x27, x0
.LVL175:
	.loc 1 469 0
	sxtw	x0, w21
.LVL176:
	bl	malloc_simple
.LVL177:
	mov	x20, x0
.LVL178:
	.loc 1 472 0
	cbz	x0, .L101
	.loc 1 475 0
	mov	x2, x0
	mov	w3, w21
	mov	w1, w19
	mov	x0, x25
.LVL179:
	bl	rockchip_secure_otp_read
.LVL180:
	.loc 1 476 0
	cbnz	w0, .L101
	mov	x0, 0
.LVL181:
.L63:
	.loc 1 481 0
	cmp	w21, w0
	bgt	.L64
.LBB208:
.LBB209:
	.loc 1 429 0
	adrp	x20, .LANCHOR6
.LVL182:
	add	x20, x20, :lo12:.LANCHOR6
.LBE209:
.LBE208:
	.loc 1 481 0
	mov	x24, 0
.LVL183:
.L65:
	.loc 1 491 0
	cmp	w21, w24
	ble	.L83
	.loc 1 492 0
	ldr	x0, [x29, 104]
	ldrb	w0, [x0, x24]
	str	w0, [x29, 100]
.LVL184:
.LBB286:
.LBB282:
	.loc 1 323 0
	mov	x0, x25
	bl	dev_get_driver_data
.LVL185:
	mov	x28, x0
.LVL186:
	.loc 1 326 0
	cmp	w19, 448
	bgt	.L101
	.loc 1 330 0
	sub	w0, w19, #16
.LVL187:
	cmp	w0, 31
	ccmp	w19, 3, 4, hi
	ble	.L66
	sub	w0, w19, #128
	cmp	w0, 263
	bhi	.L67
.L66:
	.loc 1 337 0
	ldr	w0, [x29, 100]
	cbnz	w0, .L68
.LVL188:
.L81:
	add	x24, x24, 1
	add	w19, w19, 1
	b	.L65
.LVL189:
.L64:
	add	x0, x0, 1
.LVL190:
.LBE282:
.LBE286:
	.loc 1 482 0
	add	x1, x20, x0
	ldrb	w1, [x1, -1]
	cbz	w1, .L63
	b	.L62
.LVL191:
.L68:
.LBB287:
.LBB283:
	.loc 1 340 0
	ldp	x0, x2, [x27, 8]
	mov	w3, w19
	ldr	x1, [x27, 24]
	ldr	x5, [x28, 16]
	blr	x5
.LVL192:
.LBB210:
	.loc 1 343 0
#APP
// 343 "drivers/misc/rk3308-secure-otp.c" 1
	dmb sy
// 0 "" 2
#NO_APP
	ldr	x0, [x27]
	mov	w1, 262148
	str	w1, [x0, 32]
.LVL193:
.LBE210:
.LBB211:
	.loc 1 344 0
#APP
// 344 "drivers/misc/rk3308-secure-otp.c" 1
	dmb sy
// 0 "" 2
#NO_APP
	ldr	x0, [x27]
	mov	w1, -65536
	str	w1, [x0, 40]
.LVL194:
.LBE211:
.LBB212:
	.loc 1 345 0
#APP
// 345 "drivers/misc/rk3308-secure-otp.c" 1
	dmb sy
// 0 "" 2
#NO_APP
	ldr	x0, [x27]
	mov	w1, 512
	movk	w1, 0xff00, lsl 16
	str	w1, [x0, 32]
.LVL195:
.LBE212:
.LBB213:
	.loc 1 346 0
#APP
// 346 "drivers/misc/rk3308-secure-otp.c" 1
	dmb sy
// 0 "" 2
#NO_APP
	ldr	x0, [x27]
	mov	w1, -65522
	str	w1, [x0, 36]
.LVL196:
.LBE213:
.LBB214:
	.loc 1 347 0
#APP
// 347 "drivers/misc/rk3308-secure-otp.c" 1
	dmb sy
// 0 "" 2
#NO_APP
	ldr	x0, [x27]
	mov	w2, 240
	str	w2, [x29, 96]
.LVL197:
	str	w2, [x0, 4096]
.LBE214:
.LBB215:
	.loc 1 348 0
#APP
// 348 "drivers/misc/rk3308-secure-otp.c" 1
	dmb sy
// 0 "" 2
#NO_APP
	ldr	x0, [x27]
	mov	w1, 1
	str	w1, [x0, 4100]
.LVL198:
.LBE215:
.LBB216:
	.loc 1 349 0
#APP
// 349 "drivers/misc/rk3308-secure-otp.c" 1
	dmb sy
// 0 "" 2
#NO_APP
	ldr	x0, [x27]
	mov	w22, 122
	str	w22, [x0, 4104]
.LVL199:
.LBE216:
.LBB217:
	.loc 1 350 0
#APP
// 350 "drivers/misc/rk3308-secure-otp.c" 1
	dmb sy
// 0 "" 2
#NO_APP
	ldr	x0, [x27]
	mov	w1, 37
	str	w1, [x0, 4108]
.LVL200:
.LBE217:
.LBB218:
	.loc 1 351 0
#APP
// 351 "drivers/misc/rk3308-secure-otp.c" 1
	dmb sy
// 0 "" 2
#NO_APP
	ldr	x0, [x27]
	mov	w1, 4
	str	w1, [x0, 4112]
.LVL201:
.LBE218:
.LBB219:
	.loc 1 352 0
#APP
// 352 "drivers/misc/rk3308-secure-otp.c" 1
	dmb sy
// 0 "" 2
#NO_APP
	ldr	x0, [x27]
	str	wzr, [x0, 4116]
.LVL202:
.LBE219:
.LBB220:
	.loc 1 353 0
#APP
// 353 "drivers/misc/rk3308-secure-otp.c" 1
	dmb sy
// 0 "" 2
#NO_APP
	ldr	x0, [x27]
	str	wzr, [x0, 4120]
.LVL203:
.LBE220:
.LBB221:
	.loc 1 354 0
#APP
// 354 "drivers/misc/rk3308-secure-otp.c" 1
	dmb sy
// 0 "" 2
#NO_APP
	ldr	x0, [x27]
	str	wzr, [x0, 4124]
.LVL204:
.LBE221:
.LBB222:
	.loc 1 355 0
#APP
// 355 "drivers/misc/rk3308-secure-otp.c" 1
	dmb sy
// 0 "" 2
#NO_APP
	ldr	x0, [x27]
	mov	w1, 11
	str	w1, [x0, 4128]
.LVL205:
.LBE222:
.LBB223:
	.loc 1 356 0
#APP
// 356 "drivers/misc/rk3308-secure-otp.c" 1
	dmb sy
// 0 "" 2
#NO_APP
	ldr	x0, [x27]
	mov	w1, 8
	str	w1, [x0, 4132]
.LVL206:
.LBE223:
.LBB224:
	.loc 1 357 0
#APP
// 357 "drivers/misc/rk3308-secure-otp.c" 1
	dmb sy
// 0 "" 2
#NO_APP
	ldr	x0, [x27]
	str	wzr, [x0, 4136]
.LVL207:
.LBE224:
.LBB225:
	.loc 1 358 0
#APP
// 358 "drivers/misc/rk3308-secure-otp.c" 1
	dmb sy
// 0 "" 2
#NO_APP
	ldr	x0, [x27]
	str	wzr, [x0, 4140]
.LVL208:
.LBE225:
.LBB226:
	.loc 1 359 0
#APP
// 359 "drivers/misc/rk3308-secure-otp.c" 1
	dmb sy
// 0 "" 2
#NO_APP
	ldr	x0, [x27]
	str	wzr, [x0, 4144]
.LBE226:
.LBB227:
	.loc 1 360 0
	and	w0, w19, 255
#APP
// 360 "drivers/misc/rk3308-secure-otp.c" 1
	dmb sy
// 0 "" 2
#NO_APP
	ldr	x1, [x27]
	str	w0, [x1, 4148]
.LBE227:
.LBB228:
	.loc 1 361 0
	ubfx	x1, x19, 8, 8
.LVL209:
#APP
// 361 "drivers/misc/rk3308-secure-otp.c" 1
	dmb sy
// 0 "" 2
#NO_APP
	ldr	x0, [x27]
	str	w1, [x0, 4152]
.LVL210:
.LBE228:
.LBB229:
	.loc 1 362 0
#APP
// 362 "drivers/misc/rk3308-secure-otp.c" 1
	dmb sy
// 0 "" 2
#NO_APP
	ldr	x0, [x27]
	mov	w23, 65537
.LBE229:
	.loc 1 363 0
	mov	w1, 2
.LVL211:
.LBB230:
	.loc 1 362 0
	str	w23, [x0, 32]
.LVL212:
.LBE230:
	.loc 1 363 0
	mov	x0, x27
	bl	rockchip_secure_otp_wait_status.isra.2
.LVL213:
	mov	w26, w0
.LVL214:
	.loc 1 364 0
	ldr	w2, [x29, 96]
	tbz	w0, #31, .L69
	.loc 1 365 0
	adrp	x0, .LC11
.LVL215:
	mov	x1, x20
	add	x0, x0, :lo12:.LC11
.L100:
	.loc 1 388 0
	bl	printf
.LVL216:
.L70:
.LBB231:
	.loc 1 456 0
#APP
// 456 "drivers/misc/rk3308-secure-otp.c" 1
	dmb sy
// 0 "" 2
#NO_APP
	ldr	x0, [x27]
	mov	w1, -65533
.LBE231:
	.loc 1 457 0
	ldr	x2, [x27, 16]
	mov	w3, w19
	ldr	x6, [x28, 24]
.LBB232:
	.loc 1 456 0
	str	w1, [x0, 772]
.LBE232:
	.loc 1 457 0
	ldr	x0, [x27, 8]
	ldr	x1, [x27, 24]
	blr	x6
.LVL217:
.LBE283:
.LBE287:
	.loc 1 493 0
	cbz	w26, .L81
	b	.L42
.LVL218:
.L69:
.LBB288:
.LBB284:
.LBB233:
	.loc 1 369 0
#APP
// 369 "drivers/misc/rk3308-secure-otp.c" 1
	dmb sy
// 0 "" 2
#NO_APP
	ldr	x0, [x27]
.LVL219:
	mov	w1, 14848
	movk	w1, 0xff00, lsl 16
	str	w1, [x0, 32]
.LVL220:
.LBE233:
.LBB234:
	.loc 1 370 0
#APP
// 370 "drivers/misc/rk3308-secure-otp.c" 1
	dmb sy
// 0 "" 2
#NO_APP
	ldr	x0, [x27]
	str	w2, [x0, 4096]
.LVL221:
.LBE234:
.LBB235:
	.loc 1 371 0
#APP
// 371 "drivers/misc/rk3308-secure-otp.c" 1
	dmb sy
// 0 "" 2
#NO_APP
	ldr	x0, [x27]
	mov	w1, 1
	str	w1, [x0, 4100]
.LVL222:
.LBE235:
.LBB236:
	.loc 1 372 0
#APP
// 372 "drivers/misc/rk3308-secure-otp.c" 1
	dmb sy
// 0 "" 2
#NO_APP
	ldr	x0, [x27]
	str	w22, [x0, 4104]
.LVL223:
.LBE236:
.LBB237:
	.loc 1 373 0
#APP
// 373 "drivers/misc/rk3308-secure-otp.c" 1
	dmb sy
// 0 "" 2
#NO_APP
	ldr	x0, [x27]
	mov	w1, 21
	str	w1, [x0, 4108]
.LVL224:
.LBE237:
.LBB238:
	.loc 1 374 0
#APP
// 374 "drivers/misc/rk3308-secure-otp.c" 1
	dmb sy
// 0 "" 2
#NO_APP
	ldr	x0, [x27]
	mov	w1, 220
	str	w1, [x0, 4112]
.LVL225:
.LBE238:
.LBB239:
	.loc 1 375 0
#APP
// 375 "drivers/misc/rk3308-secure-otp.c" 1
	dmb sy
// 0 "" 2
#NO_APP
	ldr	x0, [x27]
	mov	w1, 146
	str	w1, [x0, 4116]
.LVL226:
.LBE239:
.LBB240:
	.loc 1 376 0
#APP
// 376 "drivers/misc/rk3308-secure-otp.c" 1
	dmb sy
// 0 "" 2
#NO_APP
	ldr	x0, [x27]
	mov	w1, 121
	str	w1, [x0, 4120]
.LVL227:
.LBE240:
.LBB241:
	.loc 1 377 0
#APP
// 377 "drivers/misc/rk3308-secure-otp.c" 1
	dmb sy
// 0 "" 2
#NO_APP
	ldr	x0, [x27]
	mov	w1, 129
	str	w1, [x0, 4124]
.LVL228:
.LBE241:
.LBB242:
	.loc 1 378 0
#APP
// 378 "drivers/misc/rk3308-secure-otp.c" 1
	dmb sy
// 0 "" 2
#NO_APP
	ldr	x0, [x27]
	mov	w1, 126
	str	w1, [x0, 4128]
.LVL229:
.LBE242:
.LBB243:
	.loc 1 379 0
#APP
// 379 "drivers/misc/rk3308-secure-otp.c" 1
	dmb sy
// 0 "" 2
#NO_APP
	ldr	x0, [x27]
	mov	w1, 33
	str	w1, [x0, 4132]
.LVL230:
.LBE243:
.LBB244:
	.loc 1 380 0
#APP
// 380 "drivers/misc/rk3308-secure-otp.c" 1
	dmb sy
// 0 "" 2
#NO_APP
	ldr	x0, [x27]
	mov	w1, 17
	str	w1, [x0, 4136]
.LVL231:
.LBE244:
.LBB245:
	.loc 1 381 0
#APP
// 381 "drivers/misc/rk3308-secure-otp.c" 1
	dmb sy
// 0 "" 2
#NO_APP
	ldr	x0, [x27]
	mov	w1, 157
	str	w1, [x0, 4140]
.LVL232:
.LBE245:
.LBB246:
	.loc 1 382 0
#APP
// 382 "drivers/misc/rk3308-secure-otp.c" 1
	dmb sy
// 0 "" 2
#NO_APP
	ldr	x0, [x27]
	mov	w22, 2
	str	w22, [x0, 4144]
.LVL233:
.LBE246:
.LBB247:
	.loc 1 383 0
#APP
// 383 "drivers/misc/rk3308-secure-otp.c" 1
	dmb sy
// 0 "" 2
#NO_APP
	ldr	x0, [x27]
	str	wzr, [x0, 4148]
.LVL234:
.LBE247:
.LBB248:
	.loc 1 384 0
#APP
// 384 "drivers/misc/rk3308-secure-otp.c" 1
	dmb sy
// 0 "" 2
#NO_APP
	ldr	x0, [x27]
	str	wzr, [x0, 4152]
.LVL235:
.LBE248:
.LBB249:
	.loc 1 385 0
#APP
// 385 "drivers/misc/rk3308-secure-otp.c" 1
	dmb sy
// 0 "" 2
#NO_APP
	ldr	x0, [x27]
.LBE249:
	.loc 1 386 0
	mov	w1, w22
.LBB250:
	.loc 1 385 0
	str	w23, [x0, 32]
.LBE250:
	.loc 1 386 0
	mov	x0, x27
	bl	rockchip_secure_otp_wait_status.isra.2
.LVL236:
	mov	w26, w0
.LVL237:
	.loc 1 387 0
	tbz	w0, #31, .L71
	.loc 1 388 0
	adrp	x0, .LC12
.LVL238:
	mov	x1, x20
	add	x0, x0, :lo12:.LC12
	b	.L100
.LVL239:
.L71:
.LBB251:
	.loc 1 392 0
#APP
// 392 "drivers/misc/rk3308-secure-otp.c" 1
	dmb sy
// 0 "" 2
#NO_APP
	ldr	x0, [x27]
.LVL240:
	mov	w1, 512
	movk	w1, 0xff00, lsl 16
	str	w1, [x0, 32]
.LVL241:
.LBE251:
.LBB252:
	.loc 1 393 0
#APP
// 393 "drivers/misc/rk3308-secure-otp.c" 1
	dmb sy
// 0 "" 2
#NO_APP
	ldr	x0, [x27]
	mov	w1, -65535
	str	w1, [x0, 36]
.LVL242:
.LBE252:
.LBB253:
	.loc 1 394 0
#APP
// 394 "drivers/misc/rk3308-secure-otp.c" 1
	dmb sy
// 0 "" 2
#NO_APP
	ldr	x0, [x27]
	mov	w1, 251
	str	w1, [x0, 4096]
.LVL243:
.LBE253:
.LBB254:
	.loc 1 395 0
#APP
// 395 "drivers/misc/rk3308-secure-otp.c" 1
	dmb sy
// 0 "" 2
#NO_APP
	ldr	x0, [x27]
	str	wzr, [x0, 4100]
.LVL244:
.LBE254:
.LBB255:
	.loc 1 396 0
#APP
// 396 "drivers/misc/rk3308-secure-otp.c" 1
	dmb sy
// 0 "" 2
#NO_APP
	ldr	x0, [x27]
.LBE255:
	.loc 1 397 0
	mov	w1, w22
.LBB256:
	.loc 1 396 0
	str	w23, [x0, 32]
.LBE256:
	.loc 1 397 0
	mov	x0, x27
	bl	rockchip_secure_otp_wait_status.isra.2
.LVL245:
	mov	w26, w0
.LVL246:
	.loc 1 398 0
	tbz	w0, #31, .L72
	.loc 1 399 0
	adrp	x0, .LC13
.LVL247:
	mov	x1, x20
	add	x0, x0, :lo12:.LC13
	b	.L100
.LVL248:
.L72:
.LBB257:
	.loc 1 403 0
#APP
// 403 "drivers/misc/rk3308-secure-otp.c" 1
	dmb sy
// 0 "" 2
#NO_APP
	ldr	x0, [x27]
.LVL249:
	mov	w1, 192
	str	w1, [x0, 4096]
.LVL250:
.LBE257:
.LBB258:
	.loc 1 404 0
#APP
// 404 "drivers/misc/rk3308-secure-otp.c" 1
	dmb sy
// 0 "" 2
#NO_APP
	ldr	x0, [x27]
	ldr	w1, [x29, 100]
	str	w1, [x0, 4100]
.LVL251:
.LBE258:
.LBB259:
	.loc 1 405 0
#APP
// 405 "drivers/misc/rk3308-secure-otp.c" 1
	dmb sy
// 0 "" 2
#NO_APP
	ldr	x0, [x27]
.LBE259:
	.loc 1 406 0
	mov	w1, w22
.LBB260:
	.loc 1 405 0
	str	w23, [x0, 32]
.LBE260:
	.loc 1 406 0
	mov	x0, x27
	bl	rockchip_secure_otp_wait_status.isra.2
.LVL252:
	mov	w26, w0
.LVL253:
	.loc 1 407 0
	tbz	w0, #31, .L73
	.loc 1 408 0
	adrp	x0, .LC14
.LVL254:
	mov	x1, x20
	add	x0, x0, :lo12:.LC14
	b	.L100
.LVL255:
.L73:
.LBB261:
	.loc 1 412 0
#APP
// 412 "drivers/misc/rk3308-secure-otp.c" 1
	dmb sy
// 0 "" 2
#NO_APP
	ldr	x0, [x27]
.LVL256:
	mov	w1, 14848
	movk	w1, 0xff00, lsl 16
	str	w1, [x0, 32]
.LVL257:
.LBE261:
.LBB262:
	.loc 1 413 0
#APP
// 413 "drivers/misc/rk3308-secure-otp.c" 1
	dmb sy
// 0 "" 2
#NO_APP
	ldr	x0, [x27]
	mov	w1, 255
	str	w1, [x0, 4096]
.LVL258:
.LBE262:
.LBB263:
	.loc 1 414 0
#APP
// 414 "drivers/misc/rk3308-secure-otp.c" 1
	dmb sy
// 0 "" 2
#NO_APP
	ldr	x0, [x27]
	mov	w1, 10
	str	w1, [x0, 4100]
.LVL259:
.LBE263:
.LBB264:
	.loc 1 415 0
#APP
// 415 "drivers/misc/rk3308-secure-otp.c" 1
	dmb sy
// 0 "" 2
#NO_APP
	ldr	x0, [x27]
.LBE264:
	.loc 1 416 0
	mov	w1, w22
.LBB265:
	.loc 1 415 0
	str	w23, [x0, 32]
.LBE265:
	.loc 1 416 0
	mov	x0, x27
	bl	rockchip_secure_otp_wait_status.isra.2
.LVL260:
	mov	w26, w0
.LVL261:
	.loc 1 417 0
	tbz	w0, #31, .L74
	.loc 1 418 0
	adrp	x0, .LC15
.LVL262:
	mov	x1, x20
	add	x0, x0, :lo12:.LC15
	b	.L100
.LVL263:
.L74:
.LBB266:
	.loc 1 422 0
#APP
// 422 "drivers/misc/rk3308-secure-otp.c" 1
	dmb sy
// 0 "" 2
#NO_APP
	ldr	x0, [x27]
.LVL264:
	mov	w1, -65534
	str	w1, [x0, 36]
.LVL265:
.LBE266:
.LBB267:
	.loc 1 423 0
#APP
// 423 "drivers/misc/rk3308-secure-otp.c" 1
	dmb sy
// 0 "" 2
#NO_APP
	ldr	x0, [x27]
	mov	w1, 1
	str	w1, [x0, 4096]
.LVL266:
.LBE267:
.LBB268:
	.loc 1 424 0
#APP
// 424 "drivers/misc/rk3308-secure-otp.c" 1
	dmb sy
// 0 "" 2
#NO_APP
	ldr	x0, [x27]
	mov	w1, 191
	str	w1, [x0, 4100]
.LVL267:
.LBE268:
.LBB269:
	.loc 1 425 0
#APP
// 425 "drivers/misc/rk3308-secure-otp.c" 1
	dmb sy
// 0 "" 2
#NO_APP
	ldr	x0, [x27]
	str	wzr, [x0, 4104]
.LVL268:
.LBE269:
.LBB270:
	.loc 1 426 0
#APP
// 426 "drivers/misc/rk3308-secure-otp.c" 1
	dmb sy
// 0 "" 2
#NO_APP
	ldr	x0, [x27]
.LBE270:
	.loc 1 427 0
	mov	w1, w22
.LBB271:
	.loc 1 426 0
	str	w23, [x0, 32]
.LBE271:
	.loc 1 427 0
	mov	x0, x27
	bl	rockchip_secure_otp_wait_status.isra.2
.LVL269:
	mov	w26, w0
.LVL270:
	.loc 1 428 0
	tbnz	w0, #31, .L75
	mov	w22, 34465
	movk	w22, 0x1, lsl 16
.LVL271:
.L76:
.LBB272:
.LBB273:
.LBB274:
	.loc 1 151 0
	ldr	x0, [x27]
	ldr	w0, [x0, 44]
.LVL272:
#APP
// 151 "drivers/misc/rk3308-secure-otp.c" 1
	dmb sy
// 0 "" 2
.LVL273:
#NO_APP
.LBE274:
	.loc 1 152 0
	and	w26, w0, 16
	tbz	x0, 4, .L77
	.loc 1 155 0
	subs	w22, w22, #1
.LVL274:
	beq	.L78
.LVL275:
	.loc 1 161 0
	mov	x0, 1
.LVL276:
	bl	udelay
.LVL277:
	b	.L76
.LVL278:
.L75:
.LBE273:
.LBE272:
	.loc 1 429 0
	adrp	x0, .LC16
.LVL279:
	mov	x1, x20
	add	x0, x0, :lo12:.LC16
	b	.L100
.LVL280:
.L84:
	.loc 1 445 0
	mov	x1, x20
	adrp	x0, .LC17
.LVL281:
	mov	w26, w22
	add	x0, x0, :lo12:.LC17
	bl	printf
.LVL282:
	b	.L70
.LVL283:
.L60:
.LBE284:
.LBE288:
.LBE207:
.LBE206:
	.loc 1 695 0
	adrp	x0, .LC8
.LVL284:
	add	x0, x0, :lo12:.LC8
	b	.L102
.LVL285:
.L78:
.LBB291:
.LBB290:
.LBB289:
.LBB285:
	.loc 1 435 0
	adrp	x0, .LC18
	mov	x1, x20
	add	x0, x0, :lo12:.LC18
.L99:
	.loc 1 451 0
	bl	printf
.LVL286:
	mov	w26, -1
	b	.L70
.LVL287:
.L77:
.LBB275:
	.loc 1 439 0
#APP
// 439 "drivers/misc/rk3308-secure-otp.c" 1
	dmb sy
// 0 "" 2
#NO_APP
	ldr	x0, [x27]
	mov	w1, -65534
	str	w1, [x0, 36]
.LVL288:
.LBE275:
.LBB276:
	.loc 1 440 0
#APP
// 440 "drivers/misc/rk3308-secure-otp.c" 1
	dmb sy
// 0 "" 2
#NO_APP
	ldr	x0, [x27]
	mov	w1, 2
	str	w1, [x0, 4096]
.LVL289:
.LBE276:
.LBB277:
	.loc 1 441 0
#APP
// 441 "drivers/misc/rk3308-secure-otp.c" 1
	dmb sy
// 0 "" 2
#NO_APP
	ldr	x0, [x27]
	mov	w2, 191
	str	w2, [x0, 4100]
.LVL290:
.LBE277:
.LBB278:
	.loc 1 442 0
#APP
// 442 "drivers/misc/rk3308-secure-otp.c" 1
	dmb sy
// 0 "" 2
#NO_APP
	ldr	x0, [x27]
	mov	w2, 65537
	str	w2, [x0, 32]
.LBE278:
	.loc 1 443 0
	mov	x0, x27
	bl	rockchip_secure_otp_wait_status.isra.2
.LVL291:
	mov	w22, w0
.LVL292:
	.loc 1 444 0
	tbnz	w0, #31, .L84
	mov	w22, 20001
.LVL293:
.L80:
.LBB279:
.LBB280:
.LBB281:
	.loc 1 129 0
	ldr	x0, [x27]
	ldr	w0, [x0, 44]
.LVL294:
#APP
// 129 "drivers/misc/rk3308-secure-otp.c" 1
	dmb sy
// 0 "" 2
.LVL295:
#NO_APP
.LBE281:
	.loc 1 130 0
	tbnz	x0, 4, .L70
	.loc 1 133 0
	subs	w22, w22, #1
.LVL296:
	beq	.L79
	.loc 1 138 0
	mov	x0, 1
.LVL297:
	bl	udelay
.LVL298:
	b	.L80
.LVL299:
.L79:
.LBE280:
.LBE279:
	.loc 1 451 0
	adrp	x0, .LC19
	mov	x1, x20
	add	x0, x0, :lo12:.LC19
	b	.L99
.LBE285:
.LBE289:
.LBE290:
.LBE291:
	.cfi_endproc
.LFE278:
	.size	rockchip_secure_otp_write, .-rockchip_secure_otp_write
	.section	.text.rockchip_secure_otp_exit,"ax",@progbits
	.align	2
	.global	rockchip_secure_otp_exit
	.type	rockchip_secure_otp_exit, %function
rockchip_secure_otp_exit:
.LFB277:
	.loc 1 660 0
	.cfi_startproc
.LVL300:
	stp	x29, x30, [sp, -32]!
	.cfi_def_cfa_offset 32
	.cfi_offset 29, -32
	.cfi_offset 30, -24
.LBB304:
	.loc 1 664 0
	mov	x1, 2048
	movk	x1, 0xff00, lsl 16
.LBE304:
	.loc 1 660 0
	add	x29, sp, 0
	.cfi_def_cfa_register 29
	stp	x19, x20, [sp, 16]
	.cfi_offset 19, -16
	.cfi_offset 20, -8
.LBB305:
	.loc 1 664 0
	ldr	w1, [x1]
.LVL301:
#APP
// 664 "drivers/misc/rk3308-secure-otp.c" 1
	dmb sy
// 0 "" 2
.LVL302:
#NO_APP
.LBE305:
	.loc 1 666 0
	mov	w2, 12428
	movk	w2, 0x3, lsl 16
	cmp	w1, w2
	bne	.L104
.LBB306:
.LBB307:
	.loc 1 614 0
	bl	dev_get_platdata
.LVL303:
	mov	x19, x0
.LVL304:
.LBB308:
	.loc 1 619 0
#APP
// 619 "drivers/misc/rk3308-secure-otp.c" 1
	dmb sy
// 0 "" 2
#NO_APP
	ldr	x0, [x0]
.LVL305:
	str	wzr, [x0, 8200]
.LVL306:
.LBE308:
.LBB309:
	.loc 1 620 0
#APP
// 620 "drivers/misc/rk3308-secure-otp.c" 1
	dmb sy
// 0 "" 2
#NO_APP
	ldr	x0, [x19]
	mov	w20, 34464
	mov	w1, 1
	movk	w20, 0x1, lsl 16
	str	w1, [x0, 8192]
.LVL307:
.L105:
.LBE309:
.LBB310:
	.loc 1 622 0
	ldr	x0, [x19]
	ldr	w0, [x0, 8200]
.LVL308:
#APP
// 622 "drivers/misc/rk3308-secure-otp.c" 1
	dmb sy
// 0 "" 2
#NO_APP
.LBE310:
	tbz	x0, 9, .L107
.LVL309:
.LBB311:
	.loc 1 633 0
#APP
// 633 "drivers/misc/rk3308-secure-otp.c" 1
	dmb sy
// 0 "" 2
#NO_APP
	ldr	x0, [x19]
.LVL310:
	mov	w1, 512
	str	w1, [x0, 8200]
.LVL311:
.LBE311:
.LBB312:
	.loc 1 637 0
#APP
// 637 "drivers/misc/rk3308-secure-otp.c" 1
	dmb sy
// 0 "" 2
#NO_APP
	ldr	x0, [x19]
	str	wzr, [x0, 8200]
.LVL312:
.LBE312:
.LBB313:
	.loc 1 638 0
#APP
// 638 "drivers/misc/rk3308-secure-otp.c" 1
	dmb sy
// 0 "" 2
#NO_APP
	ldr	x0, [x19]
	mov	w20, 34464
	movk	w20, 0x1, lsl 16
	str	wzr, [x0, 8192]
.LVL313:
.L108:
.LBE313:
.LBB314:
	.loc 1 640 0
	ldr	x0, [x19]
	ldr	w0, [x0, 8200]
.LVL314:
#APP
// 640 "drivers/misc/rk3308-secure-otp.c" 1
	dmb sy
// 0 "" 2
#NO_APP
.LBE314:
	tbz	x0, 10, .L110
.LVL315:
.LBB315:
	.loc 1 651 0
#APP
// 651 "drivers/misc/rk3308-secure-otp.c" 1
	dmb sy
// 0 "" 2
#NO_APP
	ldr	x0, [x19]
.LVL316:
	mov	w1, 1024
	str	w1, [x0, 8200]
.LVL317:
.LBE315:
.LBB316:
	.loc 1 654 0
#APP
// 654 "drivers/misc/rk3308-secure-otp.c" 1
	dmb sy
// 0 "" 2
#NO_APP
	ldr	x0, [x19, 8]
	mov	w1, 262144
	str	w1, [x0]
.LBE316:
	.loc 1 615 0
	mov	w0, 0
	b	.L103
.LVL318:
.L107:
	.loc 1 623 0
	mov	x0, 1
.LVL319:
	bl	udelay
.LVL320:
	.loc 1 625 0
	subs	w20, w20, #1
.LVL321:
	bne	.L105
.L109:
	.loc 1 626 0
	adrp	x1, .LANCHOR7
	adrp	x0, .LC2
	add	x1, x1, :lo12:.LANCHOR7
	add	x0, x0, :lo12:.LC2
	bl	printf
.LVL322:
	.loc 1 627 0
	mov	w0, -110
.LVL323:
.L103:
.LBE307:
.LBE306:
	.loc 1 678 0
	ldp	x19, x20, [sp, 16]
	ldp	x29, x30, [sp], 32
	.cfi_remember_state
	.cfi_restore 30
	.cfi_restore 29
	.cfi_restore 19
	.cfi_restore 20
	.cfi_def_cfa 31, 0
	ret
.LVL324:
.L110:
	.cfi_restore_state
.LBB318:
.LBB317:
	.loc 1 641 0
	mov	x0, 1
.LVL325:
	bl	udelay
.LVL326:
	.loc 1 643 0
	subs	w20, w20, #1
.LVL327:
	bne	.L108
	b	.L109
.LVL328:
.L104:
.LBE317:
.LBE318:
	.loc 1 669 0
	mov	w2, 13064
	.loc 1 670 0
	mov	w0, 0
.LVL329:
	.loc 1 669 0
	cmp	w1, w2
	beq	.L103
	.loc 1 673 0
	adrp	x0, .LC8
	add	x0, x0, :lo12:.LC8
	bl	printf
.LVL330:
	.loc 1 674 0
	mov	w0, -1
	b	.L103
	.cfi_endproc
.LFE277:
	.size	rockchip_secure_otp_exit, .-rockchip_secure_otp_exit
	.section	.text.secure_otp_ioctl,"ax",@progbits
	.align	2
	.type	secure_otp_ioctl, %function
secure_otp_ioctl:
.LFB282:
	.loc 1 727 0
	.cfi_startproc
.LVL331:
	.loc 1 730 0
	mov	x3, 27906
	cmp	x1, x3
	beq	.L119
	mov	x0, 27908
.LVL332:
	cmp	x1, x0
	bne	.L122
.LVL333:
.LBB319:
.LBB320:
	.loc 1 719 0
	mov	w0, 8
	str	w0, [x2]
.LVL334:
.LBE320:
.LBE319:
	.loc 1 732 0
	mov	w0, 0
	.loc 1 733 0
	ret
.LVL335:
.L119:
	.loc 1 735 0
	b	rockchip_secure_otp_exit
.LVL336:
.L122:
	.loc 1 728 0
	mov	w0, -22
	.loc 1 741 0
	ret
	.cfi_endproc
.LFE282:
	.size	secure_otp_ioctl, .-secure_otp_ioctl
	.global	_u_boot_list_2_driver_2_rockchip_secure_otp
	.section	.rodata.__func__.7401,"a",@progbits
	.align	3
	.set	.LANCHOR1,. + 0
	.type	__func__.7401, %object
	.size	__func__.7401, 32
__func__.7401:
	.string	"rockchip_secure_otp_wait_status"
	.section	.rodata.__func__.7444,"a",@progbits
	.align	3
	.set	.LANCHOR2,. + 0
	.type	__func__.7444, %object
	.size	__func__.7444, 31
__func__.7444:
	.string	"rockchip_secure_otp_ecc_enable"
	.section	.rodata.__func__.7468,"a",@progbits
	.align	3
	.set	.LANCHOR0,. + 0
	.type	__func__.7468, %object
	.size	__func__.7468, 24
__func__.7468:
	.string	"rk3308s_secure_otp_read"
	.section	.rodata.__func__.7496,"a",@progbits
	.align	3
	.set	.LANCHOR3,. + 0
	.type	__func__.7496, %object
	.size	__func__.7496, 23
__func__.7496:
	.string	"rk3308_secure_otp_read"
	.section	.rodata.__func__.7563,"a",@progbits
	.align	3
	.set	.LANCHOR6,. + 0
	.type	__func__.7563, %object
	.size	__func__.7563, 31
__func__.7563:
	.string	"rockchip_secure_otp_write_byte"
	.section	.rodata.__func__.7677,"a",@progbits
	.align	3
	.set	.LANCHOR4,. + 0
	.type	__func__.7677, %object
	.size	__func__.7677, 28
__func__.7677:
	.string	"rk3308s_secure_otp_prog_bit"
	.section	.rodata.__func__.7694,"a",@progbits
	.align	3
	.set	.LANCHOR5,. + 0
	.type	__func__.7694, %object
	.size	__func__.7694, 30
__func__.7694:
	.string	"rk3308s_secure_otp_write_word"
	.section	.rodata.__func__.7728,"a",@progbits
	.align	3
	.set	.LANCHOR7,. + 0
	.type	__func__.7728, %object
	.size	__func__.7728, 21
__func__.7728:
	.string	"rk3308s_spl_otp_exit"
	.section	.rodata.rk3308_data,"a",@progbits
	.align	3
	.type	rk3308_data, %object
	.size	rk3308_data, 32
rk3308_data:
	.xword	rockchip_secure_otp_read
	.xword	rockchip_secure_otp_write
	.xword	rk3308_spl_rockchip_otp_start
	.xword	rk3308_spl_rockchip_otp_stop
	.section	.rodata.rk3308s_secure_otp_read.str1.1,"aMS",@progbits,1
.LC0:
	.string	"Please input word align!\n"
.LC1:
	.string	"Please input correct addr\n"
.LC2:
	.string	"%s: wait init status timeout\n"
	.section	.rodata.rockchip_otp_ids,"a",@progbits
	.align	3
	.type	rockchip_otp_ids, %object
	.size	rockchip_otp_ids, 32
rockchip_otp_ids:
	.xword	.LC21
	.xword	rk3308_data
	.zero	16
	.section	.rodata.rockchip_secure_otp_ofdata_to_platdata.str1.1,"aMS",@progbits,1
.LC3:
	.string	"secure_conf"
.LC4:
	.string	"mask_addr"
.LC5:
	.string	"cru_rst_addr"
	.section	.rodata.rockchip_secure_otp_ops,"a",@progbits
	.align	3
	.type	rockchip_secure_otp_ops, %object
	.size	rockchip_secure_otp_ops, 32
rockchip_secure_otp_ops:
	.xword	secure_otp_read
	.xword	secure_otp_write
	.xword	secure_otp_ioctl
	.zero	8
	.section	.rodata.rockchip_secure_otp_read.str1.1,"aMS",@progbits,1
.LC6:
	.string	"%s timeout during ecc_enable\n"
.LC7:
	.string	"%s timeout during read setup\n"
.LC8:
	.string	"read chip ID failed\n"
	.section	.rodata.rockchip_secure_otp_write.str1.1,"aMS",@progbits,1
.LC9:
	.string	"The zone is written.\n"
.LC10:
	.string	"%s otp prog bit error\n"
.LC11:
	.string	"%s timeout during write setup 1\n"
.LC12:
	.string	"%s timeout during write setup 2\n"
.LC13:
	.string	"%s timeout during write setup 3\n"
.LC14:
	.string	"%s timeout during write setup 4\n"
.LC15:
	.string	"%s timeout during write setup 5\n"
.LC16:
	.string	"%s timeout during write setup 6\n"
.LC17:
	.string	"%s timeout during write setup 8\n"
.LC18:
	.string	"%s timeout during write setup 7\n"
.LC19:
	.string	"%s timeout during write setup 9\n"
	.section	.rodata.str1.1,"aMS",@progbits,1
.LC20:
	.string	"rockchip_secure_otp"
.LC21:
	.string	"rockchip,rk3308-secure-otp"
	.section	.u_boot_list_2_driver_2_rockchip_secure_otp,"aw",@progbits
	.align	2
	.type	_u_boot_list_2_driver_2_rockchip_secure_otp, %object
	.size	_u_boot_list_2_driver_2_rockchip_secure_otp, 120
_u_boot_list_2_driver_2_rockchip_secure_otp:
	.8byte	.LC20
	.word	36
	.zero	4
	.8byte	rockchip_otp_ids
	.zero	32
	.8byte	rockchip_secure_otp_ofdata_to_platdata
	.zero	28
	.word	32
	.zero	8
	.8byte	rockchip_secure_otp_ops
	.zero	8
	.text
.Letext0:
	.file 2 "include/common.h"
	.file 3 "./arch/arm/include/asm/types.h"
	.file 4 "include/linux/types.h"
	.file 5 "include/errno.h"
	.file 6 "include/linux/string.h"
	.file 7 "include/efi.h"
	.file 8 "include/dm/device.h"
	.file 9 "include/ide.h"
	.file 10 "include/linux/list.h"
	.file 11 "include/part.h"
	.file 12 "include/flash.h"
	.file 13 "include/lmb.h"
	.file 14 "include/asm-generic/u-boot.h"
	.file 15 "./arch/arm/include/asm/u-boot-arm.h"
	.file 16 "include/linux/libfdt_env.h"
	.file 17 "include/linux/../../scripts/dtc/libfdt/fdt.h"
	.file 18 "include/linux/libfdt.h"
	.file 19 "include/image.h"
	.file 20 "./arch/arm/include/asm/global_data.h"
	.file 21 "include/asm-generic/global_data.h"
	.file 22 "include/dm/of.h"
	.file 23 "include/net.h"
	.file 24 "include/dm/uclass-id.h"
	.file 25 "include/dm/ofnode.h"
	.file 26 "include/malloc.h"
	.file 27 "include/linux/compat.h"
	.file 28 "include/dm/uclass.h"
	.file 29 "include/asm-generic/ioctl.h"
	.file 30 "include/misc.h"
	.file 31 "include/rockchip-otp.h"
	.file 32 "include/dm/read.h"
	.file 33 "include/linux/delay.h"
	.file 34 "include/stdio.h"
	.file 35 "include/log.h"
	.section	.note.GNU-stack,"",@progbits
