	.arch armv8-a+nosimd
	.file	"rk3328-secure-otp.c"
	.text
.Ltext0:
	.cfi_sections	.debug_frame
	.section	.text.rk3328_spl_rockchip_otp_start,"ax",@progbits
	.align	2
	.type	rk3328_spl_rockchip_otp_start, %function
rk3328_spl_rockchip_otp_start:
.LFB266:
	.file 1 "drivers/misc/rk3328-secure-otp.c"
	.loc 1 45 0
	.cfi_startproc
.LVL0:
.LBB22:
	.loc 1 46 0
#APP
// 46 "drivers/misc/rk3328-secure-otp.c" 1
	dmb sy
// 0 "" 2
#NO_APP
	mov	w1, 134219776
.LVL1:
	str	w1, [x0]
.LVL2:
.LBE22:
.LBB23:
	.loc 1 47 0
#APP
// 47 "drivers/misc/rk3328-secure-otp.c" 1
	dmb sy
// 0 "" 2
#NO_APP
	mov	w0, 1024
.LVL3:
	movk	w0, 0x600, lsl 16
	str	w0, [x2]
	ret
.LBE23:
	.cfi_endproc
.LFE266:
	.size	rk3328_spl_rockchip_otp_start, .-rk3328_spl_rockchip_otp_start
	.section	.text.rk3328_spl_rockchip_otp_stop,"ax",@progbits
	.align	2
	.type	rk3328_spl_rockchip_otp_stop, %function
rk3328_spl_rockchip_otp_stop:
.LFB267:
	.loc 1 53 0
	.cfi_startproc
.LVL4:
.LBB24:
	.loc 1 54 0
#APP
// 54 "drivers/misc/rk3328-secure-otp.c" 1
	dmb sy
// 0 "" 2
#NO_APP
	mov	w1, 134217728
.LVL5:
	str	w1, [x0]
.LVL6:
.LBE24:
.LBB25:
	.loc 1 55 0
#APP
// 55 "drivers/misc/rk3328-secure-otp.c" 1
	dmb sy
// 0 "" 2
#NO_APP
	mov	w0, 100663296
.LVL7:
	str	w0, [x2]
	ret
.LBE25:
	.cfi_endproc
.LFE267:
	.size	rk3328_spl_rockchip_otp_stop, .-rk3328_spl_rockchip_otp_stop
	.section	.text.secure_otp_ioctl,"ax",@progbits
	.align	2
	.type	secure_otp_ioctl, %function
secure_otp_ioctl:
.LFB278:
	.loc 1 406 0
	.cfi_startproc
.LVL8:
	.loc 1 409 0
	mov	x0, 27908
.LVL9:
	cmp	x1, x0
	bne	.L7
.LVL10:
.LBB26:
.LBB27:
	.loc 1 398 0
	mov	w0, 8
	str	w0, [x2]
.LVL11:
.LBE27:
.LBE26:
	.loc 1 411 0
	mov	w0, 0
	.loc 1 412 0
	ret
.LVL12:
.L7:
	.loc 1 407 0
	mov	w0, -22
	.loc 1 418 0
	ret
	.cfi_endproc
.LFE278:
	.size	secure_otp_ioctl, .-secure_otp_ioctl
	.section	.text.secure_otp_write,"ax",@progbits
	.align	2
	.type	secure_otp_write, %function
secure_otp_write:
.LFB276:
	.loc 1 390 0
	.cfi_startproc
.LVL13:
	stp	x29, x30, [sp, -48]!
	.cfi_def_cfa_offset 48
	.cfi_offset 29, -48
	.cfi_offset 30, -40
	add	x29, sp, 0
	.cfi_def_cfa_register 29
	stp	x19, x20, [sp, 16]
	.cfi_offset 19, -32
	.cfi_offset 20, -24
	mov	x19, x0
	stp	x21, x22, [sp, 32]
	.cfi_offset 21, -16
	.cfi_offset 22, -8
	.loc 1 390 0
	mov	w20, w1
	mov	x21, x2
	mov	w22, w3
	.loc 1 391 0
	bl	dev_get_driver_data
.LVL14:
	.loc 1 393 0
	ldr	x4, [x0, 8]
	mov	w3, w22
	mov	x2, x21
	mov	w1, w20
	mov	x0, x19
.LVL15:
	.loc 1 394 0
	ldp	x21, x22, [sp, 32]
.LVL16:
	ldp	x19, x20, [sp, 16]
.LVL17:
	ldp	x29, x30, [sp], 48
	.cfi_restore 30
	.cfi_restore 29
	.cfi_restore 21
	.cfi_restore 22
	.cfi_restore 19
	.cfi_restore 20
	.cfi_def_cfa 31, 0
	.loc 1 393 0
	br	x4
.LVL18:
	.cfi_endproc
.LFE276:
	.size	secure_otp_write, .-secure_otp_write
	.section	.text.secure_otp_read,"ax",@progbits
	.align	2
	.type	secure_otp_read, %function
secure_otp_read:
.LFB275:
	.loc 1 382 0
	.cfi_startproc
.LVL19:
	stp	x29, x30, [sp, -48]!
	.cfi_def_cfa_offset 48
	.cfi_offset 29, -48
	.cfi_offset 30, -40
	add	x29, sp, 0
	.cfi_def_cfa_register 29
	stp	x19, x20, [sp, 16]
	.cfi_offset 19, -32
	.cfi_offset 20, -24
	mov	x19, x0
	stp	x21, x22, [sp, 32]
	.cfi_offset 21, -16
	.cfi_offset 22, -8
	.loc 1 382 0
	mov	w20, w1
	mov	x21, x2
	mov	w22, w3
	.loc 1 383 0
	bl	dev_get_driver_data
.LVL20:
	.loc 1 385 0
	ldr	x4, [x0]
	mov	w3, w22
	mov	x2, x21
	mov	w1, w20
	mov	x0, x19
.LVL21:
	.loc 1 386 0
	ldp	x21, x22, [sp, 32]
.LVL22:
	ldp	x19, x20, [sp, 16]
.LVL23:
	ldp	x29, x30, [sp], 48
	.cfi_restore 30
	.cfi_restore 29
	.cfi_restore 21
	.cfi_restore 22
	.cfi_restore 19
	.cfi_restore 20
	.cfi_def_cfa 31, 0
	.loc 1 385 0
	br	x4
.LVL24:
	.cfi_endproc
.LFE275:
	.size	secure_otp_read, .-secure_otp_read
	.section	.text.rockchip_secure_otp_ofdata_to_platdata,"ax",@progbits
	.align	2
	.type	rockchip_secure_otp_ofdata_to_platdata, %function
rockchip_secure_otp_ofdata_to_platdata:
.LFB279:
	.loc 1 427 0
	.cfi_startproc
.LVL25:
	stp	x29, x30, [sp, -32]!
	.cfi_def_cfa_offset 32
	.cfi_offset 29, -32
	.cfi_offset 30, -24
	add	x29, sp, 0
	.cfi_def_cfa_register 29
	stp	x19, x20, [sp, 16]
	.cfi_offset 19, -16
	.cfi_offset 20, -8
	.loc 1 427 0
	mov	x20, x0
	.loc 1 428 0
	bl	dev_get_platdata
.LVL26:
	mov	x19, x0
.LVL27:
	.loc 1 430 0
	mov	x0, x20
.LVL28:
	bl	dev_read_addr_ptr
.LVL29:
	.loc 1 431 0
	mov	w2, 0
	adrp	x1, .LC0
	.loc 1 430 0
	str	x0, [x19]
	.loc 1 431 0
	add	x1, x1, :lo12:.LC0
	mov	x0, x20
	bl	dev_read_u32_default
.LVL30:
	.loc 1 432 0
	uxtw	x0, w0
	str	x0, [x19, 8]
	.loc 1 433 0
	mov	w2, 0
	mov	x0, x20
	adrp	x1, .LC1
	add	x1, x1, :lo12:.LC1
	bl	dev_read_u32_default
.LVL31:
	.loc 1 434 0
	uxtw	x0, w0
	str	x0, [x19, 16]
	.loc 1 435 0
	mov	w2, 0
	mov	x0, x20
	adrp	x1, .LC2
	add	x1, x1, :lo12:.LC2
	bl	dev_read_u32_default
.LVL32:
	.loc 1 436 0
	uxtw	x0, w0
	str	x0, [x19, 24]
	.loc 1 439 0
	mov	w0, 0
	ldp	x19, x20, [sp, 16]
.LVL33:
	ldp	x29, x30, [sp], 32
	.cfi_restore 30
	.cfi_restore 29
	.cfi_restore 19
	.cfi_restore 20
	.cfi_def_cfa 31, 0
	ret
	.cfi_endproc
.LFE279:
	.size	rockchip_secure_otp_ofdata_to_platdata, .-rockchip_secure_otp_ofdata_to_platdata
	.section	.text.rockchip_secure_otp_wait_status.isra.1,"ax",@progbits
	.align	2
	.type	rockchip_secure_otp_wait_status.isra.1, %function
rockchip_secure_otp_wait_status.isra.1:
.LFB281:
	.loc 1 58 0
	.cfi_startproc
.LVL34:
	stp	x29, x30, [sp, -48]!
	.cfi_def_cfa_offset 48
	.cfi_offset 29, -48
	.cfi_offset 30, -40
	add	x29, sp, 0
	.cfi_def_cfa_register 29
	stp	x19, x20, [sp, 16]
	.cfi_offset 19, -32
	.cfi_offset 20, -24
	mov	w19, w1
	str	x21, [sp, 32]
	.cfi_offset 21, -16
	.loc 1 58 0
	mov	x21, x0
	mov	w20, 10000
.LVL35:
.L15:
.LBB34:
	.loc 1 63 0
	ldr	x0, [x21]
	ldr	w0, [x0, 772]
.LVL36:
#APP
// 63 "drivers/misc/rk3328-secure-otp.c" 1
	dmb sy
// 0 "" 2
#NO_APP
.LBE34:
	tst	w0, w19
	beq	.L17
.LBB35:
	.loc 1 73 0
	orr	w19, w19, -65536
.LVL37:
#APP
// 73 "drivers/misc/rk3328-secure-otp.c" 1
	dmb sy
// 0 "" 2
#NO_APP
	ldr	x0, [x21]
.LVL38:
	str	w19, [x0, 772]
.LBE35:
	.loc 1 75 0
	mov	w0, 0
	b	.L14
.LVL39:
.L17:
	.loc 1 64 0
	mov	x0, 1
.LVL40:
	bl	udelay
.LVL41:
	.loc 1 66 0
	subs	w20, w20, #1
.LVL42:
	bne	.L15
.LVL43:
.LBB36:
.LBB37:
	.loc 1 67 0
	adrp	x1, .LANCHOR0
	adrp	x0, .LC3
	add	x1, x1, :lo12:.LANCHOR0
	add	x0, x0, :lo12:.LC3
	bl	printf
.LVL44:
	mov	w0, -110
.LVL45:
.L14:
.LBE37:
.LBE36:
	.loc 1 76 0
	ldp	x19, x20, [sp, 16]
.LVL46:
	ldr	x21, [sp, 32]
	ldp	x29, x30, [sp], 48
	.cfi_restore 30
	.cfi_restore 29
	.cfi_restore 21
	.cfi_restore 19
	.cfi_restore 20
	.cfi_def_cfa 31, 0
	ret
	.cfi_endproc
.LFE281:
	.size	rockchip_secure_otp_wait_status.isra.1, .-rockchip_secure_otp_wait_status.isra.1
	.section	.text.rockchip_secure_otp_read,"ax",@progbits
	.align	2
	.type	rockchip_secure_otp_read, %function
rockchip_secure_otp_read:
.LFB272:
	.loc 1 146 0
	.cfi_startproc
.LVL47:
	stp	x29, x30, [sp, -80]!
	.cfi_def_cfa_offset 80
	.cfi_offset 29, -80
	.cfi_offset 30, -72
	add	x29, sp, 0
	.cfi_def_cfa_register 29
	stp	x19, x20, [sp, 16]
	.cfi_offset 19, -64
	.cfi_offset 20, -56
	mov	w20, w1
	stp	x23, x24, [sp, 48]
	.cfi_offset 23, -32
	.cfi_offset 24, -24
	mov	w24, w3
	stp	x21, x22, [sp, 32]
	mov	x23, x0
	.cfi_offset 21, -48
	.cfi_offset 22, -40
	mov	x22, x2
	str	x25, [sp, 64]
	.cfi_offset 25, -16
	.loc 1 147 0
	bl	dev_get_platdata
.LVL48:
	mov	x19, x0
.LVL49:
	.loc 1 148 0
	mov	x0, x23
.LVL50:
	bl	dev_get_driver_data
.LVL51:
	.loc 1 154 0
	ldr	x4, [x0, 16]
	.loc 1 148 0
	mov	x25, x0
.LVL52:
	.loc 1 154 0
	ldr	x1, [x19, 24]
	mov	w3, w20
	ldp	x0, x2, [x19, 8]
.LVL53:
	blr	x4
.LVL54:
.LBB51:
.LBB52:
.LBB53:
	.loc 1 127 0
#APP
// 127 "drivers/misc/rk3328-secure-otp.c" 1
	dmb sy
// 0 "" 2
#NO_APP
	ldr	x0, [x19]
	mov	w1, 512
	movk	w1, 0xff00, lsl 16
	str	w1, [x0, 32]
.LVL55:
.LBE53:
.LBB54:
	.loc 1 128 0
#APP
// 128 "drivers/misc/rk3328-secure-otp.c" 1
	dmb sy
// 0 "" 2
#NO_APP
	ldr	x0, [x19]
	mov	w1, -65535
	str	w1, [x0, 36]
.LVL56:
.LBE54:
.LBB55:
	.loc 1 129 0
#APP
// 129 "drivers/misc/rk3328-secure-otp.c" 1
	dmb sy
// 0 "" 2
#NO_APP
	ldr	x0, [x19]
	mov	w1, 250
	str	w1, [x0, 4096]
.LVL57:
.LBE55:
.LBB56:
	.loc 1 131 0
#APP
// 131 "drivers/misc/rk3328-secure-otp.c" 1
	dmb sy
// 0 "" 2
#NO_APP
	ldr	x0, [x19]
	str	wzr, [x0, 4100]
.LVL58:
.LBE56:
.LBB57:
	.loc 1 135 0
#APP
// 135 "drivers/misc/rk3328-secure-otp.c" 1
	dmb sy
// 0 "" 2
#NO_APP
	ldr	x0, [x19]
	mov	w1, 65537
	str	w1, [x0, 32]
.LBE57:
	.loc 1 137 0
	mov	w1, 2
	mov	x0, x19
	bl	rockchip_secure_otp_wait_status.isra.1
.LVL59:
	.loc 1 138 0
	tbz	w0, #31, .L21
	.loc 1 139 0
	adrp	x1, .LANCHOR1
	adrp	x0, .LC4
.LVL60:
	add	x1, x1, :lo12:.LANCHOR1
	add	x0, x0, :lo12:.LC4
	bl	printf
.LVL61:
.L21:
.LBE52:
.LBE51:
.LBB58:
	.loc 1 158 0
#APP
// 158 "drivers/misc/rk3328-secure-otp.c" 1
	dmb sy
// 0 "" 2
#NO_APP
	ldr	x0, [x19]
	mov	w23, 65537
.LVL62:
	add	w24, w24, w20
.LVL63:
.LBE58:
	.loc 1 151 0
	mov	w21, 0
.LBB59:
	.loc 1 158 0
	str	w23, [x0, 256]
.LBE59:
	.loc 1 159 0
	mov	x0, 50
	bl	udelay
.LVL64:
.L22:
	.loc 1 160 0
	cmp	w20, w24
	beq	.L26
	.loc 1 162 0
	cmp	w20, 448
	bgt	.L28
	.loc 1 165 0
	sub	w1, w20, #16
	cmp	w20, 0
	mov	w0, w20
	ccmp	w1, 31, 0, ne
	bls	.L24
	.loc 1 165 0 is_stmt 0 discriminator 1
	sub	w1, w20, #128
	cmp	w1, 263
	bls	.L24
	.loc 1 168 0 is_stmt 1
	adrp	x0, .LC5
	add	x0, x0, :lo12:.LC5
	bl	printf
.LVL65:
.L28:
	.loc 1 163 0
	mov	w21, -1
.LVL66:
	b	.L20
.LVL67:
.L24:
.LBB60:
	.loc 1 172 0
	add	w20, w20, 1
.LVL68:
	orr	w0, w0, -65536
.LVL69:
#APP
// 172 "drivers/misc/rk3328-secure-otp.c" 1
	dmb sy
// 0 "" 2
#NO_APP
	ldr	x1, [x19]
	str	w0, [x1, 260]
.LVL70:
.LBE60:
.LBB61:
	.loc 1 174 0
#APP
// 174 "drivers/misc/rk3328-secure-otp.c" 1
	dmb sy
// 0 "" 2
#NO_APP
	ldr	x0, [x19]
.LVL71:
.LBE61:
	.loc 1 176 0
	mov	w1, 4
.LVL72:
.LBB62:
	.loc 1 174 0
	str	w23, [x0, 264]
.LVL73:
.LBE62:
	.loc 1 176 0
	mov	x0, x19
	bl	rockchip_secure_otp_wait_status.isra.1
.LVL74:
	mov	w21, w0
.LVL75:
	.loc 1 177 0
	tbz	w0, #31, .L25
	.loc 1 178 0
	adrp	x1, .LANCHOR2
	adrp	x0, .LC6
.LVL76:
	add	x1, x1, :lo12:.LANCHOR2
	add	x0, x0, :lo12:.LC6
	bl	printf
.LVL77:
.L26:
.LBB63:
	.loc 1 188 0
#APP
// 188 "drivers/misc/rk3328-secure-otp.c" 1
	dmb sy
// 0 "" 2
#NO_APP
	ldr	x0, [x19]
	mov	w1, 65536
.LBE63:
	.loc 1 190 0
	ldr	x2, [x19, 16]
	mov	w3, w20
	ldr	x4, [x25, 24]
.LBB64:
	.loc 1 188 0
	str	w1, [x0, 256]
.LBE64:
	.loc 1 190 0
	ldr	x0, [x19, 8]
	ldr	x1, [x19, 24]
	blr	x4
.LVL78:
.L20:
	.loc 1 195 0
	mov	w0, w21
	ldr	x25, [sp, 64]
.LVL79:
	ldp	x19, x20, [sp, 16]
.LVL80:
	ldp	x21, x22, [sp, 32]
.LVL81:
	ldp	x23, x24, [sp, 48]
	ldp	x29, x30, [sp], 80
	.cfi_remember_state
	.cfi_restore 30
	.cfi_restore 29
	.cfi_restore 25
	.cfi_restore 23
	.cfi_restore 24
	.cfi_restore 21
	.cfi_restore 22
	.cfi_restore 19
	.cfi_restore 20
	.cfi_def_cfa 31, 0
	ret
.LVL82:
.L25:
	.cfi_restore_state
.LBB65:
	.loc 1 182 0
	ldr	x0, [x19]
.LVL83:
	ldrb	w0, [x0, 292]
	and	w0, w0, 255
.LVL84:
#APP
// 182 "drivers/misc/rk3328-secure-otp.c" 1
	dmb sy
// 0 "" 2
.LVL85:
#NO_APP
.LBE65:
	.loc 1 184 0
	strb	w0, [x22], 1
.LVL86:
	b	.L22
	.cfi_endproc
.LFE272:
	.size	rockchip_secure_otp_read, .-rockchip_secure_otp_read
	.section	.text.rockchip_secure_otp_write,"ax",@progbits
	.align	2
	.type	rockchip_secure_otp_write, %function
rockchip_secure_otp_write:
.LFB274:
	.loc 1 345 0
	.cfi_startproc
.LVL87:
	stp	x29, x30, [sp, -128]!
	.cfi_def_cfa_offset 128
	.cfi_offset 29, -128
	.cfi_offset 30, -120
	add	x29, sp, 0
	.cfi_def_cfa_register 29
	stp	x19, x20, [sp, 16]
	.cfi_offset 19, -112
	.cfi_offset 20, -104
	mov	w19, w1
	stp	x23, x24, [sp, 48]
	.cfi_offset 23, -80
	.cfi_offset 24, -72
	mov	w24, w3
	stp	x27, x28, [sp, 80]
	stp	x21, x22, [sp, 32]
	stp	x25, x26, [sp, 64]
	.cfi_offset 27, -48
	.cfi_offset 28, -40
	.cfi_offset 21, -96
	.cfi_offset 22, -88
	.cfi_offset 25, -64
	.cfi_offset 26, -56
	.loc 1 345 0
	stp	x2, x0, [x29, 104]
	.loc 1 346 0
	bl	dev_get_platdata
.LVL88:
	mov	x28, x0
.LVL89:
	.loc 1 348 0
	sxtw	x0, w24
.LVL90:
	bl	malloc_simple
.LVL91:
	.loc 1 351 0
	cbnz	x0, .L31
.LVL92:
.L60:
.LBB133:
.LBB134:
	.loc 1 212 0
	mov	w27, -1
.L30:
.LBE134:
.LBE133:
	.loc 1 378 0
	mov	w0, w27
	ldp	x19, x20, [sp, 16]
	ldp	x21, x22, [sp, 32]
	ldp	x23, x24, [sp, 48]
.LVL93:
	ldp	x25, x26, [sp, 64]
	ldp	x27, x28, [sp, 80]
.LVL94:
	ldp	x29, x30, [sp], 128
	.cfi_remember_state
	.cfi_restore 30
	.cfi_restore 29
	.cfi_restore 27
	.cfi_restore 28
	.cfi_restore 25
	.cfi_restore 26
	.cfi_restore 23
	.cfi_restore 24
	.cfi_restore 21
	.cfi_restore 22
	.cfi_restore 19
	.cfi_restore 20
	.cfi_def_cfa 31, 0
.LVL95:
	ret
.LVL96:
.L31:
	.cfi_restore_state
	mov	x20, x0
	.loc 1 354 0
	mov	x2, x0
	ldr	x0, [x29, 112]
.LVL97:
	mov	w3, w24
	mov	w1, w19
	bl	rockchip_secure_otp_read
.LVL98:
	.loc 1 355 0
	cbnz	w0, .L60
	mov	x0, 0
.LVL99:
.L35:
	.loc 1 360 0 discriminator 1
	cmp	w24, w0
	bgt	.L36
.LBB211:
.LBB207:
	.loc 1 308 0
	adrp	x20, .LANCHOR3
.LVL100:
	add	x20, x20, :lo12:.LANCHOR3
.LBE207:
.LBE211:
	.loc 1 360 0
	mov	x23, 0
.LVL101:
.L37:
	.loc 1 370 0 discriminator 1
	cmp	w24, w23
	bgt	.L53
	mov	w27, 0
	b	.L30
.LVL102:
.L36:
	add	x0, x0, 1
.LVL103:
	.loc 1 361 0
	add	x1, x20, x0
	ldrb	w1, [x1, -1]
	cbz	w1, .L35
	.loc 1 362 0
	adrp	x0, .LC7
	add	x0, x0, :lo12:.LC7
.LVL104:
.L61:
.LBB212:
.LBB208:
	.loc 1 212 0
	bl	printf
.LVL105:
	b	.L60
.LVL106:
.L53:
.LBE208:
.LBE212:
	.loc 1 371 0
	ldr	x0, [x29, 104]
	ldrb	w0, [x0, x23]
	str	w0, [x29, 124]
.LVL107:
.LBB213:
.LBB209:
	.loc 1 202 0
	ldr	x0, [x29, 112]
	bl	dev_get_driver_data
.LVL108:
	mov	x26, x0
.LVL109:
	.loc 1 205 0
	cmp	w19, 448
	bgt	.L60
	.loc 1 209 0
	sub	w0, w19, #16
.LVL110:
	cmp	w19, 0
	ccmp	w0, 31, 0, ne
	bls	.L38
	sub	w0, w19, #128
	cmp	w0, 263
	bls	.L38
	.loc 1 212 0
	adrp	x0, .LC5
	add	x0, x0, :lo12:.LC5
	b	.L61
.L38:
	.loc 1 216 0
	ldr	w0, [x29, 124]
	cbnz	w0, .L39
.LVL111:
.L52:
	add	x23, x23, 1
	add	w19, w19, 1
	b	.L37
.LVL112:
.L39:
	.loc 1 219 0
	ldr	x5, [x26, 16]
	mov	w3, w19
	ldp	x0, x2, [x28, 8]
	ldr	x1, [x28, 24]
	blr	x5
.LVL113:
.LBB135:
	.loc 1 222 0
#APP
// 222 "drivers/misc/rk3328-secure-otp.c" 1
	dmb sy
// 0 "" 2
#NO_APP
	ldr	x0, [x28]
	mov	w1, 262148
	str	w1, [x0, 32]
.LVL114:
.LBE135:
.LBB136:
	.loc 1 223 0
#APP
// 223 "drivers/misc/rk3328-secure-otp.c" 1
	dmb sy
// 0 "" 2
#NO_APP
	ldr	x0, [x28]
	mov	w1, -65536
	str	w1, [x0, 40]
.LVL115:
.LBE136:
.LBB137:
	.loc 1 224 0
#APP
// 224 "drivers/misc/rk3328-secure-otp.c" 1
	dmb sy
// 0 "" 2
#NO_APP
	ldr	x0, [x28]
	mov	w1, 512
	movk	w1, 0xff00, lsl 16
	str	w1, [x0, 32]
.LVL116:
.LBE137:
.LBB138:
	.loc 1 225 0
#APP
// 225 "drivers/misc/rk3328-secure-otp.c" 1
	dmb sy
// 0 "" 2
#NO_APP
	ldr	x0, [x28]
	mov	w1, -65522
	str	w1, [x0, 36]
.LVL117:
.LBE138:
.LBB139:
	.loc 1 226 0
#APP
// 226 "drivers/misc/rk3328-secure-otp.c" 1
	dmb sy
// 0 "" 2
#NO_APP
	ldr	x0, [x28]
	mov	w2, 240
	str	w2, [x29, 120]
.LVL118:
	str	w2, [x0, 4096]
.LBE139:
.LBB140:
	.loc 1 227 0
#APP
// 227 "drivers/misc/rk3328-secure-otp.c" 1
	dmb sy
// 0 "" 2
#NO_APP
	ldr	x0, [x28]
	mov	w25, 1
	str	w25, [x0, 4100]
.LVL119:
.LBE140:
.LBB141:
	.loc 1 228 0
#APP
// 228 "drivers/misc/rk3328-secure-otp.c" 1
	dmb sy
// 0 "" 2
#NO_APP
	ldr	x0, [x28]
	mov	w21, 122
	str	w21, [x0, 4104]
.LVL120:
.LBE141:
.LBB142:
	.loc 1 229 0
#APP
// 229 "drivers/misc/rk3328-secure-otp.c" 1
	dmb sy
// 0 "" 2
#NO_APP
	ldr	x0, [x28]
	mov	w1, 37
	str	w1, [x0, 4108]
.LVL121:
.LBE142:
.LBB143:
	.loc 1 230 0
#APP
// 230 "drivers/misc/rk3328-secure-otp.c" 1
	dmb sy
// 0 "" 2
#NO_APP
	ldr	x0, [x28]
	mov	w1, 4
	str	w1, [x0, 4112]
.LVL122:
.LBE143:
.LBB144:
	.loc 1 231 0
#APP
// 231 "drivers/misc/rk3328-secure-otp.c" 1
	dmb sy
// 0 "" 2
#NO_APP
	ldr	x0, [x28]
	str	wzr, [x0, 4116]
.LVL123:
.LBE144:
.LBB145:
	.loc 1 232 0
#APP
// 232 "drivers/misc/rk3328-secure-otp.c" 1
	dmb sy
// 0 "" 2
#NO_APP
	ldr	x0, [x28]
	str	wzr, [x0, 4120]
.LVL124:
.LBE145:
.LBB146:
	.loc 1 233 0
#APP
// 233 "drivers/misc/rk3328-secure-otp.c" 1
	dmb sy
// 0 "" 2
#NO_APP
	ldr	x0, [x28]
	str	wzr, [x0, 4124]
.LVL125:
.LBE146:
.LBB147:
	.loc 1 234 0
#APP
// 234 "drivers/misc/rk3328-secure-otp.c" 1
	dmb sy
// 0 "" 2
#NO_APP
	ldr	x0, [x28]
	mov	w1, 11
	str	w1, [x0, 4128]
.LVL126:
.LBE147:
.LBB148:
	.loc 1 235 0
#APP
// 235 "drivers/misc/rk3328-secure-otp.c" 1
	dmb sy
// 0 "" 2
#NO_APP
	ldr	x0, [x28]
	mov	w1, 8
	str	w1, [x0, 4132]
.LVL127:
.LBE148:
.LBB149:
	.loc 1 236 0
#APP
// 236 "drivers/misc/rk3328-secure-otp.c" 1
	dmb sy
// 0 "" 2
#NO_APP
	ldr	x0, [x28]
	str	wzr, [x0, 4136]
.LVL128:
.LBE149:
.LBB150:
	.loc 1 237 0
#APP
// 237 "drivers/misc/rk3328-secure-otp.c" 1
	dmb sy
// 0 "" 2
#NO_APP
	ldr	x0, [x28]
	str	wzr, [x0, 4140]
.LVL129:
.LBE150:
.LBB151:
	.loc 1 238 0
#APP
// 238 "drivers/misc/rk3328-secure-otp.c" 1
	dmb sy
// 0 "" 2
#NO_APP
	ldr	x0, [x28]
	str	wzr, [x0, 4144]
.LBE151:
.LBB152:
	.loc 1 239 0
	and	w0, w19, 255
#APP
// 239 "drivers/misc/rk3328-secure-otp.c" 1
	dmb sy
// 0 "" 2
#NO_APP
	ldr	x1, [x28]
	str	w0, [x1, 4148]
.LBE152:
.LBB153:
	.loc 1 240 0
	ubfx	x1, x19, 8, 8
.LVL130:
#APP
// 240 "drivers/misc/rk3328-secure-otp.c" 1
	dmb sy
// 0 "" 2
#NO_APP
	ldr	x0, [x28]
	str	w1, [x0, 4152]
.LVL131:
.LBE153:
.LBB154:
	.loc 1 241 0
#APP
// 241 "drivers/misc/rk3328-secure-otp.c" 1
	dmb sy
// 0 "" 2
#NO_APP
	ldr	x0, [x28]
	mov	w22, 65537
.LBE154:
	.loc 1 242 0
	mov	w1, 2
.LVL132:
.LBB155:
	.loc 1 241 0
	str	w22, [x0, 32]
.LVL133:
.LBE155:
	.loc 1 242 0
	mov	x0, x28
	bl	rockchip_secure_otp_wait_status.isra.1
.LVL134:
	mov	w27, w0
.LVL135:
	.loc 1 243 0
	ldr	w2, [x29, 120]
	tbz	w0, #31, .L40
	.loc 1 244 0
	adrp	x0, .LC8
.LVL136:
	mov	x1, x20
	add	x0, x0, :lo12:.LC8
.L59:
	.loc 1 267 0
	bl	printf
.LVL137:
.L41:
.LBB156:
	.loc 1 335 0
#APP
// 335 "drivers/misc/rk3328-secure-otp.c" 1
	dmb sy
// 0 "" 2
#NO_APP
	ldr	x0, [x28]
	mov	w1, -65533
.LBE156:
	.loc 1 336 0
	ldr	x6, [x26, 24]
	mov	w3, w19
	ldr	x2, [x28, 16]
.LBB157:
	.loc 1 335 0
	str	w1, [x0, 772]
.LBE157:
	.loc 1 336 0
	ldr	x0, [x28, 8]
	ldr	x1, [x28, 24]
	blr	x6
.LVL138:
.LBE209:
.LBE213:
	.loc 1 372 0
	cbz	w27, .L52
	b	.L30
.LVL139:
.L40:
.LBB214:
.LBB210:
.LBB158:
	.loc 1 248 0
#APP
// 248 "drivers/misc/rk3328-secure-otp.c" 1
	dmb sy
// 0 "" 2
#NO_APP
	ldr	x0, [x28]
.LVL140:
	mov	w1, 14848
	movk	w1, 0xff00, lsl 16
	str	w1, [x0, 32]
.LVL141:
.LBE158:
.LBB159:
	.loc 1 249 0
#APP
// 249 "drivers/misc/rk3328-secure-otp.c" 1
	dmb sy
// 0 "" 2
#NO_APP
	ldr	x0, [x28]
	str	w2, [x0, 4096]
.LVL142:
.LBE159:
.LBB160:
	.loc 1 250 0
#APP
// 250 "drivers/misc/rk3328-secure-otp.c" 1
	dmb sy
// 0 "" 2
#NO_APP
	ldr	x0, [x28]
	str	w25, [x0, 4100]
.LVL143:
.LBE160:
.LBB161:
	.loc 1 251 0
#APP
// 251 "drivers/misc/rk3328-secure-otp.c" 1
	dmb sy
// 0 "" 2
#NO_APP
	ldr	x0, [x28]
	str	w21, [x0, 4104]
.LVL144:
.LBE161:
.LBB162:
	.loc 1 252 0
#APP
// 252 "drivers/misc/rk3328-secure-otp.c" 1
	dmb sy
// 0 "" 2
#NO_APP
	ldr	x0, [x28]
	mov	w1, 21
	str	w1, [x0, 4108]
.LVL145:
.LBE162:
.LBB163:
	.loc 1 253 0
#APP
// 253 "drivers/misc/rk3328-secure-otp.c" 1
	dmb sy
// 0 "" 2
#NO_APP
	ldr	x0, [x28]
	mov	w1, 220
	str	w1, [x0, 4112]
.LVL146:
.LBE163:
.LBB164:
	.loc 1 254 0
#APP
// 254 "drivers/misc/rk3328-secure-otp.c" 1
	dmb sy
// 0 "" 2
#NO_APP
	ldr	x0, [x28]
	mov	w1, 146
	str	w1, [x0, 4116]
.LVL147:
.LBE164:
.LBB165:
	.loc 1 255 0
#APP
// 255 "drivers/misc/rk3328-secure-otp.c" 1
	dmb sy
// 0 "" 2
#NO_APP
	ldr	x0, [x28]
	mov	w1, 121
	str	w1, [x0, 4120]
.LVL148:
.LBE165:
.LBB166:
	.loc 1 256 0
#APP
// 256 "drivers/misc/rk3328-secure-otp.c" 1
	dmb sy
// 0 "" 2
#NO_APP
	ldr	x0, [x28]
	mov	w1, 129
	str	w1, [x0, 4124]
.LVL149:
.LBE166:
.LBB167:
	.loc 1 257 0
#APP
// 257 "drivers/misc/rk3328-secure-otp.c" 1
	dmb sy
// 0 "" 2
#NO_APP
	ldr	x0, [x28]
	mov	w1, 126
	str	w1, [x0, 4128]
.LVL150:
.LBE167:
.LBB168:
	.loc 1 258 0
#APP
// 258 "drivers/misc/rk3328-secure-otp.c" 1
	dmb sy
// 0 "" 2
#NO_APP
	ldr	x0, [x28]
	mov	w1, 33
	str	w1, [x0, 4132]
.LVL151:
.LBE168:
.LBB169:
	.loc 1 259 0
#APP
// 259 "drivers/misc/rk3328-secure-otp.c" 1
	dmb sy
// 0 "" 2
#NO_APP
	ldr	x0, [x28]
	mov	w1, 17
	str	w1, [x0, 4136]
.LVL152:
.LBE169:
.LBB170:
	.loc 1 260 0
#APP
// 260 "drivers/misc/rk3328-secure-otp.c" 1
	dmb sy
// 0 "" 2
#NO_APP
	ldr	x0, [x28]
	mov	w1, 157
	str	w1, [x0, 4140]
.LVL153:
.LBE170:
.LBB171:
	.loc 1 261 0
#APP
// 261 "drivers/misc/rk3328-secure-otp.c" 1
	dmb sy
// 0 "" 2
#NO_APP
	ldr	x0, [x28]
	mov	w21, 2
	str	w21, [x0, 4144]
.LVL154:
.LBE171:
.LBB172:
	.loc 1 262 0
#APP
// 262 "drivers/misc/rk3328-secure-otp.c" 1
	dmb sy
// 0 "" 2
#NO_APP
	ldr	x0, [x28]
	str	wzr, [x0, 4148]
.LVL155:
.LBE172:
.LBB173:
	.loc 1 263 0
#APP
// 263 "drivers/misc/rk3328-secure-otp.c" 1
	dmb sy
// 0 "" 2
#NO_APP
	ldr	x0, [x28]
	str	wzr, [x0, 4152]
.LVL156:
.LBE173:
.LBB174:
	.loc 1 264 0
#APP
// 264 "drivers/misc/rk3328-secure-otp.c" 1
	dmb sy
// 0 "" 2
#NO_APP
	ldr	x0, [x28]
.LBE174:
	.loc 1 265 0
	mov	w1, w21
.LBB175:
	.loc 1 264 0
	str	w22, [x0, 32]
.LBE175:
	.loc 1 265 0
	mov	x0, x28
	bl	rockchip_secure_otp_wait_status.isra.1
.LVL157:
	mov	w27, w0
.LVL158:
	.loc 1 266 0
	tbz	w0, #31, .L42
	.loc 1 267 0
	adrp	x0, .LC9
.LVL159:
	mov	x1, x20
	add	x0, x0, :lo12:.LC9
	b	.L59
.LVL160:
.L42:
.LBB176:
	.loc 1 271 0
#APP
// 271 "drivers/misc/rk3328-secure-otp.c" 1
	dmb sy
// 0 "" 2
#NO_APP
	ldr	x0, [x28]
.LVL161:
	mov	w1, 512
	movk	w1, 0xff00, lsl 16
	str	w1, [x0, 32]
.LVL162:
.LBE176:
.LBB177:
	.loc 1 272 0
#APP
// 272 "drivers/misc/rk3328-secure-otp.c" 1
	dmb sy
// 0 "" 2
#NO_APP
	ldr	x0, [x28]
	mov	w1, -65535
	str	w1, [x0, 36]
.LVL163:
.LBE177:
.LBB178:
	.loc 1 273 0
#APP
// 273 "drivers/misc/rk3328-secure-otp.c" 1
	dmb sy
// 0 "" 2
#NO_APP
	ldr	x0, [x28]
	mov	w1, 251
	str	w1, [x0, 4096]
.LVL164:
.LBE178:
.LBB179:
	.loc 1 274 0
#APP
// 274 "drivers/misc/rk3328-secure-otp.c" 1
	dmb sy
// 0 "" 2
#NO_APP
	ldr	x0, [x28]
	str	wzr, [x0, 4100]
.LVL165:
.LBE179:
.LBB180:
	.loc 1 275 0
#APP
// 275 "drivers/misc/rk3328-secure-otp.c" 1
	dmb sy
// 0 "" 2
#NO_APP
	ldr	x0, [x28]
.LBE180:
	.loc 1 276 0
	mov	w1, w21
.LBB181:
	.loc 1 275 0
	str	w22, [x0, 32]
.LBE181:
	.loc 1 276 0
	mov	x0, x28
	bl	rockchip_secure_otp_wait_status.isra.1
.LVL166:
	mov	w27, w0
.LVL167:
	.loc 1 277 0
	tbz	w0, #31, .L43
	.loc 1 278 0
	adrp	x0, .LC10
.LVL168:
	mov	x1, x20
	add	x0, x0, :lo12:.LC10
	b	.L59
.LVL169:
.L43:
.LBB182:
	.loc 1 282 0
#APP
// 282 "drivers/misc/rk3328-secure-otp.c" 1
	dmb sy
// 0 "" 2
#NO_APP
	ldr	x0, [x28]
.LVL170:
	mov	w1, 192
	str	w1, [x0, 4096]
.LVL171:
.LBE182:
.LBB183:
	.loc 1 283 0
#APP
// 283 "drivers/misc/rk3328-secure-otp.c" 1
	dmb sy
// 0 "" 2
#NO_APP
	ldr	x0, [x28]
	ldr	w1, [x29, 124]
	str	w1, [x0, 4100]
.LVL172:
.LBE183:
.LBB184:
	.loc 1 284 0
#APP
// 284 "drivers/misc/rk3328-secure-otp.c" 1
	dmb sy
// 0 "" 2
#NO_APP
	ldr	x0, [x28]
.LBE184:
	.loc 1 285 0
	mov	w1, w21
.LBB185:
	.loc 1 284 0
	str	w22, [x0, 32]
.LBE185:
	.loc 1 285 0
	mov	x0, x28
	bl	rockchip_secure_otp_wait_status.isra.1
.LVL173:
	mov	w27, w0
.LVL174:
	.loc 1 286 0
	tbz	w0, #31, .L44
	.loc 1 287 0
	adrp	x0, .LC11
.LVL175:
	mov	x1, x20
	add	x0, x0, :lo12:.LC11
	b	.L59
.LVL176:
.L44:
.LBB186:
	.loc 1 291 0
#APP
// 291 "drivers/misc/rk3328-secure-otp.c" 1
	dmb sy
// 0 "" 2
#NO_APP
	ldr	x0, [x28]
.LVL177:
	mov	w1, 14848
	movk	w1, 0xff00, lsl 16
	str	w1, [x0, 32]
.LVL178:
.LBE186:
.LBB187:
	.loc 1 292 0
#APP
// 292 "drivers/misc/rk3328-secure-otp.c" 1
	dmb sy
// 0 "" 2
#NO_APP
	ldr	x0, [x28]
	mov	w1, 255
	str	w1, [x0, 4096]
.LVL179:
.LBE187:
.LBB188:
	.loc 1 293 0
#APP
// 293 "drivers/misc/rk3328-secure-otp.c" 1
	dmb sy
// 0 "" 2
#NO_APP
	ldr	x0, [x28]
	mov	w1, 10
	str	w1, [x0, 4100]
.LVL180:
.LBE188:
.LBB189:
	.loc 1 294 0
#APP
// 294 "drivers/misc/rk3328-secure-otp.c" 1
	dmb sy
// 0 "" 2
#NO_APP
	ldr	x0, [x28]
.LBE189:
	.loc 1 295 0
	mov	w1, w21
.LBB190:
	.loc 1 294 0
	str	w22, [x0, 32]
.LBE190:
	.loc 1 295 0
	mov	x0, x28
	bl	rockchip_secure_otp_wait_status.isra.1
.LVL181:
	mov	w27, w0
.LVL182:
	.loc 1 296 0
	tbz	w0, #31, .L45
	.loc 1 297 0
	adrp	x0, .LC12
.LVL183:
	mov	x1, x20
	add	x0, x0, :lo12:.LC12
	b	.L59
.LVL184:
.L45:
.LBB191:
	.loc 1 301 0
#APP
// 301 "drivers/misc/rk3328-secure-otp.c" 1
	dmb sy
// 0 "" 2
#NO_APP
	ldr	x0, [x28]
.LVL185:
	mov	w1, -65534
	str	w1, [x0, 36]
.LVL186:
.LBE191:
.LBB192:
	.loc 1 302 0
#APP
// 302 "drivers/misc/rk3328-secure-otp.c" 1
	dmb sy
// 0 "" 2
#NO_APP
	ldr	x0, [x28]
	str	w25, [x0, 4096]
.LVL187:
.LBE192:
.LBB193:
	.loc 1 303 0
#APP
// 303 "drivers/misc/rk3328-secure-otp.c" 1
	dmb sy
// 0 "" 2
#NO_APP
	ldr	x0, [x28]
	mov	w1, 191
	str	w1, [x0, 4100]
.LVL188:
.LBE193:
.LBB194:
	.loc 1 304 0
#APP
// 304 "drivers/misc/rk3328-secure-otp.c" 1
	dmb sy
// 0 "" 2
#NO_APP
	ldr	x0, [x28]
	str	wzr, [x0, 4104]
.LVL189:
.LBE194:
.LBB195:
	.loc 1 305 0
#APP
// 305 "drivers/misc/rk3328-secure-otp.c" 1
	dmb sy
// 0 "" 2
#NO_APP
	ldr	x0, [x28]
.LBE195:
	.loc 1 306 0
	mov	w1, w21
.LBB196:
	.loc 1 305 0
	str	w22, [x0, 32]
.LBE196:
	.loc 1 306 0
	mov	x0, x28
	bl	rockchip_secure_otp_wait_status.isra.1
.LVL190:
	mov	w27, w0
.LVL191:
	.loc 1 307 0
	tbnz	w0, #31, .L46
	mov	w21, 34465
	movk	w21, 0x1, lsl 16
.LVL192:
.L47:
.LBB197:
.LBB198:
.LBB199:
	.loc 1 106 0
	ldr	x0, [x28]
	ldr	w0, [x0, 44]
.LVL193:
#APP
// 106 "drivers/misc/rk3328-secure-otp.c" 1
	dmb sy
// 0 "" 2
.LVL194:
#NO_APP
.LBE199:
	.loc 1 107 0
	and	w27, w0, 16
	tbz	x0, 4, .L48
	.loc 1 110 0
	subs	w21, w21, #1
.LVL195:
	beq	.L49
.LVL196:
	.loc 1 116 0
	mov	x0, 1
.LVL197:
	bl	udelay
.LVL198:
	b	.L47
.LVL199:
.L46:
.LBE198:
.LBE197:
	.loc 1 308 0
	adrp	x0, .LC13
.LVL200:
	mov	x1, x20
	add	x0, x0, :lo12:.LC13
	b	.L59
.LVL201:
.L54:
	.loc 1 324 0
	mov	x1, x20
	adrp	x0, .LC14
.LVL202:
	mov	w27, w21
	add	x0, x0, :lo12:.LC14
	bl	printf
.LVL203:
	b	.L41
.LVL204:
.L49:
	.loc 1 314 0
	adrp	x0, .LC15
	mov	x1, x20
	add	x0, x0, :lo12:.LC15
.L58:
	.loc 1 330 0
	bl	printf
.LVL205:
	mov	w27, -1
	b	.L41
.LVL206:
.L48:
.LBB200:
	.loc 1 318 0
#APP
// 318 "drivers/misc/rk3328-secure-otp.c" 1
	dmb sy
// 0 "" 2
#NO_APP
	ldr	x0, [x28]
	mov	w1, -65534
	str	w1, [x0, 36]
.LVL207:
.LBE200:
.LBB201:
	.loc 1 319 0
#APP
// 319 "drivers/misc/rk3328-secure-otp.c" 1
	dmb sy
// 0 "" 2
#NO_APP
	ldr	x0, [x28]
	mov	w1, 2
	str	w1, [x0, 4096]
.LVL208:
.LBE201:
.LBB202:
	.loc 1 320 0
#APP
// 320 "drivers/misc/rk3328-secure-otp.c" 1
	dmb sy
// 0 "" 2
#NO_APP
	ldr	x0, [x28]
	mov	w2, 191
	str	w2, [x0, 4100]
.LVL209:
.LBE202:
.LBB203:
	.loc 1 321 0
#APP
// 321 "drivers/misc/rk3328-secure-otp.c" 1
	dmb sy
// 0 "" 2
#NO_APP
	ldr	x0, [x28]
	mov	w2, 65537
	str	w2, [x0, 32]
.LBE203:
	.loc 1 322 0
	mov	x0, x28
	bl	rockchip_secure_otp_wait_status.isra.1
.LVL210:
	mov	w21, w0
.LVL211:
	.loc 1 323 0
	tbnz	w0, #31, .L54
	mov	w21, 20001
.LVL212:
.L51:
.LBB204:
.LBB205:
.LBB206:
	.loc 1 84 0
	ldr	x0, [x28]
	ldr	w0, [x0, 44]
.LVL213:
#APP
// 84 "drivers/misc/rk3328-secure-otp.c" 1
	dmb sy
// 0 "" 2
.LVL214:
#NO_APP
.LBE206:
	.loc 1 85 0
	tbnz	x0, 4, .L41
	.loc 1 88 0
	subs	w21, w21, #1
.LVL215:
	beq	.L50
	.loc 1 93 0
	mov	x0, 1
.LVL216:
	bl	udelay
.LVL217:
	b	.L51
.LVL218:
.L50:
.LBE205:
.LBE204:
	.loc 1 330 0
	adrp	x0, .LC16
	mov	x1, x20
	add	x0, x0, :lo12:.LC16
	b	.L58
.LBE210:
.LBE214:
	.cfi_endproc
.LFE274:
	.size	rockchip_secure_otp_write, .-rockchip_secure_otp_write
	.global	_u_boot_list_2_driver_2_rockchip_secure_otp
	.section	.rodata.__func__.7392,"a",@progbits
	.align	3
	.set	.LANCHOR0,. + 0
	.type	__func__.7392, %object
	.size	__func__.7392, 32
__func__.7392:
	.string	"rockchip_secure_otp_wait_status"
	.section	.rodata.__func__.7435,"a",@progbits
	.align	3
	.set	.LANCHOR1,. + 0
	.type	__func__.7435, %object
	.size	__func__.7435, 31
__func__.7435:
	.string	"rockchip_secure_otp_ecc_enable"
	.section	.rodata.__func__.7453,"a",@progbits
	.align	3
	.set	.LANCHOR2,. + 0
	.type	__func__.7453, %object
	.size	__func__.7453, 25
__func__.7453:
	.string	"rockchip_secure_otp_read"
	.section	.rodata.__func__.7510,"a",@progbits
	.align	3
	.set	.LANCHOR3,. + 0
	.type	__func__.7510, %object
	.size	__func__.7510, 31
__func__.7510:
	.string	"rockchip_secure_otp_write_byte"
	.section	.rodata.rk3328_data,"a",@progbits
	.align	3
	.type	rk3328_data, %object
	.size	rk3328_data, 32
rk3328_data:
	.xword	rockchip_secure_otp_read
	.xword	rockchip_secure_otp_write
	.xword	rk3328_spl_rockchip_otp_start
	.xword	rk3328_spl_rockchip_otp_stop
	.section	.rodata.rockchip_otp_ids,"a",@progbits
	.align	3
	.type	rockchip_otp_ids, %object
	.size	rockchip_otp_ids, 32
rockchip_otp_ids:
	.xword	.LC18
	.xword	rk3328_data
	.zero	16
	.section	.rodata.rockchip_secure_otp_ofdata_to_platdata.str1.1,"aMS",@progbits,1
.LC0:
	.string	"secure_conf"
.LC1:
	.string	"mask_addr"
.LC2:
	.string	"cru_rst_addr"
	.section	.rodata.rockchip_secure_otp_ops,"a",@progbits
	.align	3
	.type	rockchip_secure_otp_ops, %object
	.size	rockchip_secure_otp_ops, 32
rockchip_secure_otp_ops:
	.xword	secure_otp_read
	.xword	secure_otp_write
	.xword	secure_otp_ioctl
	.zero	8
	.section	.rodata.rockchip_secure_otp_read.str1.1,"aMS",@progbits,1
.LC4:
	.string	"%s timeout during ecc_enable\n"
.LC5:
	.string	"Please input correct addr\n"
.LC6:
	.string	"%s timeout during read setup\n"
	.section	.rodata.rockchip_secure_otp_wait_status.isra.1.str1.1,"aMS",@progbits,1
.LC3:
	.string	"%s: wait init status timeout\n"
	.section	.rodata.rockchip_secure_otp_write.str1.1,"aMS",@progbits,1
.LC7:
	.string	"The zone is written.\n"
.LC8:
	.string	"%s timeout during write setup 1\n"
.LC9:
	.string	"%s timeout during write setup 2\n"
.LC10:
	.string	"%s timeout during write setup 3\n"
.LC11:
	.string	"%s timeout during write setup 4\n"
.LC12:
	.string	"%s timeout during write setup 5\n"
.LC13:
	.string	"%s timeout during write setup 6\n"
.LC14:
	.string	"%s timeout during write setup 8\n"
.LC15:
	.string	"%s timeout during write setup 7\n"
.LC16:
	.string	"%s timeout during write setup 9\n"
	.section	.rodata.str1.1,"aMS",@progbits,1
.LC17:
	.string	"rockchip_secure_otp"
.LC18:
	.string	"rockchip,rk3328-secure-otp"
	.section	.u_boot_list_2_driver_2_rockchip_secure_otp,"aw",@progbits
	.align	2
	.type	_u_boot_list_2_driver_2_rockchip_secure_otp, %object
	.size	_u_boot_list_2_driver_2_rockchip_secure_otp, 120
_u_boot_list_2_driver_2_rockchip_secure_otp:
	.8byte	.LC17
	.word	36
	.zero	4
	.8byte	rockchip_otp_ids
	.zero	32
	.8byte	rockchip_secure_otp_ofdata_to_platdata
	.zero	28
	.word	32
	.zero	8
	.8byte	rockchip_secure_otp_ops
	.zero	8
	.text
.Letext0:
	.file 2 "include/common.h"
	.file 3 "./arch/arm/include/asm/types.h"
	.file 4 "include/linux/types.h"
	.file 5 "include/errno.h"
	.file 6 "include/linux/string.h"
	.file 7 "include/efi.h"
	.file 8 "include/dm/device.h"
	.file 9 "include/ide.h"
	.file 10 "include/linux/list.h"
	.file 11 "include/part.h"
	.file 12 "include/flash.h"
	.file 13 "include/lmb.h"
	.file 14 "include/asm-generic/u-boot.h"
	.file 15 "./arch/arm/include/asm/u-boot-arm.h"
	.file 16 "include/linux/libfdt_env.h"
	.file 17 "include/linux/../../scripts/dtc/libfdt/fdt.h"
	.file 18 "include/linux/libfdt.h"
	.file 19 "include/image.h"
	.file 20 "./arch/arm/include/asm/global_data.h"
	.file 21 "include/asm-generic/global_data.h"
	.file 22 "include/dm/of.h"
	.file 23 "include/net.h"
	.file 24 "include/dm/uclass-id.h"
	.file 25 "include/dm/ofnode.h"
	.file 26 "include/malloc.h"
	.file 27 "include/linux/compat.h"
	.file 28 "include/dm/uclass.h"
	.file 29 "include/asm-generic/ioctl.h"
	.file 30 "include/misc.h"
	.file 31 "include/rockchip-otp.h"
	.file 32 "include/dm/read.h"
	.file 33 "include/linux/delay.h"
	.file 34 "include/stdio.h"
	.file 35 "include/log.h"
	.section	.note.GNU-stack,"",@progbits
