	.arch armv8-a+nosimd
	.file	"rk3568-secure-otp.c"
	.text
.Ltext0:
	.cfi_sections	.debug_frame
	.section	.text.rk3568_spl_rockchip_otp_stop,"ax",@progbits
	.align	2
	.type	rk3568_spl_rockchip_otp_stop, %function
rk3568_spl_rockchip_otp_stop:
.LFB263:
	.file 1 "drivers/misc/rk3568-secure-otp.c"
	.loc 1 57 0
	.cfi_startproc
.LVL0:
.LBB22:
	.loc 1 58 0
#APP
// 58 "drivers/misc/rk3568-secure-otp.c" 1
	dmb sy
// 0 "" 2
#NO_APP
	mov	w1, 131072
.LVL1:
	str	w1, [x0]
	ret
.LBE22:
	.cfi_endproc
.LFE263:
	.size	rk3568_spl_rockchip_otp_stop, .-rk3568_spl_rockchip_otp_stop
	.section	.text.secure_otp_ioctl,"ax",@progbits
	.align	2
	.type	secure_otp_ioctl, %function
secure_otp_ioctl:
.LFB276:
	.loc 1 671 0
	.cfi_startproc
.LVL2:
	.loc 1 674 0
	mov	x0, 27908
.LVL3:
	cmp	x1, x0
	bne	.L6
.LVL4:
.LBB23:
.LBB24:
	.loc 1 663 0
	mov	w0, 8
	str	w0, [x2]
.LVL5:
.LBE24:
.LBE23:
	.loc 1 676 0
	mov	w0, 0
	.loc 1 677 0
	ret
.LVL6:
.L6:
	.loc 1 672 0
	mov	w0, -22
	.loc 1 683 0
	ret
	.cfi_endproc
.LFE276:
	.size	secure_otp_ioctl, .-secure_otp_ioctl
	.section	.text.secure_otp_write,"ax",@progbits
	.align	2
	.type	secure_otp_write, %function
secure_otp_write:
.LFB274:
	.loc 1 655 0
	.cfi_startproc
.LVL7:
	stp	x29, x30, [sp, -48]!
	.cfi_def_cfa_offset 48
	.cfi_offset 29, -48
	.cfi_offset 30, -40
	add	x29, sp, 0
	.cfi_def_cfa_register 29
	stp	x19, x20, [sp, 16]
	.cfi_offset 19, -32
	.cfi_offset 20, -24
	mov	x19, x0
	stp	x21, x22, [sp, 32]
	.cfi_offset 21, -16
	.cfi_offset 22, -8
	.loc 1 655 0
	mov	w20, w1
	mov	x21, x2
	mov	w22, w3
	.loc 1 656 0
	bl	dev_get_driver_data
.LVL8:
	.loc 1 658 0
	ldr	x4, [x0, 8]
	mov	w3, w22
	mov	x2, x21
	mov	w1, w20
	mov	x0, x19
.LVL9:
	.loc 1 659 0
	ldp	x21, x22, [sp, 32]
.LVL10:
	ldp	x19, x20, [sp, 16]
.LVL11:
	ldp	x29, x30, [sp], 48
	.cfi_restore 30
	.cfi_restore 29
	.cfi_restore 21
	.cfi_restore 22
	.cfi_restore 19
	.cfi_restore 20
	.cfi_def_cfa 31, 0
	.loc 1 658 0
	br	x4
.LVL12:
	.cfi_endproc
.LFE274:
	.size	secure_otp_write, .-secure_otp_write
	.section	.text.secure_otp_read,"ax",@progbits
	.align	2
	.type	secure_otp_read, %function
secure_otp_read:
.LFB273:
	.loc 1 647 0
	.cfi_startproc
.LVL13:
	stp	x29, x30, [sp, -48]!
	.cfi_def_cfa_offset 48
	.cfi_offset 29, -48
	.cfi_offset 30, -40
	add	x29, sp, 0
	.cfi_def_cfa_register 29
	stp	x19, x20, [sp, 16]
	.cfi_offset 19, -32
	.cfi_offset 20, -24
	mov	x19, x0
	stp	x21, x22, [sp, 32]
	.cfi_offset 21, -16
	.cfi_offset 22, -8
	.loc 1 647 0
	mov	w20, w1
	mov	x21, x2
	mov	w22, w3
	.loc 1 648 0
	bl	dev_get_driver_data
.LVL14:
	.loc 1 650 0
	ldr	x4, [x0]
	mov	w3, w22
	mov	x2, x21
	mov	w1, w20
	mov	x0, x19
.LVL15:
	.loc 1 651 0
	ldp	x21, x22, [sp, 32]
.LVL16:
	ldp	x19, x20, [sp, 16]
.LVL17:
	ldp	x29, x30, [sp], 48
	.cfi_restore 30
	.cfi_restore 29
	.cfi_restore 21
	.cfi_restore 22
	.cfi_restore 19
	.cfi_restore 20
	.cfi_def_cfa 31, 0
	.loc 1 650 0
	br	x4
.LVL18:
	.cfi_endproc
.LFE273:
	.size	secure_otp_read, .-secure_otp_read
	.section	.text.rockchip_secure_otp_ofdata_to_platdata,"ax",@progbits
	.align	2
	.type	rockchip_secure_otp_ofdata_to_platdata, %function
rockchip_secure_otp_ofdata_to_platdata:
.LFB277:
	.loc 1 692 0
	.cfi_startproc
.LVL19:
	stp	x29, x30, [sp, -32]!
	.cfi_def_cfa_offset 32
	.cfi_offset 29, -32
	.cfi_offset 30, -24
	add	x29, sp, 0
	.cfi_def_cfa_register 29
	stp	x19, x20, [sp, 16]
	.cfi_offset 19, -16
	.cfi_offset 20, -8
	.loc 1 692 0
	mov	x20, x0
	.loc 1 693 0
	bl	dev_get_platdata
.LVL20:
	mov	x19, x0
.LVL21:
	.loc 1 695 0
	mov	x0, x20
.LVL22:
	bl	dev_read_addr_ptr
.LVL23:
	.loc 1 696 0
	mov	w2, 0
	adrp	x1, .LC0
	.loc 1 695 0
	str	x0, [x19]
	.loc 1 696 0
	add	x1, x1, :lo12:.LC0
	mov	x0, x20
	bl	dev_read_u32_default
.LVL24:
	.loc 1 697 0
	uxtw	x0, w0
	str	x0, [x19, 8]
	.loc 1 698 0
	mov	w2, 0
	mov	x0, x20
	adrp	x1, .LC1
	add	x1, x1, :lo12:.LC1
	bl	dev_read_u32_default
.LVL25:
	.loc 1 699 0
	uxtw	x0, w0
	str	x0, [x19, 16]
	.loc 1 700 0
	mov	w2, 0
	mov	x0, x20
	adrp	x1, .LC2
	add	x1, x1, :lo12:.LC2
	bl	dev_read_u32_default
.LVL26:
	.loc 1 701 0
	uxtw	x0, w0
	str	x0, [x19, 24]
	.loc 1 704 0
	mov	w0, 0
	ldp	x19, x20, [sp, 16]
.LVL27:
	ldp	x29, x30, [sp], 32
	.cfi_restore 30
	.cfi_restore 29
	.cfi_restore 19
	.cfi_restore 20
	.cfi_def_cfa 31, 0
	ret
	.cfi_endproc
.LFE277:
	.size	rockchip_secure_otp_ofdata_to_platdata, .-rockchip_secure_otp_ofdata_to_platdata
	.section	.text.rk3568_spl_rockchip_otp_start,"ax",@progbits
	.align	2
	.type	rk3568_spl_rockchip_otp_start, %function
rk3568_spl_rockchip_otp_start:
.LFB262:
	.loc 1 45 0
	.cfi_startproc
.LVL28:
	stp	x29, x30, [sp, -32]!
	.cfi_def_cfa_offset 32
	.cfi_offset 29, -32
	.cfi_offset 30, -24
	add	x29, sp, 0
	.cfi_def_cfa_register 29
	str	x19, [sp, 16]
	.cfi_offset 19, -16
	.loc 1 45 0
	mov	x19, x1
.LBB25:
	.loc 1 47 0
#APP
// 47 "drivers/misc/rk3568-secure-otp.c" 1
	dmb sy
// 0 "" 2
#NO_APP
	mov	w1, 131074
.LVL29:
	str	w1, [x0]
.LVL30:
.LBE25:
.LBB26:
	.loc 1 48 0
#APP
// 48 "drivers/misc/rk3568-secure-otp.c" 1
	dmb sy
// 0 "" 2
#NO_APP
	mov	w0, -2147450880
.LVL31:
	str	w0, [x19]
.LBE26:
	.loc 1 49 0
	mov	x0, 2
	bl	udelay
.LVL32:
.LBB27:
	.loc 1 50 0
#APP
// 50 "drivers/misc/rk3568-secure-otp.c" 1
	dmb sy
// 0 "" 2
#NO_APP
	mov	w0, -2147483648
	str	w0, [x19]
.LBE27:
	.loc 1 52 0
	ldr	x19, [sp, 16]
.LVL33:
	.loc 1 51 0
	mov	x0, 1
	.loc 1 52 0
	ldp	x29, x30, [sp], 32
	.cfi_restore 30
	.cfi_restore 29
	.cfi_restore 19
	.cfi_def_cfa 31, 0
	.loc 1 51 0
	b	udelay
.LVL34:
	.cfi_endproc
.LFE262:
	.size	rk3568_spl_rockchip_otp_start, .-rk3568_spl_rockchip_otp_start
	.section	.text.rockchip_secure_otp_check_flag.isra.0,"ax",@progbits
	.align	2
	.type	rockchip_secure_otp_check_flag.isra.0, %function
rockchip_secure_otp_check_flag.isra.0:
.LFB278:
	.loc 1 104 0
	.cfi_startproc
	stp	x29, x30, [sp, -32]!
	.cfi_def_cfa_offset 32
	.cfi_offset 29, -32
	.cfi_offset 30, -24
	add	x29, sp, 0
	.cfi_def_cfa_register 29
	stp	x19, x20, [sp, 16]
	.cfi_offset 19, -16
	.cfi_offset 20, -8
	.loc 1 104 0
	mov	w19, 34465
	mov	x20, x0
	movk	w19, 0x1, lsl 16
.L17:
.LVL35:
.LBB28:
	.loc 1 110 0
	ldr	x0, [x20]
	ldr	w1, [x0, 44]
.LVL36:
#APP
// 110 "drivers/misc/rk3568-secure-otp.c" 1
	dmb sy
// 0 "" 2
.LVL37:
#NO_APP
.LBE28:
	.loc 1 111 0
	and	w0, w1, 16
	tbz	x1, 4, .L15
	.loc 1 114 0
	subs	w19, w19, #1
.LVL38:
	beq	.L18
.LVL39:
	.loc 1 120 0
	mov	x0, 1
	bl	udelay
.LVL40:
	b	.L17
.LVL41:
.L18:
	.loc 1 115 0
	mov	w0, -1
.LVL42:
.L15:
	.loc 1 124 0
	ldp	x19, x20, [sp, 16]
	ldp	x29, x30, [sp], 32
	.cfi_restore 30
	.cfi_restore 29
	.cfi_restore 19
	.cfi_restore 20
	.cfi_def_cfa 31, 0
	ret
	.cfi_endproc
.LFE278:
	.size	rockchip_secure_otp_check_flag.isra.0, .-rockchip_secure_otp_check_flag.isra.0
	.section	.text.rockchip_secure_otp_wait_flag.isra.1,"ax",@progbits
	.align	2
	.type	rockchip_secure_otp_wait_flag.isra.1, %function
rockchip_secure_otp_wait_flag.isra.1:
.LFB279:
	.loc 1 82 0
	.cfi_startproc
	stp	x29, x30, [sp, -32]!
	.cfi_def_cfa_offset 32
	.cfi_offset 29, -32
	.cfi_offset 30, -24
	add	x29, sp, 0
	.cfi_def_cfa_register 29
	stp	x19, x20, [sp, 16]
	.cfi_offset 19, -16
	.cfi_offset 20, -8
	.loc 1 82 0
	mov	x20, x0
	mov	w19, 20001
.L25:
.LVL43:
.LBB29:
	.loc 1 88 0
	ldr	x0, [x20]
	ldr	w0, [x0, 44]
.LVL44:
#APP
// 88 "drivers/misc/rk3568-secure-otp.c" 1
	dmb sy
// 0 "" 2
.LVL45:
#NO_APP
.LBE29:
	.loc 1 89 0
	tbnz	x0, 4, .L26
	.loc 1 92 0
	subs	w19, w19, #1
.LVL46:
	beq	.L27
	.loc 1 97 0
	mov	x0, 1
.LVL47:
	bl	udelay
.LVL48:
	b	.L25
.LVL49:
.L26:
	.loc 1 85 0
	mov	w0, 0
.LVL50:
.L23:
	.loc 1 102 0
	ldp	x19, x20, [sp, 16]
	ldp	x29, x30, [sp], 32
	.cfi_remember_state
	.cfi_restore 30
	.cfi_restore 29
	.cfi_restore 19
	.cfi_restore 20
	.cfi_def_cfa 31, 0
	ret
.LVL51:
.L27:
	.cfi_restore_state
	.loc 1 93 0
	mov	w0, -1
.LVL52:
	b	.L23
	.cfi_endproc
.LFE279:
	.size	rockchip_secure_otp_wait_flag.isra.1, .-rockchip_secure_otp_wait_flag.isra.1
	.section	.text.rockchip_secure_otp_wait_status.isra.2,"ax",@progbits
	.align	2
	.type	rockchip_secure_otp_wait_status.isra.2, %function
rockchip_secure_otp_wait_status.isra.2:
.LFB280:
	.loc 1 62 0
	.cfi_startproc
.LVL53:
	stp	x29, x30, [sp, -48]!
	.cfi_def_cfa_offset 48
	.cfi_offset 29, -48
	.cfi_offset 30, -40
	add	x29, sp, 0
	.cfi_def_cfa_register 29
	stp	x19, x20, [sp, 16]
	.cfi_offset 19, -32
	.cfi_offset 20, -24
	mov	w19, w1
	str	x21, [sp, 32]
	.cfi_offset 21, -16
	.loc 1 62 0
	mov	x21, x0
	mov	w20, 10000
.LVL54:
.L30:
.LBB36:
	.loc 1 67 0
	ldr	x0, [x21]
	ldr	w0, [x0, 772]
.LVL55:
#APP
// 67 "drivers/misc/rk3568-secure-otp.c" 1
	dmb sy
// 0 "" 2
#NO_APP
.LBE36:
	tst	w0, w19
	beq	.L32
.LBB37:
	.loc 1 77 0
	orr	w19, w19, -65536
.LVL56:
#APP
// 77 "drivers/misc/rk3568-secure-otp.c" 1
	dmb sy
// 0 "" 2
#NO_APP
	ldr	x0, [x21]
.LVL57:
	str	w19, [x0, 772]
.LBE37:
	.loc 1 79 0
	mov	w0, 0
	b	.L29
.LVL58:
.L32:
	.loc 1 68 0
	mov	x0, 1
.LVL59:
	bl	udelay
.LVL60:
	.loc 1 70 0
	subs	w20, w20, #1
.LVL61:
	bne	.L30
.LVL62:
.LBB38:
.LBB39:
	.loc 1 71 0
	adrp	x1, .LANCHOR0
	adrp	x0, .LC3
	add	x1, x1, :lo12:.LANCHOR0
	add	x0, x0, :lo12:.LC3
	bl	printf
.LVL63:
	mov	w0, -110
.LVL64:
.L29:
.LBE39:
.LBE38:
	.loc 1 80 0
	ldp	x19, x20, [sp, 16]
.LVL65:
	ldr	x21, [sp, 32]
	ldp	x29, x30, [sp], 48
	.cfi_restore 30
	.cfi_restore 29
	.cfi_restore 21
	.cfi_restore 19
	.cfi_restore 20
	.cfi_def_cfa 31, 0
	ret
	.cfi_endproc
.LFE280:
	.size	rockchip_secure_otp_wait_status.isra.2, .-rockchip_secure_otp_wait_status.isra.2
	.section	.text.rk3568_secure_otp_write_2_bytes_noecc,"ax",@progbits
	.align	2
	.type	rk3568_secure_otp_write_2_bytes_noecc, %function
rk3568_secure_otp_write_2_bytes_noecc:
.LFB269:
	.loc 1 213 0
	.cfi_startproc
.LVL66:
	stp	x29, x30, [sp, -96]!
	.cfi_def_cfa_offset 96
	.cfi_offset 29, -96
	.cfi_offset 30, -88
	add	x29, sp, 0
	.cfi_def_cfa_register 29
	stp	x21, x22, [sp, 32]
	.cfi_offset 21, -64
	.cfi_offset 22, -56
	mov	w22, w2
	stp	x19, x20, [sp, 16]
	and	w21, w3, 65535
	stp	x27, x28, [sp, 80]
	.cfi_offset 19, -80
	.cfi_offset 20, -72
	.cfi_offset 27, -16
	.cfi_offset 28, -8
	.loc 1 217 0
	asr	w20, w22, 1
	.loc 1 213 0
	stp	x23, x24, [sp, 48]
	mov	x28, x1
	stp	x25, x26, [sp, 64]
	.cfi_offset 23, -48
	.cfi_offset 24, -40
	.cfi_offset 25, -32
	.cfi_offset 26, -24
	.loc 1 215 0
	bl	dev_get_driver_data
.LVL67:
	.loc 1 218 0
	cmp	w20, 448
	bgt	.L44
	.loc 1 222 0
	sub	w1, w20, #64
	mov	x25, x0
	cmp	w1, 51
	bhi	.L45
	mov	x0, -255
.LVL68:
	movk	x0, 0x7f, lsl 32
	movk	x0, 0xf, lsl 48
	lsr	x0, x0, x1
	mvn	x0, x0
.L37:
	tbz	x0, 0, .L38
	.loc 1 222 0 is_stmt 0 discriminator 1
	sub	w0, w20, #229
	cmp	w0, 218
	bls	.L38
	.loc 1 225 0 is_stmt 1
	adrp	x0, .LC4
	mov	w1, w20
	add	x0, x0, :lo12:.LC4
	bl	printf
.LVL69:
.L44:
	.loc 1 219 0
	mov	w0, -1
.LVL70:
.L35:
	.loc 1 419 0
	ldp	x19, x20, [sp, 16]
.LVL71:
	ldp	x21, x22, [sp, 32]
	ldp	x23, x24, [sp, 48]
	ldp	x25, x26, [sp, 64]
	ldp	x27, x28, [sp, 80]
.LVL72:
	ldp	x29, x30, [sp], 96
	.cfi_remember_state
	.cfi_restore 30
	.cfi_restore 29
	.cfi_restore 27
	.cfi_restore 28
	.cfi_restore 25
	.cfi_restore 26
	.cfi_restore 23
	.cfi_restore 24
	.cfi_restore 21
	.cfi_restore 22
	.cfi_restore 19
	.cfi_restore 20
	.cfi_def_cfa 31, 0
	ret
.LVL73:
.L45:
	.cfi_restore_state
	.loc 1 222 0
	mov	x0, 1
.LVL74:
	b	.L37
.L38:
	.loc 1 229 0
	cbz	w21, .L46
	.loc 1 232 0
	ldr	x5, [x25, 16]
	mov	w3, w20
	ldp	x0, x2, [x28, 8]
	ldr	x1, [x28, 24]
	blr	x5
.LVL75:
.LBB40:
	.loc 1 235 0
#APP
// 235 "drivers/misc/rk3568-secure-otp.c" 1
	dmb sy
// 0 "" 2
#NO_APP
	ldr	x0, [x28]
	mov	w1, 65536
	str	w1, [x0, 256]
.LVL76:
.LBE40:
.LBB41:
	.loc 1 236 0
#APP
// 236 "drivers/misc/rk3568-secure-otp.c" 1
	dmb sy
// 0 "" 2
#NO_APP
	ldr	x0, [x28]
	mov	w1, 262148
	str	w1, [x0, 32]
.LVL77:
.LBE41:
.LBB42:
	.loc 1 237 0
#APP
// 237 "drivers/misc/rk3568-secure-otp.c" 1
	dmb sy
// 0 "" 2
#NO_APP
	ldr	x0, [x28]
	mov	w1, -65536
	str	w1, [x0, 40]
.LVL78:
.LBE42:
.LBB43:
	.loc 1 238 0
#APP
// 238 "drivers/misc/rk3568-secure-otp.c" 1
	dmb sy
// 0 "" 2
#NO_APP
	ldr	x0, [x28]
	mov	w1, 512
	movk	w1, 0xff00, lsl 16
	str	w1, [x0, 32]
.LVL79:
.LBE43:
.LBB44:
	.loc 1 239 0
#APP
// 239 "drivers/misc/rk3568-secure-otp.c" 1
	dmb sy
// 0 "" 2
#NO_APP
	ldr	x0, [x28]
	mov	w24, -65534
	str	w24, [x0, 36]
.LVL80:
.LBE44:
.LBB45:
	.loc 1 240 0
#APP
// 240 "drivers/misc/rk3568-secure-otp.c" 1
	dmb sy
// 0 "" 2
#NO_APP
	ldr	x0, [x28]
	mov	w1, 252
	str	w1, [x0, 4096]
.LVL81:
.LBE45:
.LBB46:
	.loc 1 241 0
#APP
// 241 "drivers/misc/rk3568-secure-otp.c" 1
	dmb sy
// 0 "" 2
#NO_APP
	ldr	x0, [x28]
	str	wzr, [x0, 4100]
.LVL82:
.LBE46:
.LBB47:
	.loc 1 242 0
#APP
// 242 "drivers/misc/rk3568-secure-otp.c" 1
	dmb sy
// 0 "" 2
#NO_APP
	ldr	x0, [x28]
	str	wzr, [x0, 4104]
.LVL83:
.LBE47:
.LBB48:
	.loc 1 243 0
#APP
// 243 "drivers/misc/rk3568-secure-otp.c" 1
	dmb sy
// 0 "" 2
#NO_APP
	ldr	x0, [x28]
	mov	w19, 65537
.LBE48:
	.loc 1 244 0
	mov	w1, 2
.LBB49:
	.loc 1 243 0
	str	w19, [x0, 32]
.LBE49:
	.loc 1 244 0
	mov	x0, x28
	bl	rockchip_secure_otp_wait_status.isra.2
.LVL84:
	.loc 1 245 0
	tbz	w0, #31, .L39
.L41:
	.loc 1 246 0
	adrp	x1, .LANCHOR1
	adrp	x0, .LC5
.LVL85:
	add	x1, x1, :lo12:.LANCHOR1
	add	x0, x0, :lo12:.LC5
.L51:
	.loc 1 379 0
	bl	printf
.LVL86:
.L40:
	.loc 1 415 0
	ldr	x5, [x25, 24]
	mov	w3, w20
	ldp	x0, x2, [x28, 8]
	ldr	x1, [x28, 24]
	blr	x5
.LVL87:
.L46:
	.loc 1 230 0
	mov	w0, 0
	b	.L35
.LVL88:
.L39:
.LBB50:
	.loc 1 250 0
#APP
// 250 "drivers/misc/rk3568-secure-otp.c" 1
	dmb sy
// 0 "" 2
#NO_APP
	ldr	x0, [x28]
.LVL89:
	mov	w1, -65522
	str	w1, [x0, 36]
.LVL90:
.LBE50:
.LBB51:
	.loc 1 251 0
#APP
// 251 "drivers/misc/rk3568-secure-otp.c" 1
	dmb sy
// 0 "" 2
#NO_APP
	ldr	x0, [x28]
	mov	w27, 240
	str	w27, [x0, 4096]
.LVL91:
.LBE51:
.LBB52:
	.loc 1 252 0
#APP
// 252 "drivers/misc/rk3568-secure-otp.c" 1
	dmb sy
// 0 "" 2
#NO_APP
	ldr	x0, [x28]
	mov	w23, 1
	str	w23, [x0, 4100]
.LVL92:
.LBE52:
.LBB53:
	.loc 1 253 0
#APP
// 253 "drivers/misc/rk3568-secure-otp.c" 1
	dmb sy
// 0 "" 2
#NO_APP
	ldr	x0, [x28]
	mov	w26, 122
	str	w26, [x0, 4104]
.LVL93:
.LBE53:
.LBB54:
	.loc 1 254 0
#APP
// 254 "drivers/misc/rk3568-secure-otp.c" 1
	dmb sy
// 0 "" 2
#NO_APP
	ldr	x0, [x28]
	mov	w1, 37
	str	w1, [x0, 4108]
.LVL94:
.LBE54:
.LBB55:
	.loc 1 255 0
#APP
// 255 "drivers/misc/rk3568-secure-otp.c" 1
	dmb sy
// 0 "" 2
#NO_APP
	ldr	x0, [x28]
	str	wzr, [x0, 4112]
.LVL95:
.LBE55:
.LBB56:
	.loc 1 256 0
#APP
// 256 "drivers/misc/rk3568-secure-otp.c" 1
	dmb sy
// 0 "" 2
#NO_APP
	ldr	x0, [x28]
	str	wzr, [x0, 4116]
.LVL96:
.LBE56:
.LBB57:
	.loc 1 257 0
#APP
// 257 "drivers/misc/rk3568-secure-otp.c" 1
	dmb sy
// 0 "" 2
#NO_APP
	ldr	x0, [x28]
	str	wzr, [x0, 4120]
.LVL97:
.LBE57:
.LBB58:
	.loc 1 258 0
#APP
// 258 "drivers/misc/rk3568-secure-otp.c" 1
	dmb sy
// 0 "" 2
#NO_APP
	ldr	x0, [x28]
	mov	w1, 31
	str	w1, [x0, 4124]
.LVL98:
.LBE58:
.LBB59:
	.loc 1 259 0
#APP
// 259 "drivers/misc/rk3568-secure-otp.c" 1
	dmb sy
// 0 "" 2
#NO_APP
	ldr	x0, [x28]
	mov	w1, 11
	str	w1, [x0, 4128]
.LVL99:
.LBE59:
.LBB60:
	.loc 1 260 0
#APP
// 260 "drivers/misc/rk3568-secure-otp.c" 1
	dmb sy
// 0 "" 2
#NO_APP
	ldr	x0, [x28]
	mov	w1, 8
	str	w1, [x0, 4132]
.LVL100:
.LBE60:
.LBB61:
	.loc 1 261 0
#APP
// 261 "drivers/misc/rk3568-secure-otp.c" 1
	dmb sy
// 0 "" 2
#NO_APP
	ldr	x0, [x28]
	str	wzr, [x0, 4136]
.LVL101:
.LBE61:
.LBB62:
	.loc 1 262 0
#APP
// 262 "drivers/misc/rk3568-secure-otp.c" 1
	dmb sy
// 0 "" 2
#NO_APP
	ldr	x0, [x28]
	str	wzr, [x0, 4140]
.LVL102:
.LBE62:
.LBB63:
	.loc 1 263 0
#APP
// 263 "drivers/misc/rk3568-secure-otp.c" 1
	dmb sy
// 0 "" 2
#NO_APP
	ldr	x0, [x28]
	str	wzr, [x0, 4144]
.LBE63:
.LBB64:
	.loc 1 264 0
	and	w0, w20, 255
#APP
// 264 "drivers/misc/rk3568-secure-otp.c" 1
	dmb sy
// 0 "" 2
#NO_APP
	ldr	x1, [x28]
.LBE64:
.LBB65:
	.loc 1 265 0
	ubfx	x22, x22, 9, 8
.LVL103:
.LBE65:
.LBB66:
	.loc 1 264 0
	str	w0, [x1, 4148]
.LBE66:
.LBB67:
	.loc 1 265 0
#APP
// 265 "drivers/misc/rk3568-secure-otp.c" 1
	dmb sy
// 0 "" 2
#NO_APP
	ldr	x0, [x28]
	str	w22, [x0, 4152]
.LVL104:
.LBE67:
.LBB68:
	.loc 1 266 0
#APP
// 266 "drivers/misc/rk3568-secure-otp.c" 1
	dmb sy
// 0 "" 2
#NO_APP
	ldr	x0, [x28]
.LBE68:
	.loc 1 267 0
	mov	w1, 2
.LBB69:
	.loc 1 266 0
	str	w19, [x0, 32]
.LBE69:
	.loc 1 267 0
	mov	x0, x28
	bl	rockchip_secure_otp_wait_status.isra.2
.LVL105:
	.loc 1 268 0
	tbnz	w0, #31, .L41
.LVL106:
.LBB70:
	.loc 1 273 0
#APP
// 273 "drivers/misc/rk3568-secure-otp.c" 1
	dmb sy
// 0 "" 2
#NO_APP
	ldr	x0, [x28]
.LVL107:
	mov	w22, -65535
.LVL108:
	str	w22, [x0, 36]
.LVL109:
.LBE70:
.LBB71:
	.loc 1 274 0
#APP
// 274 "drivers/misc/rk3568-secure-otp.c" 1
	dmb sy
// 0 "" 2
#NO_APP
	ldr	x0, [x28]
	mov	w1, 250
	str	w1, [x0, 4096]
.LVL110:
.LBE71:
.LBB72:
	.loc 1 275 0
#APP
// 275 "drivers/misc/rk3568-secure-otp.c" 1
	dmb sy
// 0 "" 2
#NO_APP
	ldr	x0, [x28]
	mov	w1, 9
	str	w1, [x0, 4100]
.LVL111:
.LBE72:
.LBB73:
	.loc 1 276 0
#APP
// 276 "drivers/misc/rk3568-secure-otp.c" 1
	dmb sy
// 0 "" 2
#NO_APP
	ldr	x0, [x28]
.LBE73:
	.loc 1 277 0
	mov	w1, 2
.LBB74:
	.loc 1 276 0
	str	w19, [x0, 32]
.LBE74:
	.loc 1 277 0
	mov	x0, x28
	bl	rockchip_secure_otp_wait_status.isra.2
.LVL112:
	.loc 1 278 0
	tbnz	w0, #31, .L41
.LVL113:
.LBB75:
	.loc 1 283 0
#APP
// 283 "drivers/misc/rk3568-secure-otp.c" 1
	dmb sy
// 0 "" 2
#NO_APP
	ldr	x0, [x28]
.LVL114:
	mov	w1, 14848
	movk	w1, 0xff00, lsl 16
	str	w1, [x0, 32]
.LVL115:
.LBE75:
.LBB76:
	.loc 1 284 0
#APP
// 284 "drivers/misc/rk3568-secure-otp.c" 1
	dmb sy
// 0 "" 2
#NO_APP
	ldr	x0, [x28]
	mov	w1, -65522
	str	w1, [x0, 36]
.LVL116:
.LBE76:
.LBB77:
	.loc 1 285 0
#APP
// 285 "drivers/misc/rk3568-secure-otp.c" 1
	dmb sy
// 0 "" 2
#NO_APP
	ldr	x0, [x28]
	str	w27, [x0, 4096]
.LVL117:
.LBE77:
.LBB78:
	.loc 1 286 0
#APP
// 286 "drivers/misc/rk3568-secure-otp.c" 1
	dmb sy
// 0 "" 2
#NO_APP
	ldr	x0, [x28]
	str	w23, [x0, 4100]
.LVL118:
.LBE78:
.LBB79:
	.loc 1 287 0
#APP
// 287 "drivers/misc/rk3568-secure-otp.c" 1
	dmb sy
// 0 "" 2
#NO_APP
	ldr	x0, [x28]
	str	w26, [x0, 4104]
.LVL119:
.LBE79:
.LBB80:
	.loc 1 288 0
#APP
// 288 "drivers/misc/rk3568-secure-otp.c" 1
	dmb sy
// 0 "" 2
#NO_APP
	ldr	x0, [x28]
	mov	w1, 21
	str	w1, [x0, 4108]
.LVL120:
.LBE80:
.LBB81:
	.loc 1 289 0
#APP
// 289 "drivers/misc/rk3568-secure-otp.c" 1
	dmb sy
// 0 "" 2
#NO_APP
	ldr	x0, [x28]
	mov	w1, 220
	str	w1, [x0, 4112]
.LVL121:
.LBE81:
.LBB82:
	.loc 1 290 0
#APP
// 290 "drivers/misc/rk3568-secure-otp.c" 1
	dmb sy
// 0 "" 2
#NO_APP
	ldr	x0, [x28]
	mov	w1, 146
	str	w1, [x0, 4116]
.LVL122:
.LBE82:
.LBB83:
	.loc 1 291 0
#APP
// 291 "drivers/misc/rk3568-secure-otp.c" 1
	dmb sy
// 0 "" 2
#NO_APP
	ldr	x0, [x28]
	mov	w1, 121
	str	w1, [x0, 4120]
.LVL123:
.LBE83:
.LBB84:
	.loc 1 292 0
#APP
// 292 "drivers/misc/rk3568-secure-otp.c" 1
	dmb sy
// 0 "" 2
#NO_APP
	ldr	x0, [x28]
	mov	w1, 129
	str	w1, [x0, 4124]
.LVL124:
.LBE84:
.LBB85:
	.loc 1 293 0
#APP
// 293 "drivers/misc/rk3568-secure-otp.c" 1
	dmb sy
// 0 "" 2
#NO_APP
	ldr	x0, [x28]
	mov	w1, 126
	str	w1, [x0, 4128]
.LVL125:
.LBE85:
.LBB86:
	.loc 1 294 0
#APP
// 294 "drivers/misc/rk3568-secure-otp.c" 1
	dmb sy
// 0 "" 2
#NO_APP
	ldr	x0, [x28]
	mov	w1, 33
	str	w1, [x0, 4132]
.LVL126:
.LBE86:
.LBB87:
	.loc 1 295 0
#APP
// 295 "drivers/misc/rk3568-secure-otp.c" 1
	dmb sy
// 0 "" 2
#NO_APP
	ldr	x0, [x28]
	mov	w1, 17
	str	w1, [x0, 4136]
.LVL127:
.LBE87:
.LBB88:
	.loc 1 296 0
#APP
// 296 "drivers/misc/rk3568-secure-otp.c" 1
	dmb sy
// 0 "" 2
#NO_APP
	ldr	x0, [x28]
	mov	w1, 157
	str	w1, [x0, 4140]
.LVL128:
.LBE88:
.LBB89:
	.loc 1 297 0
#APP
// 297 "drivers/misc/rk3568-secure-otp.c" 1
	dmb sy
// 0 "" 2
#NO_APP
	ldr	x0, [x28]
	mov	w26, 2
	str	w26, [x0, 4144]
.LVL129:
.LBE89:
.LBB90:
	.loc 1 298 0
#APP
// 298 "drivers/misc/rk3568-secure-otp.c" 1
	dmb sy
// 0 "" 2
#NO_APP
	ldr	x0, [x28]
	str	wzr, [x0, 4148]
.LVL130:
.LBE90:
.LBB91:
	.loc 1 299 0
#APP
// 299 "drivers/misc/rk3568-secure-otp.c" 1
	dmb sy
// 0 "" 2
#NO_APP
	ldr	x0, [x28]
	mov	w1, 64
	str	w1, [x0, 4152]
.LVL131:
.LBE91:
.LBB92:
	.loc 1 300 0
#APP
// 300 "drivers/misc/rk3568-secure-otp.c" 1
	dmb sy
// 0 "" 2
#NO_APP
	ldr	x0, [x28]
.LBE92:
	.loc 1 301 0
	mov	w1, w26
.LBB93:
	.loc 1 300 0
	str	w19, [x0, 32]
.LBE93:
	.loc 1 301 0
	mov	x0, x28
	bl	rockchip_secure_otp_wait_status.isra.2
.LVL132:
	.loc 1 302 0
	tbnz	w0, #31, .L41
.LVL133:
.LBB94:
	.loc 1 307 0
#APP
// 307 "drivers/misc/rk3568-secure-otp.c" 1
	dmb sy
// 0 "" 2
#NO_APP
	ldr	x0, [x28]
.LVL134:
	str	w24, [x0, 36]
.LVL135:
.LBE94:
.LBB95:
	.loc 1 308 0
#APP
// 308 "drivers/misc/rk3568-secure-otp.c" 1
	dmb sy
// 0 "" 2
#NO_APP
	ldr	x0, [x28]
	mov	w1, 252
	str	w1, [x0, 4096]
.LVL136:
.LBE95:
.LBB96:
	.loc 1 309 0
#APP
// 309 "drivers/misc/rk3568-secure-otp.c" 1
	dmb sy
// 0 "" 2
#NO_APP
	ldr	x0, [x28]
	mov	w27, 10
	str	w27, [x0, 4100]
.LVL137:
.LBE96:
.LBB97:
	.loc 1 310 0
#APP
// 310 "drivers/misc/rk3568-secure-otp.c" 1
	dmb sy
// 0 "" 2
#NO_APP
	ldr	x0, [x28]
	mov	w1, 112
	str	w1, [x0, 4104]
.LVL138:
.LBE97:
.LBB98:
	.loc 1 311 0
#APP
// 311 "drivers/misc/rk3568-secure-otp.c" 1
	dmb sy
// 0 "" 2
#NO_APP
	ldr	x0, [x28]
.LBE98:
	.loc 1 312 0
	mov	w1, w26
.LBB99:
	.loc 1 311 0
	str	w19, [x0, 32]
.LBE99:
	.loc 1 312 0
	mov	x0, x28
	bl	rockchip_secure_otp_wait_status.isra.2
.LVL139:
	.loc 1 313 0
	tbnz	w0, #31, .L41
.LVL140:
.LBB100:
	.loc 1 318 0
#APP
// 318 "drivers/misc/rk3568-secure-otp.c" 1
	dmb sy
// 0 "" 2
#NO_APP
	ldr	x0, [x28]
.LVL141:
	mov	w1, 512
	movk	w1, 0xff00, lsl 16
	str	w1, [x0, 32]
.LVL142:
.LBE100:
.LBB101:
	.loc 1 319 0
#APP
// 319 "drivers/misc/rk3568-secure-otp.c" 1
	dmb sy
// 0 "" 2
#NO_APP
	ldr	x0, [x28]
	str	w24, [x0, 36]
.LVL143:
.LBE101:
.LBB102:
	.loc 1 320 0
#APP
// 320 "drivers/misc/rk3568-secure-otp.c" 1
	dmb sy
// 0 "" 2
#NO_APP
	ldr	x0, [x28]
	mov	w1, 192
	str	w1, [x0, 4096]
.LBE102:
.LBB103:
	.loc 1 321 0
	and	w1, w21, 255
.LVL144:
#APP
// 321 "drivers/misc/rk3568-secure-otp.c" 1
	dmb sy
// 0 "" 2
#NO_APP
	ldr	x0, [x28]
.LBE103:
.LBB104:
	.loc 1 322 0
	lsr	w21, w21, 8
.LVL145:
.LBE104:
.LBB105:
	.loc 1 321 0
	str	w1, [x0, 4100]
.LBE105:
.LBB106:
	.loc 1 322 0
#APP
// 322 "drivers/misc/rk3568-secure-otp.c" 1
	dmb sy
// 0 "" 2
#NO_APP
	ldr	x0, [x28]
	str	w21, [x0, 4104]
.LVL146:
.LBE106:
.LBB107:
	.loc 1 323 0
#APP
// 323 "drivers/misc/rk3568-secure-otp.c" 1
	dmb sy
// 0 "" 2
#NO_APP
	ldr	x0, [x28]
.LBE107:
	.loc 1 324 0
	mov	w1, w26
.LVL147:
.LBB108:
	.loc 1 323 0
	str	w19, [x0, 32]
.LBE108:
	.loc 1 324 0
	mov	x0, x28
	bl	rockchip_secure_otp_wait_status.isra.2
.LVL148:
	.loc 1 325 0
	tbnz	w0, #31, .L41
.LVL149:
.LBB109:
	.loc 1 330 0
#APP
// 330 "drivers/misc/rk3568-secure-otp.c" 1
	dmb sy
// 0 "" 2
#NO_APP
	ldr	x0, [x28]
.LVL150:
	str	w22, [x0, 36]
.LVL151:
.LBE109:
.LBB110:
	.loc 1 331 0
#APP
// 331 "drivers/misc/rk3568-secure-otp.c" 1
	dmb sy
// 0 "" 2
#NO_APP
	ldr	x0, [x28]
	mov	w1, 224
	str	w1, [x0, 4096]
.LVL152:
.LBE110:
.LBB111:
	.loc 1 332 0
#APP
// 332 "drivers/misc/rk3568-secure-otp.c" 1
	dmb sy
// 0 "" 2
#NO_APP
	ldr	x0, [x28]
	str	wzr, [x0, 4100]
.LVL153:
.LBE111:
.LBB112:
	.loc 1 333 0
#APP
// 333 "drivers/misc/rk3568-secure-otp.c" 1
	dmb sy
// 0 "" 2
#NO_APP
	ldr	x0, [x28]
.LBE112:
	.loc 1 334 0
	mov	w1, w26
.LBB113:
	.loc 1 333 0
	str	w19, [x0, 32]
.LBE113:
	.loc 1 334 0
	mov	x0, x28
	bl	rockchip_secure_otp_wait_status.isra.2
.LVL154:
	.loc 1 335 0
	tbnz	w0, #31, .L41
.LVL155:
.LBB114:
	.loc 1 340 0
#APP
// 340 "drivers/misc/rk3568-secure-otp.c" 1
	dmb sy
// 0 "" 2
#NO_APP
	ldr	x0, [x28]
.LVL156:
	str	w22, [x0, 36]
.LVL157:
.LBE114:
.LBB115:
	.loc 1 341 0
#APP
// 341 "drivers/misc/rk3568-secure-otp.c" 1
	dmb sy
// 0 "" 2
#NO_APP
	ldr	x0, [x28]
	mov	w1, 14848
	movk	w1, 0xff00, lsl 16
	str	w1, [x0, 32]
.LVL158:
.LBE115:
.LBB116:
	.loc 1 342 0
#APP
// 342 "drivers/misc/rk3568-secure-otp.c" 1
	dmb sy
// 0 "" 2
#NO_APP
	ldr	x0, [x28]
	mov	w1, 255
	str	w1, [x0, 4096]
.LVL159:
.LBE116:
.LBB117:
	.loc 1 343 0
#APP
// 343 "drivers/misc/rk3568-secure-otp.c" 1
	dmb sy
// 0 "" 2
#NO_APP
	ldr	x0, [x28]
	str	w27, [x0, 4100]
.LVL160:
.LBE117:
.LBB118:
	.loc 1 344 0
#APP
// 344 "drivers/misc/rk3568-secure-otp.c" 1
	dmb sy
// 0 "" 2
#NO_APP
	ldr	x0, [x28]
.LBE118:
	.loc 1 345 0
	mov	w1, w26
.LBB119:
	.loc 1 344 0
	str	w19, [x0, 32]
.LBE119:
	.loc 1 345 0
	mov	x0, x28
	bl	rockchip_secure_otp_wait_status.isra.2
.LVL161:
	.loc 1 346 0
	tbnz	w0, #31, .L41
.LVL162:
.LBB120:
	.loc 1 351 0
#APP
// 351 "drivers/misc/rk3568-secure-otp.c" 1
	dmb sy
// 0 "" 2
#NO_APP
	ldr	x0, [x28]
.LVL163:
	str	w22, [x0, 36]
.LVL164:
.LBE120:
.LBB121:
	.loc 1 352 0
#APP
// 352 "drivers/misc/rk3568-secure-otp.c" 1
	dmb sy
// 0 "" 2
#NO_APP
	ldr	x0, [x28]
	str	w23, [x0, 4096]
.LVL165:
.LBE121:
.LBB122:
	.loc 1 353 0
#APP
// 353 "drivers/misc/rk3568-secure-otp.c" 1
	dmb sy
// 0 "" 2
#NO_APP
	ldr	x0, [x28]
	mov	w1, 191
	str	w1, [x0, 4100]
.LVL166:
.LBE122:
.LBB123:
	.loc 1 354 0
#APP
// 354 "drivers/misc/rk3568-secure-otp.c" 1
	dmb sy
// 0 "" 2
#NO_APP
	ldr	x0, [x28]
.LBE123:
	.loc 1 355 0
	mov	w1, w26
.LBB124:
	.loc 1 354 0
	str	w19, [x0, 32]
.LBE124:
	.loc 1 355 0
	mov	x0, x28
	bl	rockchip_secure_otp_wait_status.isra.2
.LVL167:
	.loc 1 356 0
	tbnz	w0, #31, .L41
	.loc 1 361 0
	mov	x0, x28
.LVL168:
	bl	rockchip_secure_otp_check_flag.isra.0
.LVL169:
	.loc 1 362 0
	tbz	w0, #31, .L42
	.loc 1 363 0
	adrp	x1, .LANCHOR1
	adrp	x0, .LC6
.LVL170:
	add	x1, x1, :lo12:.LANCHOR1
	add	x0, x0, :lo12:.LC6
	b	.L51
.LVL171:
.L42:
.LBB125:
	.loc 1 367 0
#APP
// 367 "drivers/misc/rk3568-secure-otp.c" 1
	dmb sy
// 0 "" 2
#NO_APP
	ldr	x0, [x28]
.LVL172:
	mov	w22, -65535
	str	w22, [x0, 36]
.LVL173:
.LBE125:
.LBB126:
	.loc 1 368 0
#APP
// 368 "drivers/misc/rk3568-secure-otp.c" 1
	dmb sy
// 0 "" 2
#NO_APP
	ldr	x0, [x28]
	mov	w19, 2
	str	w19, [x0, 4096]
.LVL174:
.LBE126:
.LBB127:
	.loc 1 369 0
#APP
// 369 "drivers/misc/rk3568-secure-otp.c" 1
	dmb sy
// 0 "" 2
#NO_APP
	ldr	x0, [x28]
	mov	w1, 191
	str	w1, [x0, 4100]
.LVL175:
.LBE127:
.LBB128:
	.loc 1 370 0
#APP
// 370 "drivers/misc/rk3568-secure-otp.c" 1
	dmb sy
// 0 "" 2
#NO_APP
	ldr	x0, [x28]
	mov	w21, 65537
.LVL176:
.LBE128:
	.loc 1 371 0
	mov	w1, w19
.LBB129:
	.loc 1 370 0
	str	w21, [x0, 32]
.LBE129:
	.loc 1 371 0
	mov	x0, x28
	bl	rockchip_secure_otp_wait_status.isra.2
.LVL177:
	.loc 1 372 0
	tbnz	w0, #31, .L41
	.loc 1 377 0
	mov	x0, x28
.LVL178:
	bl	rockchip_secure_otp_wait_flag.isra.1
.LVL179:
	.loc 1 378 0
	tbz	w0, #31, .L43
	.loc 1 379 0
	adrp	x1, .LANCHOR1
	adrp	x0, .LC7
.LVL180:
	add	x1, x1, :lo12:.LANCHOR1
	add	x0, x0, :lo12:.LC7
	b	.L51
.LVL181:
.L43:
.LBB130:
	.loc 1 383 0
#APP
// 383 "drivers/misc/rk3568-secure-otp.c" 1
	dmb sy
// 0 "" 2
#NO_APP
	ldr	x0, [x28]
.LVL182:
	mov	w1, -65533
	str	w1, [x0, 772]
.LVL183:
.LBE130:
.LBB131:
	.loc 1 384 0
#APP
// 384 "drivers/misc/rk3568-secure-otp.c" 1
	dmb sy
// 0 "" 2
#NO_APP
	ldr	x0, [x28]
	mov	w1, 512
	movk	w1, 0xff00, lsl 16
	str	w1, [x0, 32]
.LVL184:
.LBE131:
.LBB132:
	.loc 1 385 0
#APP
// 385 "drivers/misc/rk3568-secure-otp.c" 1
	dmb sy
// 0 "" 2
#NO_APP
	ldr	x0, [x28]
	str	w22, [x0, 36]
.LVL185:
.LBE132:
.LBB133:
	.loc 1 386 0
#APP
// 386 "drivers/misc/rk3568-secure-otp.c" 1
	dmb sy
// 0 "" 2
#NO_APP
	ldr	x0, [x28]
	str	w19, [x0, 4096]
.LVL186:
.LBE133:
.LBB134:
	.loc 1 387 0
#APP
// 387 "drivers/misc/rk3568-secure-otp.c" 1
	dmb sy
// 0 "" 2
#NO_APP
	ldr	x0, [x28]
	mov	w1, 128
	str	w1, [x0, 4100]
.LVL187:
.LBE134:
.LBB135:
	.loc 1 388 0
#APP
// 388 "drivers/misc/rk3568-secure-otp.c" 1
	dmb sy
// 0 "" 2
#NO_APP
	ldr	x0, [x28]
.LBE135:
	.loc 1 389 0
	mov	w1, w19
.LBB136:
	.loc 1 388 0
	str	w21, [x0, 32]
.LBE136:
	.loc 1 389 0
	mov	x0, x28
	bl	rockchip_secure_otp_wait_status.isra.2
.LVL188:
	.loc 1 390 0
	tbnz	w0, #31, .L41
.LVL189:
.LBB137:
	.loc 1 395 0
#APP
// 395 "drivers/misc/rk3568-secure-otp.c" 1
	dmb sy
// 0 "" 2
#NO_APP
	ldr	x0, [x28]
.LVL190:
	str	w22, [x0, 36]
.LVL191:
.LBE137:
.LBB138:
	.loc 1 396 0
#APP
// 396 "drivers/misc/rk3568-secure-otp.c" 1
	dmb sy
// 0 "" 2
#NO_APP
	ldr	x0, [x28]
	mov	w1, 160
	str	w1, [x0, 4096]
.LVL192:
.LBE138:
.LBB139:
	.loc 1 397 0
#APP
// 397 "drivers/misc/rk3568-secure-otp.c" 1
	dmb sy
// 0 "" 2
#NO_APP
	ldr	x0, [x28]
	str	wzr, [x0, 4100]
.LVL193:
.LBE139:
.LBB140:
	.loc 1 398 0
#APP
// 398 "drivers/misc/rk3568-secure-otp.c" 1
	dmb sy
// 0 "" 2
#NO_APP
	ldr	x0, [x28]
.LBE140:
	.loc 1 399 0
	mov	w1, w19
.LBB141:
	.loc 1 398 0
	str	w21, [x0, 32]
.LBE141:
	.loc 1 399 0
	mov	x0, x28
	bl	rockchip_secure_otp_wait_status.isra.2
.LVL194:
	.loc 1 400 0
	tbnz	w0, #31, .L41
.LVL195:
.LBB142:
	.loc 1 405 0
#APP
// 405 "drivers/misc/rk3568-secure-otp.c" 1
	dmb sy
// 0 "" 2
#NO_APP
	ldr	x0, [x28]
.LVL196:
	mov	w1, 250
	str	w1, [x0, 4096]
.LVL197:
.LBE142:
.LBB143:
	.loc 1 406 0
#APP
// 406 "drivers/misc/rk3568-secure-otp.c" 1
	dmb sy
// 0 "" 2
#NO_APP
	ldr	x0, [x28]
	mov	w1, 9
	str	w1, [x0, 4100]
.LVL198:
.LBE143:
.LBB144:
	.loc 1 407 0
#APP
// 407 "drivers/misc/rk3568-secure-otp.c" 1
	dmb sy
// 0 "" 2
#NO_APP
	ldr	x0, [x28]
.LBE144:
	.loc 1 408 0
	mov	w1, w19
.LBB145:
	.loc 1 407 0
	str	w21, [x0, 32]
.LBE145:
	.loc 1 408 0
	mov	x0, x28
	bl	rockchip_secure_otp_wait_status.isra.2
.LVL199:
	.loc 1 409 0
	tbz	w0, #31, .L40
	b	.L41
	.cfi_endproc
.LFE269:
	.size	rk3568_secure_otp_write_2_bytes_noecc, .-rk3568_secure_otp_write_2_bytes_noecc
	.section	.text.rockchip_secure_otp_ecc_enable,"ax",@progbits
	.align	2
	.type	rockchip_secure_otp_ecc_enable, %function
rockchip_secure_otp_ecc_enable:
.LFB267:
	.loc 1 128 0
	.cfi_startproc
.LVL200:
	stp	x29, x30, [sp, -32]!
	.cfi_def_cfa_offset 32
	.cfi_offset 29, -32
	.cfi_offset 30, -24
	and	w1, w1, 255
	add	x29, sp, 0
	.cfi_def_cfa_register 29
	str	x19, [sp, 16]
	.cfi_offset 19, -16
.LBB160:
	.loc 1 131 0
#APP
// 131 "drivers/misc/rk3568-secure-otp.c" 1
	dmb sy
// 0 "" 2
#NO_APP
	ldr	x2, [x0]
	mov	w3, 512
	movk	w3, 0xff00, lsl 16
	str	w3, [x2, 32]
.LVL201:
.LBE160:
.LBB161:
	.loc 1 132 0
#APP
// 132 "drivers/misc/rk3568-secure-otp.c" 1
	dmb sy
// 0 "" 2
#NO_APP
	ldr	x2, [x0]
	mov	w3, -65535
	str	w3, [x2, 36]
.LVL202:
.LBE161:
.LBB162:
	.loc 1 133 0
#APP
// 133 "drivers/misc/rk3568-secure-otp.c" 1
	dmb sy
// 0 "" 2
#NO_APP
	ldr	x2, [x0]
	mov	w3, 250
	str	w3, [x2, 4096]
.LBE162:
	.loc 1 134 0
	cbz	w1, .L53
.LVL203:
.LBB163:
	.loc 1 135 0
#APP
// 135 "drivers/misc/rk3568-secure-otp.c" 1
	dmb sy
// 0 "" 2
#NO_APP
	ldr	x1, [x0]
.LVL204:
	str	wzr, [x1, 4100]
.LVL205:
.L54:
.LBE163:
.LBB164:
	.loc 1 139 0
#APP
// 139 "drivers/misc/rk3568-secure-otp.c" 1
	dmb sy
// 0 "" 2
#NO_APP
	ldr	x1, [x0]
	mov	w2, 65537
	str	w2, [x1, 32]
.LBE164:
	.loc 1 141 0
	mov	w1, 2
	bl	rockchip_secure_otp_wait_status.isra.2
.LVL206:
	mov	w19, w0
.LVL207:
	.loc 1 142 0
	tbz	w0, #31, .L52
.LVL208:
.LBB165:
.LBB166:
	.loc 1 143 0
	adrp	x1, .LANCHOR2
	adrp	x0, .LC8
.LVL209:
	add	x1, x1, :lo12:.LANCHOR2
	add	x0, x0, :lo12:.LC8
	bl	printf
.LVL210:
.L52:
.LBE166:
.LBE165:
	.loc 1 146 0
	mov	w0, w19
	ldr	x19, [sp, 16]
.LVL211:
	ldp	x29, x30, [sp], 32
	.cfi_remember_state
	.cfi_restore 30
	.cfi_restore 29
	.cfi_restore 19
	.cfi_def_cfa 31, 0
	ret
.LVL212:
.L53:
	.cfi_restore_state
.LBB167:
	.loc 1 137 0
#APP
// 137 "drivers/misc/rk3568-secure-otp.c" 1
	dmb sy
// 0 "" 2
#NO_APP
	ldr	x1, [x0]
	mov	w2, 9
	str	w2, [x1, 4100]
	b	.L54
.LBE167:
	.cfi_endproc
.LFE267:
	.size	rockchip_secure_otp_ecc_enable, .-rockchip_secure_otp_ecc_enable
	.section	.text.rk3568_secure_otp_read,"ax",@progbits
	.align	2
	.type	rk3568_secure_otp_read, %function
rk3568_secure_otp_read:
.LFB268:
	.loc 1 150 0
	.cfi_startproc
.LVL213:
	stp	x29, x30, [sp, -80]!
	.cfi_def_cfa_offset 80
	.cfi_offset 29, -80
	.cfi_offset 30, -72
	add	x29, sp, 0
	.cfi_def_cfa_register 29
	stp	x19, x20, [sp, 16]
	.cfi_offset 19, -64
	.cfi_offset 20, -56
	mov	w20, w1
	stp	x21, x22, [sp, 32]
	.cfi_offset 21, -48
	.cfi_offset 22, -40
	mov	x21, x2
	stp	x23, x24, [sp, 48]
	mov	x22, x0
	.cfi_offset 23, -32
	.cfi_offset 24, -24
	mov	w23, w3
	stp	x25, x26, [sp, 64]
	.cfi_offset 25, -16
	.cfi_offset 26, -8
	.loc 1 151 0
	bl	dev_get_platdata
.LVL214:
	mov	x19, x0
.LVL215:
	.loc 1 152 0
	mov	x0, x22
.LVL216:
	bl	dev_get_driver_data
.LVL217:
	.loc 1 158 0
	ldr	x4, [x0, 16]
	.loc 1 152 0
	mov	x24, x0
.LVL218:
	.loc 1 158 0
	ldr	x1, [x19, 24]
	.loc 1 157 0
	asr	w20, w20, 1
.LVL219:
	.loc 1 158 0
	ldp	x0, x2, [x19, 8]
.LVL220:
	mov	w3, w20
	blr	x4
.LVL221:
	.loc 1 161 0
	sub	w0, w20, #224
	cmp	w0, 7
	bhi	.L58
	.loc 1 162 0
	mov	w1, 0
.L74:
	.loc 1 164 0
	mov	x0, x19
	bl	rockchip_secure_otp_ecc_enable
.LVL222:
.LBB168:
	.loc 1 166 0
#APP
// 166 "drivers/misc/rk3568-secure-otp.c" 1
	dmb sy
// 0 "" 2
#NO_APP
	ldr	x0, [x19]
	mov	w25, 65537
.LBE168:
	.loc 1 173 0
	mov	x26, -255
	.loc 1 155 0
	mov	w22, 0
.LVL223:
	.loc 1 173 0
	movk	x26, 0x7f, lsl 32
	movk	x26, 0xf, lsl 48
.LBB169:
	.loc 1 166 0
	str	w25, [x0, 256]
.LBE169:
	.loc 1 167 0
	mov	x0, 50
	bl	udelay
.LVL224:
.L60:
	.loc 1 168 0
	cbz	w23, .L65
	.loc 1 170 0
	cmp	w20, 448
	bgt	.L69
	sub	w0, w20, #64
	.loc 1 173 0
	cmp	w0, 51
	bhi	.L62
	lsr	x0, x26, x0
	tbnz	x0, 0, .L63
.L62:
	.loc 1 173 0 is_stmt 0 discriminator 1
	sub	w0, w20, #229
	cmp	w0, 218
	bls	.L63
	.loc 1 176 0 is_stmt 1
	adrp	x0, .LC4
	mov	w1, w20
	add	x0, x0, :lo12:.LC4
	bl	printf
.LVL225:
.L69:
	.loc 1 171 0
	mov	w22, -1
.LVL226:
	b	.L57
.LVL227:
.L58:
	.loc 1 164 0
	mov	w1, 1
	b	.L74
.LVL228:
.L63:
.LBB170:
	.loc 1 180 0
	orr	w1, w20, -65536
.LVL229:
#APP
// 180 "drivers/misc/rk3568-secure-otp.c" 1
	dmb sy
// 0 "" 2
#NO_APP
	ldr	x0, [x19]
.LBE170:
	.loc 1 182 0
	add	w20, w20, 1
.LVL230:
.LBB171:
	.loc 1 180 0
	str	w1, [x0, 260]
.LBE171:
.LBB172:
	.loc 1 183 0
#APP
// 183 "drivers/misc/rk3568-secure-otp.c" 1
	dmb sy
// 0 "" 2
#NO_APP
	ldr	x0, [x19]
.LBE172:
	.loc 1 185 0
	mov	w1, 4
.LVL231:
.LBB173:
	.loc 1 183 0
	str	w25, [x0, 264]
.LVL232:
.LBE173:
	.loc 1 185 0
	mov	x0, x19
	bl	rockchip_secure_otp_wait_status.isra.2
.LVL233:
	mov	w22, w0
.LVL234:
	.loc 1 186 0
	tbz	w0, #31, .L64
	.loc 1 187 0
	adrp	x1, .LANCHOR3
	adrp	x0, .LC9
.LVL235:
	add	x1, x1, :lo12:.LANCHOR3
	add	x0, x0, :lo12:.LC9
	bl	printf
.LVL236:
.L65:
.LBB174:
	.loc 1 201 0
#APP
// 201 "drivers/misc/rk3568-secure-otp.c" 1
	dmb sy
// 0 "" 2
#NO_APP
	ldr	x0, [x19]
	mov	w1, 65536
.LBE174:
	.loc 1 203 0
	ldr	x2, [x19, 16]
	mov	w3, w20
	ldr	x4, [x24, 24]
.LBB175:
	.loc 1 201 0
	str	w1, [x0, 256]
.LBE175:
	.loc 1 203 0
	ldr	x0, [x19, 8]
	ldr	x1, [x19, 24]
	blr	x4
.LVL237:
.L57:
	.loc 1 208 0
	mov	w0, w22
	ldp	x19, x20, [sp, 16]
.LVL238:
	ldp	x21, x22, [sp, 32]
	ldp	x23, x24, [sp, 48]
.LVL239:
	ldp	x25, x26, [sp, 64]
	ldp	x29, x30, [sp], 80
	.cfi_remember_state
	.cfi_restore 30
	.cfi_restore 29
	.cfi_restore 25
	.cfi_restore 26
	.cfi_restore 23
	.cfi_restore 24
	.cfi_restore 21
	.cfi_restore 22
	.cfi_restore 19
	.cfi_restore 20
	.cfi_def_cfa 31, 0
	ret
.LVL240:
.L64:
	.cfi_restore_state
.LBB176:
	.loc 1 191 0
	ldr	x0, [x19]
.LVL241:
	ldrh	w0, [x0, 292]
	and	w0, w0, 65535
.LVL242:
#APP
// 191 "drivers/misc/rk3568-secure-otp.c" 1
	dmb sy
// 0 "" 2
.LVL243:
#NO_APP
.LBE176:
	.loc 1 193 0
	strb	w0, [x21]
	.loc 1 194 0
	cmp	w23, 1
	beq	.L65
.LVL244:
	.loc 1 195 0
	lsr	w0, w0, 8
.LVL245:
	.loc 1 196 0
	sub	w23, w23, #2
.LVL246:
	.loc 1 195 0
	strb	w0, [x21, 1]
	add	x21, x21, 2
.LVL247:
	b	.L60
	.cfi_endproc
.LFE268:
	.size	rk3568_secure_otp_read, .-rk3568_secure_otp_read
	.section	.text.rk3568_secure_otp_write,"ax",@progbits
	.align	2
	.type	rk3568_secure_otp_write, %function
rk3568_secure_otp_write:
.LFB272:
	.loc 1 595 0
	.cfi_startproc
.LVL248:
	stp	x29, x30, [sp, -144]!
	.cfi_def_cfa_offset 144
	.cfi_offset 29, -144
	.cfi_offset 30, -136
	add	x29, sp, 0
	.cfi_def_cfa_register 29
	stp	x19, x20, [sp, 16]
	.cfi_offset 19, -128
	.cfi_offset 20, -120
	mov	w20, w3
	stp	x23, x24, [sp, 48]
	.cfi_offset 23, -96
	.cfi_offset 24, -88
	mov	x24, x0
	stp	x25, x26, [sp, 64]
	.cfi_offset 25, -80
	.cfi_offset 26, -72
	mov	w25, w1
	stp	x27, x28, [sp, 80]
	stp	x21, x22, [sp, 32]
	.cfi_offset 27, -64
	.cfi_offset 28, -56
	.cfi_offset 21, -112
	.cfi_offset 22, -104
	.loc 1 595 0
	str	x2, [x29, 112]
	.loc 1 596 0
	bl	dev_get_platdata
.LVL249:
	mov	x28, x0
.LVL250:
	.loc 1 599 0
	sxtw	x0, w20
.LVL251:
	bl	malloc_simple
.LVL252:
	.loc 1 602 0
	tbz	x20, 0, .L76
	.loc 1 603 0
	adrp	x0, .LC10
.LVL253:
	add	x0, x0, :lo12:.LC10
.LVL254:
.L113:
	.loc 1 619 0
	bl	printf
.LVL255:
	b	.L85
.LVL256:
.L76:
	mov	x19, x0
	.loc 1 607 0
	cbnz	x0, .L78
.LVL257:
.L85:
.LBB244:
.LBB245:
	.loc 1 430 0
	mov	w27, -1
	b	.L75
.LVL258:
.L78:
.LBE245:
.LBE244:
	.loc 1 610 0
	sub	w0, w25, #224
.LVL259:
	cmp	w0, 7
	bls	.L79
	.loc 1 611 0
	mov	w3, w20
	mov	x2, x19
	mov	w1, w25
	mov	x0, x24
	bl	rk3568_secure_otp_read
.LVL260:
	.loc 1 612 0
	cbnz	w0, .L85
	mov	x0, 0
.LVL261:
.L82:
	.loc 1 617 0 discriminator 1
	cmp	w20, w0
	bgt	.L83
	.loc 1 635 0 discriminator 1
	mov	w0, 2
.LVL262:
.LBB250:
.LBB251:
	.loc 1 580 0 discriminator 1
	adrp	x19, .LANCHOR4
.LVL263:
	add	x19, x19, :lo12:.LANCHOR4
.LBE251:
.LBE250:
	.loc 1 635 0 discriminator 1
	mov	x23, 0
	sdiv	w0, w20, w0
	str	w0, [x29, 108]
.LVL264:
.L84:
	ldr	w0, [x29, 108]
	cmp	w0, w23
	ble	.L104
	.loc 1 636 0
	ldr	x0, [x29, 112]
	add	w20, w25, w23, lsl 1
.LBB331:
.LBB327:
	.loc 1 450 0
	asr	w21, w20, 1
.LBE327:
.LBE331:
	.loc 1 636 0
	ldrh	w26, [x0, x23, lsl 1]
.LVL265:
.LBB332:
.LBB328:
	.loc 1 448 0
	mov	x0, x24
	bl	dev_get_driver_data
.LVL266:
	str	x0, [x29, 120]
.LVL267:
	.loc 1 451 0
	cmp	w21, 448
	bgt	.L85
	.loc 1 455 0
	sub	w0, w21, #64
.LVL268:
	cmp	w0, 51
	bhi	.L90
	mov	x1, -255
	movk	x1, 0x7f, lsl 32
	movk	x1, 0xf, lsl 48
	lsr	x0, x1, x0
	tbnz	x0, 0, .L91
.L90:
	sub	w0, w21, #229
	cmp	w0, 218
	bls	.L91
	.loc 1 458 0
	mov	w1, w21
	adrp	x0, .LC4
	add	x0, x0, :lo12:.LC4
	bl	printf
.LVL269:
	b	.L85
.LVL270:
.L83:
	add	x0, x0, 1
.LVL271:
.LBE328:
.LBE332:
	.loc 1 618 0
	add	x1, x19, x0
	ldrb	w1, [x1, -1]
	cbz	w1, .L82
	.loc 1 619 0
	adrp	x0, .LC11
	add	x0, x0, :lo12:.LC11
	b	.L113
.LVL272:
.L89:
.LBB333:
.LBB246:
	.loc 1 428 0
	adds	w23, w25, w19
.LBE246:
.LBE333:
	.loc 1 630 0
	ldr	x0, [x29, 112]
.LBB334:
.LBB247:
	.loc 1 428 0
	and	w26, w23, 1
	mov	w3, 2
	csneg	w21, w26, w26, pl
	add	x2, x29, 142
	sub	w21, w23, w21
.LBE247:
.LBE334:
	.loc 1 630 0
	ldrb	w22, [x0, x19]
.LVL273:
.LBB335:
.LBB248:
	.loc 1 428 0
	mov	w1, w21
	mov	x0, x24
	bl	rk3568_secure_otp_read
.LVL274:
	.loc 1 429 0
	cbnz	w0, .L85
	ldrh	w3, [x29, 142]
	.loc 1 432 0
	cbnz	w26, .L86
.LVL275:
	.loc 1 434 0
	bic	w3, w22, w3
	mov	w2, w23
.LVL276:
.L111:
	.loc 1 437 0
	mov	x1, x28
	mov	x0, x24
.LVL277:
	add	x19, x19, 1
.LVL278:
	bl	rk3568_secure_otp_write_2_bytes_noecc
.LVL279:
	mov	w27, w0
.LVL280:
.LBE248:
.LBE335:
	.loc 1 631 0
	cbz	w0, .L88
.LVL281:
.L75:
	.loc 1 643 0
	mov	w0, w27
	ldp	x19, x20, [sp, 16]
	ldp	x21, x22, [sp, 32]
	ldp	x23, x24, [sp, 48]
.LVL282:
	ldp	x25, x26, [sp, 64]
.LVL283:
	ldp	x27, x28, [sp, 80]
.LVL284:
	ldp	x29, x30, [sp], 144
	.cfi_remember_state
	.cfi_restore 30
	.cfi_restore 29
	.cfi_restore 27
	.cfi_restore 28
	.cfi_restore 25
	.cfi_restore 26
	.cfi_restore 23
	.cfi_restore 24
	.cfi_restore 21
	.cfi_restore 22
	.cfi_restore 19
	.cfi_restore 20
	.cfi_def_cfa 31, 0
.LVL285:
	ret
.LVL286:
.L86:
	.cfi_restore_state
.LBB336:
.LBB249:
	.loc 1 436 0
	lsl	w22, w22, 8
.LVL287:
	.loc 1 437 0
	mov	w2, w21
	bic	w3, w22, w3
	b	.L111
.LVL288:
.L79:
.LBE249:
.LBE336:
	mov	x19, 0
.LVL289:
.L88:
	.loc 1 629 0 discriminator 1
	cmp	w20, w19
	bgt	.L89
.LVL290:
.L104:
	.loc 1 621 0
	mov	w27, 0
	b	.L75
.LVL291:
.L91:
.LBB337:
.LBB329:
	.loc 1 462 0
	cbnz	w26, .L92
.LVL292:
.L102:
	add	x23, x23, 1
.LVL293:
	b	.L84
.LVL294:
.L92:
	.loc 1 465 0
	ldr	x0, [x29, 120]
	mov	w3, w21
	ldp	x2, x1, [x28, 16]
	ldr	x5, [x0, 16]
	ldr	x0, [x28, 8]
	blr	x5
.LVL295:
.LBB252:
	.loc 1 468 0
#APP
// 468 "drivers/misc/rk3568-secure-otp.c" 1
	dmb sy
// 0 "" 2
#NO_APP
	ldr	x0, [x28]
	mov	w1, 65536
	str	w1, [x0, 256]
.LVL296:
.LBE252:
.LBB253:
	.loc 1 469 0
#APP
// 469 "drivers/misc/rk3568-secure-otp.c" 1
	dmb sy
// 0 "" 2
#NO_APP
	ldr	x0, [x28]
	mov	w1, 262148
	str	w1, [x0, 32]
.LVL297:
.LBE253:
.LBB254:
	.loc 1 470 0
#APP
// 470 "drivers/misc/rk3568-secure-otp.c" 1
	dmb sy
// 0 "" 2
#NO_APP
	ldr	x0, [x28]
	mov	w1, -65536
	str	w1, [x0, 40]
.LVL298:
.LBE254:
.LBB255:
	.loc 1 471 0
#APP
// 471 "drivers/misc/rk3568-secure-otp.c" 1
	dmb sy
// 0 "" 2
#NO_APP
	ldr	x0, [x28]
	mov	w1, 512
	movk	w1, 0xff00, lsl 16
	str	w1, [x0, 32]
.LVL299:
.LBE255:
.LBB256:
	.loc 1 472 0
#APP
// 472 "drivers/misc/rk3568-secure-otp.c" 1
	dmb sy
// 0 "" 2
#NO_APP
	ldr	x0, [x28]
	mov	w1, -65522
	str	w1, [x0, 36]
.LVL300:
.LBE256:
.LBB257:
	.loc 1 473 0
#APP
// 473 "drivers/misc/rk3568-secure-otp.c" 1
	dmb sy
// 0 "" 2
#NO_APP
	ldr	x0, [x28]
	mov	w3, 240
	str	w3, [x29, 100]
.LVL301:
	str	w3, [x0, 4096]
.LBE257:
.LBB258:
	.loc 1 474 0
#APP
// 474 "drivers/misc/rk3568-secure-otp.c" 1
	dmb sy
// 0 "" 2
#NO_APP
	ldr	x0, [x28]
	mov	w1, 1
	str	w1, [x0, 4100]
.LVL302:
.LBE258:
.LBB259:
	.loc 1 475 0
#APP
// 475 "drivers/misc/rk3568-secure-otp.c" 1
	dmb sy
// 0 "" 2
#NO_APP
	ldr	x0, [x28]
	mov	w2, 122
	str	w2, [x29, 104]
.LVL303:
	str	w2, [x0, 4104]
.LBE259:
.LBB260:
	.loc 1 476 0
#APP
// 476 "drivers/misc/rk3568-secure-otp.c" 1
	dmb sy
// 0 "" 2
#NO_APP
	ldr	x0, [x28]
	mov	w1, 37
	str	w1, [x0, 4108]
.LVL304:
.LBE260:
.LBB261:
	.loc 1 477 0
#APP
// 477 "drivers/misc/rk3568-secure-otp.c" 1
	dmb sy
// 0 "" 2
#NO_APP
	ldr	x0, [x28]
	str	wzr, [x0, 4112]
.LVL305:
.LBE261:
.LBB262:
	.loc 1 478 0
#APP
// 478 "drivers/misc/rk3568-secure-otp.c" 1
	dmb sy
// 0 "" 2
#NO_APP
	ldr	x0, [x28]
	str	wzr, [x0, 4116]
.LVL306:
.LBE262:
.LBB263:
	.loc 1 479 0
#APP
// 479 "drivers/misc/rk3568-secure-otp.c" 1
	dmb sy
// 0 "" 2
#NO_APP
	ldr	x0, [x28]
	str	wzr, [x0, 4120]
.LVL307:
.LBE263:
.LBB264:
	.loc 1 480 0
#APP
// 480 "drivers/misc/rk3568-secure-otp.c" 1
	dmb sy
// 0 "" 2
#NO_APP
	ldr	x0, [x28]
	mov	w1, 31
	str	w1, [x0, 4124]
.LVL308:
.LBE264:
.LBB265:
	.loc 1 481 0
#APP
// 481 "drivers/misc/rk3568-secure-otp.c" 1
	dmb sy
// 0 "" 2
#NO_APP
	ldr	x0, [x28]
	mov	w1, 11
	str	w1, [x0, 4128]
.LVL309:
.LBE265:
.LBB266:
	.loc 1 482 0
#APP
// 482 "drivers/misc/rk3568-secure-otp.c" 1
	dmb sy
// 0 "" 2
#NO_APP
	ldr	x0, [x28]
	mov	w1, 8
	str	w1, [x0, 4132]
.LVL310:
.LBE266:
.LBB267:
	.loc 1 483 0
#APP
// 483 "drivers/misc/rk3568-secure-otp.c" 1
	dmb sy
// 0 "" 2
#NO_APP
	ldr	x0, [x28]
	str	wzr, [x0, 4136]
.LVL311:
.LBE267:
.LBB268:
	.loc 1 484 0
#APP
// 484 "drivers/misc/rk3568-secure-otp.c" 1
	dmb sy
// 0 "" 2
#NO_APP
	ldr	x0, [x28]
	str	wzr, [x0, 4140]
.LVL312:
.LBE268:
.LBB269:
	.loc 1 485 0
#APP
// 485 "drivers/misc/rk3568-secure-otp.c" 1
	dmb sy
// 0 "" 2
#NO_APP
	ldr	x0, [x28]
	str	wzr, [x0, 4144]
.LBE269:
.LBB270:
	.loc 1 486 0
	and	w0, w21, 255
#APP
// 486 "drivers/misc/rk3568-secure-otp.c" 1
	dmb sy
// 0 "" 2
#NO_APP
	ldr	x1, [x28]
.LBE270:
.LBB271:
	.loc 1 487 0
	ubfx	x20, x20, 9, 8
.LVL313:
.LBE271:
.LBB272:
	.loc 1 486 0
	str	w0, [x1, 4148]
.LBE272:
.LBB273:
	.loc 1 487 0
#APP
// 487 "drivers/misc/rk3568-secure-otp.c" 1
	dmb sy
// 0 "" 2
#NO_APP
	ldr	x0, [x28]
	str	w20, [x0, 4152]
.LVL314:
.LBE273:
.LBB274:
	.loc 1 488 0
#APP
// 488 "drivers/misc/rk3568-secure-otp.c" 1
	dmb sy
// 0 "" 2
#NO_APP
	ldr	x0, [x28]
	mov	w22, 65537
.LBE274:
	.loc 1 489 0
	mov	w1, 2
.LBB275:
	.loc 1 488 0
	str	w22, [x0, 32]
.LBE275:
	.loc 1 489 0
	mov	x0, x28
	bl	rockchip_secure_otp_wait_status.isra.2
.LVL315:
	mov	w27, w0
.LVL316:
	.loc 1 490 0
	ldp	w3, w2, [x29, 100]
	tbz	w0, #31, .L93
	.loc 1 491 0
	adrp	x0, .LC5
.LVL317:
	mov	x1, x19
	add	x0, x0, :lo12:.LC5
.LVL318:
.L112:
	.loc 1 580 0
	bl	printf
.LVL319:
.L94:
.LBB276:
	.loc 1 585 0
#APP
// 585 "drivers/misc/rk3568-secure-otp.c" 1
	dmb sy
// 0 "" 2
#NO_APP
	ldr	x0, [x28]
	mov	w1, -65533
.LBE276:
	.loc 1 586 0
	ldr	x2, [x28, 16]
	mov	w3, w21
.LBB277:
	.loc 1 585 0
	str	w1, [x0, 772]
.LBE277:
	.loc 1 586 0
	ldr	x0, [x29, 120]
	ldr	x1, [x28, 24]
	ldr	x6, [x0, 24]
	ldr	x0, [x28, 8]
	blr	x6
.LVL320:
.LBE329:
.LBE337:
	.loc 1 637 0
	cbz	w27, .L102
	b	.L75
.LVL321:
.L93:
.LBB338:
.LBB330:
.LBB278:
	.loc 1 495 0
#APP
// 495 "drivers/misc/rk3568-secure-otp.c" 1
	dmb sy
// 0 "" 2
#NO_APP
	ldr	x0, [x28]
.LVL322:
	mov	w1, 14848
	movk	w1, 0xff00, lsl 16
	str	w1, [x0, 32]
.LVL323:
.LBE278:
.LBB279:
	.loc 1 496 0
#APP
// 496 "drivers/misc/rk3568-secure-otp.c" 1
	dmb sy
// 0 "" 2
#NO_APP
	ldr	x0, [x28]
	str	w3, [x0, 4096]
.LVL324:
.LBE279:
.LBB280:
	.loc 1 497 0
#APP
// 497 "drivers/misc/rk3568-secure-otp.c" 1
	dmb sy
// 0 "" 2
#NO_APP
	ldr	x0, [x28]
	mov	w1, 1
	str	w1, [x0, 4100]
.LVL325:
.LBE280:
.LBB281:
	.loc 1 498 0
#APP
// 498 "drivers/misc/rk3568-secure-otp.c" 1
	dmb sy
// 0 "" 2
#NO_APP
	ldr	x0, [x28]
	str	w2, [x0, 4104]
.LVL326:
.LBE281:
.LBB282:
	.loc 1 499 0
#APP
// 499 "drivers/misc/rk3568-secure-otp.c" 1
	dmb sy
// 0 "" 2
#NO_APP
	ldr	x0, [x28]
	mov	w1, 21
	str	w1, [x0, 4108]
.LVL327:
.LBE282:
.LBB283:
	.loc 1 500 0
#APP
// 500 "drivers/misc/rk3568-secure-otp.c" 1
	dmb sy
// 0 "" 2
#NO_APP
	ldr	x0, [x28]
	mov	w1, 220
	str	w1, [x0, 4112]
.LVL328:
.LBE283:
.LBB284:
	.loc 1 501 0
#APP
// 501 "drivers/misc/rk3568-secure-otp.c" 1
	dmb sy
// 0 "" 2
#NO_APP
	ldr	x0, [x28]
	mov	w1, 146
	str	w1, [x0, 4116]
.LVL329:
.LBE284:
.LBB285:
	.loc 1 502 0
#APP
// 502 "drivers/misc/rk3568-secure-otp.c" 1
	dmb sy
// 0 "" 2
#NO_APP
	ldr	x0, [x28]
	mov	w1, 121
	str	w1, [x0, 4120]
.LVL330:
.LBE285:
.LBB286:
	.loc 1 503 0
#APP
// 503 "drivers/misc/rk3568-secure-otp.c" 1
	dmb sy
// 0 "" 2
#NO_APP
	ldr	x0, [x28]
	mov	w1, 129
	str	w1, [x0, 4124]
.LVL331:
.LBE286:
.LBB287:
	.loc 1 504 0
#APP
// 504 "drivers/misc/rk3568-secure-otp.c" 1
	dmb sy
// 0 "" 2
#NO_APP
	ldr	x0, [x28]
	mov	w1, 126
	str	w1, [x0, 4128]
.LVL332:
.LBE287:
.LBB288:
	.loc 1 505 0
#APP
// 505 "drivers/misc/rk3568-secure-otp.c" 1
	dmb sy
// 0 "" 2
#NO_APP
	ldr	x0, [x28]
	mov	w1, 33
	str	w1, [x0, 4132]
.LVL333:
.LBE288:
.LBB289:
	.loc 1 506 0
#APP
// 506 "drivers/misc/rk3568-secure-otp.c" 1
	dmb sy
// 0 "" 2
#NO_APP
	ldr	x0, [x28]
	mov	w1, 17
	str	w1, [x0, 4136]
.LVL334:
.LBE289:
.LBB290:
	.loc 1 507 0
#APP
// 507 "drivers/misc/rk3568-secure-otp.c" 1
	dmb sy
// 0 "" 2
#NO_APP
	ldr	x0, [x28]
	mov	w1, 157
	str	w1, [x0, 4140]
.LVL335:
.LBE290:
.LBB291:
	.loc 1 508 0
#APP
// 508 "drivers/misc/rk3568-secure-otp.c" 1
	dmb sy
// 0 "" 2
#NO_APP
	ldr	x0, [x28]
	mov	w20, 2
.LVL336:
	str	w20, [x0, 4144]
.LVL337:
.LBE291:
.LBB292:
	.loc 1 509 0
#APP
// 509 "drivers/misc/rk3568-secure-otp.c" 1
	dmb sy
// 0 "" 2
#NO_APP
	ldr	x0, [x28]
	str	wzr, [x0, 4148]
.LVL338:
.LBE292:
.LBB293:
	.loc 1 510 0
#APP
// 510 "drivers/misc/rk3568-secure-otp.c" 1
	dmb sy
// 0 "" 2
#NO_APP
	ldr	x0, [x28]
	str	wzr, [x0, 4152]
.LVL339:
.LBE293:
.LBB294:
	.loc 1 511 0
#APP
// 511 "drivers/misc/rk3568-secure-otp.c" 1
	dmb sy
// 0 "" 2
#NO_APP
	ldr	x0, [x28]
.LBE294:
	.loc 1 512 0
	mov	w1, w20
.LBB295:
	.loc 1 511 0
	str	w22, [x0, 32]
.LBE295:
	.loc 1 512 0
	mov	x0, x28
	bl	rockchip_secure_otp_wait_status.isra.2
.LVL340:
	mov	w27, w0
.LVL341:
	.loc 1 513 0
	tbz	w0, #31, .L95
	.loc 1 514 0
	adrp	x0, .LC12
.LVL342:
	mov	x1, x19
	add	x0, x0, :lo12:.LC12
	b	.L112
.LVL343:
.L95:
.LBB296:
	.loc 1 518 0
#APP
// 518 "drivers/misc/rk3568-secure-otp.c" 1
	dmb sy
// 0 "" 2
#NO_APP
	ldr	x0, [x28]
.LVL344:
	mov	w1, 512
	movk	w1, 0xff00, lsl 16
	str	w1, [x0, 32]
.LVL345:
.LBE296:
.LBB297:
	.loc 1 519 0
#APP
// 519 "drivers/misc/rk3568-secure-otp.c" 1
	dmb sy
// 0 "" 2
#NO_APP
	ldr	x0, [x28]
	mov	w1, -65535
	str	w1, [x0, 36]
.LVL346:
.LBE297:
.LBB298:
	.loc 1 520 0
#APP
// 520 "drivers/misc/rk3568-secure-otp.c" 1
	dmb sy
// 0 "" 2
#NO_APP
	ldr	x0, [x28]
	mov	w1, 251
	str	w1, [x0, 4096]
.LVL347:
.LBE298:
.LBB299:
	.loc 1 521 0
#APP
// 521 "drivers/misc/rk3568-secure-otp.c" 1
	dmb sy
// 0 "" 2
#NO_APP
	ldr	x0, [x28]
	str	wzr, [x0, 4100]
.LVL348:
.LBE299:
.LBB300:
	.loc 1 522 0
#APP
// 522 "drivers/misc/rk3568-secure-otp.c" 1
	dmb sy
// 0 "" 2
#NO_APP
	ldr	x0, [x28]
.LBE300:
	.loc 1 523 0
	mov	w1, w20
.LBB301:
	.loc 1 522 0
	str	w22, [x0, 32]
.LBE301:
	.loc 1 523 0
	mov	x0, x28
	bl	rockchip_secure_otp_wait_status.isra.2
.LVL349:
	mov	w27, w0
.LVL350:
	.loc 1 524 0
	tbz	w0, #31, .L96
	.loc 1 525 0
	adrp	x0, .LC13
.LVL351:
	mov	x1, x19
	add	x0, x0, :lo12:.LC13
	b	.L112
.LVL352:
.L96:
.LBB302:
	.loc 1 529 0
#APP
// 529 "drivers/misc/rk3568-secure-otp.c" 1
	dmb sy
// 0 "" 2
#NO_APP
	ldr	x0, [x28]
.LVL353:
	mov	w1, -65534
	str	w1, [x0, 36]
.LVL354:
.LBE302:
.LBB303:
	.loc 1 530 0
#APP
// 530 "drivers/misc/rk3568-secure-otp.c" 1
	dmb sy
// 0 "" 2
#NO_APP
	ldr	x0, [x28]
	mov	w1, 192
	str	w1, [x0, 4096]
.LBE303:
.LBB304:
	.loc 1 531 0
	and	w1, w26, 255
.LVL355:
#APP
// 531 "drivers/misc/rk3568-secure-otp.c" 1
	dmb sy
// 0 "" 2
#NO_APP
	ldr	x0, [x28]
.LBE304:
.LBB305:
	.loc 1 532 0
	lsr	w26, w26, 8
.LVL356:
.LBE305:
.LBB306:
	.loc 1 531 0
	str	w1, [x0, 4100]
.LBE306:
.LBB307:
	.loc 1 532 0
#APP
// 532 "drivers/misc/rk3568-secure-otp.c" 1
	dmb sy
// 0 "" 2
#NO_APP
	ldr	x0, [x28]
	str	w26, [x0, 4104]
.LVL357:
.LBE307:
.LBB308:
	.loc 1 533 0
#APP
// 533 "drivers/misc/rk3568-secure-otp.c" 1
	dmb sy
// 0 "" 2
#NO_APP
	ldr	x0, [x28]
.LBE308:
	.loc 1 534 0
	mov	w1, w20
.LVL358:
.LBB309:
	.loc 1 533 0
	str	w22, [x0, 32]
.LBE309:
	.loc 1 534 0
	mov	x0, x28
	bl	rockchip_secure_otp_wait_status.isra.2
.LVL359:
	mov	w27, w0
.LVL360:
	.loc 1 535 0
	tbz	w0, #31, .L97
	.loc 1 536 0
	adrp	x0, .LC14
.LVL361:
	mov	x1, x19
	add	x0, x0, :lo12:.LC14
	b	.L112
.LVL362:
.L97:
.LBB310:
	.loc 1 540 0
#APP
// 540 "drivers/misc/rk3568-secure-otp.c" 1
	dmb sy
// 0 "" 2
#NO_APP
	ldr	x0, [x28]
.LVL363:
	mov	w1, 14848
	movk	w1, 0xff00, lsl 16
	str	w1, [x0, 32]
.LVL364:
.LBE310:
.LBB311:
	.loc 1 541 0
#APP
// 541 "drivers/misc/rk3568-secure-otp.c" 1
	dmb sy
// 0 "" 2
#NO_APP
	ldr	x0, [x28]
	mov	w1, -65535
	str	w1, [x0, 36]
.LVL365:
.LBE311:
.LBB312:
	.loc 1 542 0
#APP
// 542 "drivers/misc/rk3568-secure-otp.c" 1
	dmb sy
// 0 "" 2
#NO_APP
	ldr	x0, [x28]
	mov	w1, 255
	str	w1, [x0, 4096]
.LVL366:
.LBE312:
.LBB313:
	.loc 1 543 0
#APP
// 543 "drivers/misc/rk3568-secure-otp.c" 1
	dmb sy
// 0 "" 2
#NO_APP
	ldr	x0, [x28]
	mov	w1, 10
	str	w1, [x0, 4100]
.LVL367:
.LBE313:
.LBB314:
	.loc 1 544 0
#APP
// 544 "drivers/misc/rk3568-secure-otp.c" 1
	dmb sy
// 0 "" 2
#NO_APP
	ldr	x0, [x28]
.LBE314:
	.loc 1 545 0
	mov	w1, w20
.LBB315:
	.loc 1 544 0
	str	w22, [x0, 32]
.LBE315:
	.loc 1 545 0
	mov	x0, x28
	bl	rockchip_secure_otp_wait_status.isra.2
.LVL368:
	mov	w27, w0
.LVL369:
	.loc 1 546 0
	tbz	w0, #31, .L98
	.loc 1 547 0
	adrp	x0, .LC15
.LVL370:
	mov	x1, x19
	add	x0, x0, :lo12:.LC15
	b	.L112
.LVL371:
.L98:
.LBB316:
	.loc 1 551 0
#APP
// 551 "drivers/misc/rk3568-secure-otp.c" 1
	dmb sy
// 0 "" 2
#NO_APP
	ldr	x0, [x28]
.LVL372:
	mov	w1, -65534
	str	w1, [x0, 36]
.LVL373:
.LBE316:
.LBB317:
	.loc 1 552 0
#APP
// 552 "drivers/misc/rk3568-secure-otp.c" 1
	dmb sy
// 0 "" 2
#NO_APP
	ldr	x0, [x28]
	mov	w1, 1
	str	w1, [x0, 4096]
.LVL374:
.LBE317:
.LBB318:
	.loc 1 553 0
#APP
// 553 "drivers/misc/rk3568-secure-otp.c" 1
	dmb sy
// 0 "" 2
#NO_APP
	ldr	x0, [x28]
	mov	w26, 191
.LVL375:
	str	w26, [x0, 4100]
.LVL376:
.LBE318:
.LBB319:
	.loc 1 554 0
#APP
// 554 "drivers/misc/rk3568-secure-otp.c" 1
	dmb sy
// 0 "" 2
#NO_APP
	ldr	x0, [x28]
	str	wzr, [x0, 4104]
.LVL377:
.LBE319:
.LBB320:
	.loc 1 555 0
#APP
// 555 "drivers/misc/rk3568-secure-otp.c" 1
	dmb sy
// 0 "" 2
#NO_APP
	ldr	x0, [x28]
.LBE320:
	.loc 1 556 0
	mov	w1, w20
.LBB321:
	.loc 1 555 0
	str	w22, [x0, 32]
.LBE321:
	.loc 1 556 0
	mov	x0, x28
	bl	rockchip_secure_otp_wait_status.isra.2
.LVL378:
	mov	w27, w0
.LVL379:
	.loc 1 557 0
	tbz	w0, #31, .L99
	.loc 1 558 0
	adrp	x0, .LC16
.LVL380:
	mov	x1, x19
	add	x0, x0, :lo12:.LC16
	b	.L112
.LVL381:
.L99:
	.loc 1 562 0
	mov	x0, x28
.LVL382:
	bl	rockchip_secure_otp_check_flag.isra.0
.LVL383:
	mov	w27, w0
.LVL384:
	.loc 1 563 0
	tbz	w0, #31, .L100
	.loc 1 564 0
	adrp	x0, .LC6
.LVL385:
	mov	x1, x19
	add	x0, x0, :lo12:.LC6
	b	.L112
.LVL386:
.L100:
.LBB322:
	.loc 1 568 0
#APP
// 568 "drivers/misc/rk3568-secure-otp.c" 1
	dmb sy
// 0 "" 2
#NO_APP
	ldr	x0, [x28]
.LVL387:
	mov	w1, -65535
	str	w1, [x0, 36]
.LVL388:
.LBE322:
.LBB323:
	.loc 1 569 0
#APP
// 569 "drivers/misc/rk3568-secure-otp.c" 1
	dmb sy
// 0 "" 2
#NO_APP
	ldr	x0, [x28]
	str	w20, [x0, 4096]
.LVL389:
.LBE323:
.LBB324:
	.loc 1 570 0
#APP
// 570 "drivers/misc/rk3568-secure-otp.c" 1
	dmb sy
// 0 "" 2
#NO_APP
	ldr	x0, [x28]
	str	w26, [x0, 4100]
.LVL390:
.LBE324:
.LBB325:
	.loc 1 571 0
#APP
// 571 "drivers/misc/rk3568-secure-otp.c" 1
	dmb sy
// 0 "" 2
#NO_APP
	ldr	x0, [x28]
.LBE325:
	.loc 1 572 0
	mov	w1, w20
.LBB326:
	.loc 1 571 0
	str	w22, [x0, 32]
.LBE326:
	.loc 1 572 0
	mov	x0, x28
	bl	rockchip_secure_otp_wait_status.isra.2
.LVL391:
	mov	w27, w0
.LVL392:
	.loc 1 573 0
	tbz	w0, #31, .L101
	.loc 1 574 0
	adrp	x0, .LC17
.LVL393:
	mov	x1, x19
	add	x0, x0, :lo12:.LC17
	b	.L112
.LVL394:
.L101:
	.loc 1 578 0
	mov	x0, x28
.LVL395:
	bl	rockchip_secure_otp_wait_flag.isra.1
.LVL396:
	mov	w27, w0
.LVL397:
	.loc 1 579 0
	tbz	w0, #31, .L94
	.loc 1 580 0
	adrp	x0, .LC7
.LVL398:
	mov	x1, x19
	add	x0, x0, :lo12:.LC7
	b	.L112
.LBE330:
.LBE338:
	.cfi_endproc
.LFE272:
	.size	rk3568_secure_otp_write, .-rk3568_secure_otp_write
	.global	_u_boot_list_2_driver_2_rockchip_secure_otp
	.section	.rodata.__func__.7454,"a",@progbits
	.align	3
	.set	.LANCHOR0,. + 0
	.type	__func__.7454, %object
	.size	__func__.7454, 32
__func__.7454:
	.string	"rockchip_secure_otp_wait_status"
	.section	.rodata.__func__.7497,"a",@progbits
	.align	3
	.set	.LANCHOR2,. + 0
	.type	__func__.7497, %object
	.size	__func__.7497, 31
__func__.7497:
	.string	"rockchip_secure_otp_ecc_enable"
	.section	.rodata.__func__.7515,"a",@progbits
	.align	3
	.set	.LANCHOR3,. + 0
	.type	__func__.7515, %object
	.size	__func__.7515, 23
__func__.7515:
	.string	"rk3568_secure_otp_read"
	.section	.rodata.__func__.7550,"a",@progbits
	.align	3
	.set	.LANCHOR1,. + 0
	.type	__func__.7550, %object
	.size	__func__.7550, 38
__func__.7550:
	.string	"rk3568_secure_otp_write_2_bytes_noecc"
	.section	.rodata.__func__.7771,"a",@progbits
	.align	3
	.set	.LANCHOR4,. + 0
	.type	__func__.7771, %object
	.size	__func__.7771, 32
__func__.7771:
	.string	"rk3568_secure_otp_write_2_bytes"
	.section	.rodata.rk3568_data,"a",@progbits
	.align	3
	.type	rk3568_data, %object
	.size	rk3568_data, 32
rk3568_data:
	.xword	rk3568_secure_otp_read
	.xword	rk3568_secure_otp_write
	.xword	rk3568_spl_rockchip_otp_start
	.xword	rk3568_spl_rockchip_otp_stop
	.section	.rodata.rk3568_secure_otp_read.str1.1,"aMS",@progbits,1
.LC9:
	.string	"%s timeout during read setup\n"
	.section	.rodata.rk3568_secure_otp_write.str1.1,"aMS",@progbits,1
.LC10:
	.string	"Please enter the size of multiple of 2\n"
.LC11:
	.string	"The zone is written.\n"
.LC12:
	.string	"%s timeout during write setup 2\n"
.LC13:
	.string	"%s timeout during write setup 3\n"
.LC14:
	.string	"%s timeout during write setup 4\n"
.LC15:
	.string	"%s timeout during write setup 5\n"
.LC16:
	.string	"%s timeout during write setup 6\n"
.LC17:
	.string	"%s timeout during write setup 8\n"
	.section	.rodata.rk3568_secure_otp_write_2_bytes_noecc.str1.1,"aMS",@progbits,1
.LC4:
	.string	"Please input correct addr, offset is %x\n"
.LC5:
	.string	"%s timeout during write setup 1\n"
.LC6:
	.string	"%s timeout during write setup 7\n"
.LC7:
	.string	"%s timeout during write setup 9\n"
	.section	.rodata.rockchip_otp_ids,"a",@progbits
	.align	3
	.type	rockchip_otp_ids, %object
	.size	rockchip_otp_ids, 32
rockchip_otp_ids:
	.xword	.LC19
	.xword	rk3568_data
	.zero	16
	.section	.rodata.rockchip_secure_otp_ecc_enable.str1.1,"aMS",@progbits,1
.LC8:
	.string	"%s timeout during ecc_enable\n"
	.section	.rodata.rockchip_secure_otp_ofdata_to_platdata.str1.1,"aMS",@progbits,1
.LC0:
	.string	"secure_conf"
.LC1:
	.string	"mask_addr"
.LC2:
	.string	"cru_rst_addr"
	.section	.rodata.rockchip_secure_otp_ops,"a",@progbits
	.align	3
	.type	rockchip_secure_otp_ops, %object
	.size	rockchip_secure_otp_ops, 32
rockchip_secure_otp_ops:
	.xword	secure_otp_read
	.xword	secure_otp_write
	.xword	secure_otp_ioctl
	.zero	8
	.section	.rodata.rockchip_secure_otp_wait_status.isra.2.str1.1,"aMS",@progbits,1
.LC3:
	.string	"%s: wait init status timeout\n"
	.section	.rodata.str1.1,"aMS",@progbits,1
.LC18:
	.string	"rockchip_secure_otp"
.LC19:
	.string	"rockchip,rk3568-secure-otp"
	.section	.u_boot_list_2_driver_2_rockchip_secure_otp,"aw",@progbits
	.align	2
	.type	_u_boot_list_2_driver_2_rockchip_secure_otp, %object
	.size	_u_boot_list_2_driver_2_rockchip_secure_otp, 120
_u_boot_list_2_driver_2_rockchip_secure_otp:
	.8byte	.LC18
	.word	36
	.zero	4
	.8byte	rockchip_otp_ids
	.zero	32
	.8byte	rockchip_secure_otp_ofdata_to_platdata
	.zero	28
	.word	32
	.zero	8
	.8byte	rockchip_secure_otp_ops
	.zero	8
	.text
.Letext0:
	.file 2 "include/common.h"
	.file 3 "./arch/arm/include/asm/types.h"
	.file 4 "include/linux/types.h"
	.file 5 "include/errno.h"
	.file 6 "include/linux/string.h"
	.file 7 "include/efi.h"
	.file 8 "include/dm/device.h"
	.file 9 "include/ide.h"
	.file 10 "include/linux/list.h"
	.file 11 "include/part.h"
	.file 12 "include/flash.h"
	.file 13 "include/lmb.h"
	.file 14 "include/asm-generic/u-boot.h"
	.file 15 "./arch/arm/include/asm/u-boot-arm.h"
	.file 16 "include/linux/libfdt_env.h"
	.file 17 "include/linux/../../scripts/dtc/libfdt/fdt.h"
	.file 18 "include/linux/libfdt.h"
	.file 19 "include/image.h"
	.file 20 "./arch/arm/include/asm/global_data.h"
	.file 21 "include/asm-generic/global_data.h"
	.file 22 "include/dm/of.h"
	.file 23 "include/net.h"
	.file 24 "include/dm/uclass-id.h"
	.file 25 "include/dm/ofnode.h"
	.file 26 "include/malloc.h"
	.file 27 "include/linux/compat.h"
	.file 28 "include/dm/uclass.h"
	.file 29 "include/asm-generic/ioctl.h"
	.file 30 "include/misc.h"
	.file 31 "include/rockchip-otp.h"
	.file 32 "include/dm/read.h"
	.file 33 "include/stdio.h"
	.file 34 "include/linux/delay.h"
	.file 35 "include/log.h"
	.section	.note.GNU-stack,"",@progbits
