	.arch armv8-a+nosimd
	.file	"spl_fit_tb_arm64.c"
	.text
.Ltext0:
	.cfi_sections	.debug_frame
	.section	.text.spl_fit_get_image_name.isra.0,"ax",@progbits
	.align	2
	.type	spl_fit_get_image_name.isra.0, %function
spl_fit_get_image_name.isra.0:
.LFB225:
	.file 1 "common/spl/spl_fit_tb_arm64.c"
	.loc 1 60 0
	.cfi_startproc
.LVL0:
	stp	x29, x30, [sp, -80]!
	.cfi_def_cfa_offset 80
	.cfi_offset 29, -80
	.cfi_offset 30, -72
	add	x29, sp, 0
	.cfi_def_cfa_register 29
	stp	x19, x20, [sp, 16]
	.cfi_offset 19, -64
	.cfi_offset 20, -56
	mov	x20, x0
	stp	x21, x22, [sp, 32]
	.cfi_offset 21, -48
	.cfi_offset 22, -40
	mov	w22, w2
	str	x23, [sp, 48]
	.cfi_offset 23, -32
	.loc 1 60 0
	mov	x21, x3
	mov	x23, x1
	.loc 1 69 0
	bl	fit_find_config_node
.LVL1:
	mov	w19, w0
.LVL2:
	.loc 1 70 0
	tbz	w0, #31, .L2
	.loc 1 72 0
	adrp	x0, .LC0
.LVL3:
	add	x0, x0, :lo12:.LC0
	bl	printf
.LVL4:
	.loc 1 76 0
	adrp	x22, .LC1
.LVL5:
	.loc 1 73 0
	mov	w1, w19
	mov	x0, x20
	.loc 1 77 0
	adrp	x23, .LC2
.LVL6:
	.loc 1 73 0
	bl	fdt_first_subnode
.LVL7:
	.loc 1 76 0
	add	x22, x22, :lo12:.LC1
	.loc 1 73 0
	mov	w21, w0
.LVL8:
	.loc 1 77 0
	add	x23, x23, :lo12:.LC2
.L3:
	.loc 1 73 0
	tbz	w21, #31, .L4
.LVL9:
.L1:
	.loc 1 100 0
	mov	w0, w19
	ldr	x23, [sp, 48]
	ldp	x19, x20, [sp, 16]
	ldp	x21, x22, [sp, 32]
	ldp	x29, x30, [sp], 80
	.cfi_remember_state
	.cfi_restore 30
	.cfi_restore 29
	.cfi_restore 23
	.cfi_restore 21
	.cfi_restore 22
	.cfi_restore 19
	.cfi_restore 20
	.cfi_def_cfa 31, 0
	ret
.LVL10:
.L4:
	.cfi_restore_state
	.loc 1 76 0
	add	x3, x29, 76
	mov	x2, x22
	mov	w1, w21
	mov	x0, x20
.LVL11:
	bl	fdt_getprop
.LVL12:
	.loc 1 77 0
	mov	x1, x0
	mov	x0, x23
.LVL13:
	bl	printf
.LVL14:
	.loc 1 75 0
	mov	w1, w21
	mov	x0, x20
	bl	fdt_next_subnode
.LVL15:
	mov	w21, w0
.LVL16:
	b	.L3
.LVL17:
.L2:
	.loc 1 83 0
	mov	w1, w0
	add	x3, x29, 76
	mov	x0, x20
.LVL18:
	mov	x2, x23
	bl	fdt_getprop
.LVL19:
	mov	x20, x0
.LVL20:
	.loc 1 84 0
	cbz	x0, .L8
	mov	w19, 0
.LVL21:
.L6:
	.loc 1 90 0
	cmp	w19, w22
	blt	.L7
	.loc 1 99 0
	mov	w19, 0
.LVL22:
	.loc 1 98 0
	str	x0, [x21]
	b	.L1
.LVL23:
.L7:
	.loc 1 91 0
	mov	w1, 0
	bl	strchr
.LVL24:
	.loc 1 92 0
	adds	x0, x0, 1
.LVL25:
	beq	.L10
	ldrsw	x2, [x29, 76]
	sub	x1, x0, x20
	cmp	x1, x2
	bge	.L10
	.loc 1 90 0
	add	w19, w19, 1
.LVL26:
	b	.L6
.LVL27:
.L8:
	.loc 1 86 0
	mov	w19, -22
.LVL28:
	b	.L1
.LVL29:
.L10:
	.loc 1 94 0
	mov	w19, -7
.LVL30:
	b	.L1
	.cfi_endproc
.LFE225:
	.size	spl_fit_get_image_name.isra.0, .-spl_fit_get_image_name.isra.0
	.section	.text.spl_fit_get_image_node,"ax",@progbits
	.align	2
	.type	spl_fit_get_image_node, %function
spl_fit_get_image_node:
.LFB211:
	.loc 1 116 0
	.cfi_startproc
.LVL31:
	stp	x29, x30, [sp, -48]!
	.cfi_def_cfa_offset 48
	.cfi_offset 29, -48
	.cfi_offset 30, -40
	add	x29, sp, 0
	.cfi_def_cfa_register 29
	stp	x19, x20, [sp, 16]
	.cfi_offset 19, -32
	.cfi_offset 20, -24
	.loc 1 116 0
	mov	w20, w1
	mov	x19, x0
	mov	x1, x2
.LVL32:
	mov	w2, w3
.LVL33:
	.loc 1 121 0
	add	x3, x29, 40
.LVL34:
	bl	spl_fit_get_image_name.isra.0
.LVL35:
	.loc 1 122 0
	cbnz	w0, .L12
	.loc 1 127 0
	ldr	x2, [x29, 40]
	mov	w1, w20
	mov	x0, x19
.LVL36:
	bl	fdt_subnode_offset
.LVL37:
	.loc 1 130 0
	cmp	w0, 0
	mov	w1, -22
	csel	w0, w0, w1, ge
.LVL38:
.L12:
	.loc 1 134 0
	ldp	x19, x20, [sp, 16]
.LVL39:
	ldp	x29, x30, [sp], 48
	.cfi_restore 30
	.cfi_restore 29
	.cfi_restore 19
	.cfi_restore 20
	.cfi_def_cfa 31, 0
	ret
	.cfi_endproc
.LFE211:
	.size	spl_fit_get_image_node, .-spl_fit_get_image_node
	.section	.text.spl_load_fit_image,"ax",@progbits
	.align	2
	.type	spl_load_fit_image, %function
spl_load_fit_image:
.LFB215:
	.loc 1 194 0
	.cfi_startproc
.LVL40:
	stp	x29, x30, [sp, -144]!
	.cfi_def_cfa_offset 144
	.cfi_offset 29, -144
	.cfi_offset 30, -136
	add	x29, sp, 0
	.cfi_def_cfa_register 29
	stp	x19, x20, [sp, 16]
	.cfi_offset 19, -128
	.cfi_offset 20, -120
	mov	x19, x2
	.loc 1 204 0
	add	x2, x29, 144
.LVL41:
	.loc 1 194 0
	stp	x21, x22, [sp, 32]
	stp	x23, x24, [sp, 48]
	.cfi_offset 21, -112
	.cfi_offset 22, -104
	.cfi_offset 23, -96
	.cfi_offset 24, -88
	mov	x22, x0
	stp	x25, x26, [sp, 64]
	.loc 1 204 0
	mov	w0, -1
.LVL42:
	.loc 1 194 0
	stp	x27, x28, [sp, 80]
	.cfi_offset 25, -80
	.cfi_offset 26, -72
	.cfi_offset 27, -64
	.cfi_offset 28, -56
	.loc 1 194 0
	mov	w20, w4
	.loc 1 204 0
	strb	w0, [x2, -41]!
.LVL43:
	.loc 1 194 0
	mov	x25, x1
	mov	x21, x3
	.loc 1 221 0
	mov	w1, w4
.LVL44:
	.loc 1 194 0
	mov	x23, x5
	.loc 1 221 0
	mov	x0, x19
	.loc 1 208 0
	ldr	x24, [x22]
.LVL45:
	.loc 1 221 0
	bl	fit_image_get_comp
.LVL46:
	.loc 1 224 0
	add	x2, x29, 128
	mov	w1, w20
	mov	x0, x19
	bl	fit_image_get_load
.LVL47:
	cbz	w0, .L17
	.loc 1 225 0
	ldr	x0, [x23, 16]
	str	x0, [x29, 128]
.L17:
	.loc 1 227 0
	ldrb	w0, [x29, 103]
	cmp	w0, 0
	ccmp	w0, 6, 4, ne
	beq	.L18
	.loc 1 229 0
	add	x2, x29, 120
	mov	w1, w20
	mov	x0, x19
	bl	fit_image_get_comp_addr
.LVL48:
	cbz	w0, .L19
	.loc 1 230 0
	ldr	x0, [x29, 128]
	add	x0, x0, 1048576
.L57:
	.loc 1 232 0
	str	x0, [x29, 120]
.L19:
	.loc 1 235 0
	add	x2, x29, 104
	mov	w1, w20
	mov	x0, x19
	bl	fit_image_get_data_position
.LVL49:
	cbz	w0, .L20
	.loc 1 237 0
	add	x2, x29, 104
	mov	w1, w20
	mov	x0, x19
	bl	fit_image_get_data_offset
.LVL50:
	cbnz	w0, .L21
	.loc 1 238 0
	ldr	w3, [x29, 104]
	add	w3, w3, w21
	str	w3, [x29, 104]
.LVL51:
.L20:
	.loc 1 244 0
	add	x2, x29, 108
	mov	w1, w20
	mov	x0, x19
	bl	fit_image_get_data_size
.LVL52:
	cbnz	w0, .L41
	.loc 1 247 0
	ldr	x21, [x29, 120]
.LVL53:
	.loc 1 249 0
	mov	x0, 65535
	movk	x0, 0xfeff, lsl 16
	.loc 1 247 0
	add	x21, x21, 63
	and	x26, x21, -64
.LVL54:
	.loc 1 249 0
	cmp	x26, x0
	bls	.L22
	.loc 1 251 0
	ldrsw	x1, [x29, 108]
	mov	x0, 64
	bl	memalign_simple
.LVL55:
	mov	x26, x0
.LVL56:
.L22:
	.loc 1 253 0
	ldp	w27, w21, [x29, 104]
	sxtw	x0, w21
	str	x0, [x29, 112]
.LVL57:
.LBB35:
.LBB36:
	.loc 1 157 0
	ldr	x0, [x22, 24]
	cbz	x0, .L23
	.loc 1 158 0
	and	w27, w27, 63
.L24:
.LVL58:
.LBE36:
.LBE35:
.LBB38:
.LBB39:
	.loc 1 166 0
	add	w21, w21, w27
.LVL59:
	.loc 1 168 0
	cbnz	x0, .L25
	.loc 1 171 0
	ldr	w0, [x22, 16]
	add	w21, w21, w0
.LVL60:
	sub	w21, w21, #1
	sdiv	w21, w21, w0
.L25:
.LVL61:
.LBE39:
.LBE38:
	.loc 1 259 0
	mov	w1, w20
	mov	x0, x19
	bl	fit_image_is_preload
.LVL62:
	.loc 1 261 0
	ands	w28, w0, 255
	beq	.L26
	.loc 1 262 0
	mov	w0, 1
.LVL63:
	strb	w0, [x24, 14]
.L26:
	.loc 1 264 0
	ldp	x0, x4, [x22, 24]
	.loc 1 265 0
	ldr	w1, [x29, 104]
.LVL64:
.LBB40:
.LBB41:
	.loc 1 143 0
	cbz	x0, .L27
	.loc 1 144 0
	and	w1, w1, -64
.LVL65:
.L28:
.LBE41:
.LBE40:
	.loc 1 264 0
	sxtw	x21, w21
	mov	x3, x26
	mov	x2, x21
	add	x1, x25, x1, sxtw
	mov	x0, x22
	blr	x4
.LVL66:
	cmp	x21, x0
	bne	.L38
.LVL67:
	.loc 1 272 0
	cbnz	w28, .L30
	.loc 1 271 0
	add	x26, x26, x27, sxtw
.LVL68:
.L31:
	.loc 1 289 0
	ldrb	w0, [x29, 103]
.LBB43:
.LBB44:
	.file 2 "include/image.h"
	.loc 2 1005 0
	mov	x2, 0
	mov	w1, w20
.LBE44:
.LBE43:
	.loc 1 289 0
	cmp	w0, 0
	ccmp	w0, 6, 4, ne
.LBB48:
.LBB45:
	.loc 2 1005 0
	mov	x0, x19
.LBE45:
.LBE48:
	.loc 1 289 0
	beq	.L33
.LVL69:
.LBB49:
.LBB46:
	.loc 2 1005 0
	bl	fdt_get_name
.LVL70:
.LBE46:
.LBE49:
	.loc 1 290 0
	ldr	x24, [x29, 128]
.LVL71:
.LBB50:
.LBB47:
	.loc 2 1005 0
	mov	x22, x0
.LVL72:
.LBE47:
.LBE50:
	.loc 1 292 0
	mov	x3, 0
	mov	w1, w20
	adrp	x2, .LC5
	mov	x0, x19
	add	x2, x2, :lo12:.LC5
	bl	fdt_getprop
.LVL73:
	.loc 1 290 0
	mov	x3, x0
	mov	x4, x26
	adrp	x0, .LC6
	mov	x2, x24
	mov	x1, x22
	add	x0, x0, :lo12:.LC6
	bl	printf
.LVL74:
.L34:
	.loc 1 302 0
	ldr	x3, [x29, 112]
	mov	x2, x26
	mov	w1, w20
	mov	x0, x19
	bl	fit_image_verify_with_data
.LVL75:
	cbz	w0, .L39
	.loc 1 310 0
	adrp	x0, .LC8
	add	x0, x0, :lo12:.LC8
	bl	puts
.LVL76:
	.loc 1 324 0
	ldr	x2, [x29, 112]
	mov	x1, x26
	ldr	x0, [x29, 128]
	bl	memcpy
.LVL77:
	b	.L32
.LVL78:
.L18:
	.loc 1 232 0
	ldr	x0, [x29, 128]
	b	.L57
.LVL79:
.L23:
.LBB51:
.LBB37:
	.loc 1 160 0
	ldr	w1, [x22, 16]
	sdiv	w2, w27, w1
	msub	w27, w2, w1, w27
	b	.L24
.LVL80:
.L27:
.LBE37:
.LBE51:
.LBB52:
.LBB42:
	.loc 1 146 0
	ldr	w0, [x22, 16]
	sdiv	w1, w1, w0
.LVL81:
	b	.L28
.LVL82:
.L30:
.LBE42:
.LBE52:
	.loc 1 273 0
	ldrb	w0, [x24, 14]
	and	w0, w0, -2
	strb	w0, [x24, 14]
	.loc 1 274 0
	adrp	x0, .LC3
	add	x0, x0, :lo12:.LC3
	bl	printf
.LVL83:
.L32:
	.loc 1 327 0
	cbz	x23, .L40
	.loc 1 328 0
	ldr	x0, [x29, 128]
	.loc 1 330 0
	adrp	x2, .LC9
	.loc 1 328 0
	str	x0, [x23, 16]
	.loc 1 330 0
	add	x2, x2, :lo12:.LC9
	.loc 1 329 0
	ldr	x0, [x29, 112]
	.loc 1 330 0
	mov	w1, w20
	.loc 1 329 0
	str	w0, [x23, 64]
	.loc 1 330 0
	mov	x0, x19
	bl	fdt_getprop_u32
.LVL84:
	str	x0, [x23, 24]
.L40:
	.loc 1 333 0
	mov	w0, 0
	b	.L16
.LVL85:
.L54:
	.loc 1 285 0
	ldr	x26, [x29, 136]
.LVL86:
	b	.L31
.LVL87:
.L33:
.LBB53:
.LBB54:
	.loc 2 1005 0
	bl	fdt_get_name
.LVL88:
.LBE54:
.LBE53:
	.loc 1 295 0
	mov	x1, x0
	ldr	x2, [x29, 128]
	adrp	x0, .LC7
	add	x0, x0, :lo12:.LC7
	bl	printf
.LVL89:
	b	.L34
.LVL90:
.L38:
	.loc 1 267 0
	mov	w0, -5
.LVL91:
.L16:
	.loc 1 334 0
	ldp	x19, x20, [sp, 16]
.LVL92:
	ldp	x21, x22, [sp, 32]
	ldp	x23, x24, [sp, 48]
.LVL93:
	ldp	x25, x26, [sp, 64]
.LVL94:
	ldp	x27, x28, [sp, 80]
	ldp	x29, x30, [sp], 144
	.cfi_remember_state
	.cfi_restore 30
	.cfi_restore 29
	.cfi_restore 27
	.cfi_restore 28
	.cfi_restore 25
	.cfi_restore 26
	.cfi_restore 23
	.cfi_restore 24
	.cfi_restore 21
	.cfi_restore 22
	.cfi_restore 19
	.cfi_restore 20
	.cfi_def_cfa 31, 0
	ret
.LVL95:
.L39:
	.cfi_restore_state
	.loc 1 304 0
	mov	w0, -1
	b	.L16
.LVL96:
.L21:
	.loc 1 279 0
	add	x3, x29, 112
	add	x2, x29, 136
	mov	w1, w20
	mov	x0, x19
	bl	fit_image_get_data
.LVL97:
	cbz	w0, .L54
	.loc 1 280 0
	adrp	x0, .LC4
	add	x0, x0, :lo12:.LC4
	bl	puts
.LVL98:
.L41:
	.loc 1 245 0
	mov	w0, -2
.LVL99:
	b	.L16
	.cfi_endproc
.LFE215:
	.size	spl_load_fit_image, .-spl_load_fit_image
	.section	.text.spl_fit_append_fdt,"ax",@progbits
	.align	2
	.type	spl_fit_append_fdt, %function
spl_fit_append_fdt:
.LFB216:
	.loc 1 339 0
	.cfi_startproc
.LVL100:
	stp	x29, x30, [sp, -144]!
	.cfi_def_cfa_offset 144
	.cfi_offset 29, -144
	.cfi_offset 30, -136
	add	x29, sp, 0
	.cfi_def_cfa_register 29
	stp	x19, x20, [sp, 16]
	.cfi_offset 19, -128
	.cfi_offset 20, -120
	mov	x20, x3
	stp	x21, x22, [sp, 32]
	mov	x19, x0
	str	x23, [sp, 48]
	.cfi_offset 21, -112
	.cfi_offset 22, -104
	.cfi_offset 23, -96
	.loc 1 339 0
	mov	x21, x1
	mov	x22, x2
	.loc 1 344 0
	mov	w3, 0
.LVL101:
	adrp	x2, .LC10
.LVL102:
	mov	w1, w4
.LVL103:
	add	x2, x2, :lo12:.LC10
	mov	x0, x20
.LVL104:
	.loc 1 339 0
	mov	x23, x5
	.loc 1 344 0
	bl	spl_fit_get_image_node
.LVL105:
	.loc 1 345 0
	tbnz	w0, #31, .L58
	.loc 1 354 0
	ldr	w2, [x19, 64]
	.loc 1 355 0
	mov	w4, w0
	.loc 1 354 0
	ldr	x1, [x19, 16]
	.loc 1 355 0
	add	x5, x29, 64
	mov	x3, x23
	mov	x0, x21
.LVL106:
	.loc 1 354 0
	add	x1, x1, x2
	.loc 1 355 0
	mov	x2, x20
	.loc 1 354 0
	str	x1, [x29, 80]
	.loc 1 355 0
	mov	x1, x22
	bl	spl_load_fit_image
.LVL107:
	.loc 1 358 0
	tbnz	w0, #31, .L58
	.loc 1 362 0
	ldr	x0, [x29, 80]
.LVL108:
	.loc 1 365 0
	mov	w1, 8192
	.loc 1 362 0
	str	x0, [x19, 48]
	.loc 1 365 0
	bl	fdt_shrink_to_minimum
.LVL109:
.L58:
	.loc 1 369 0
	ldp	x19, x20, [sp, 16]
.LVL110:
	ldp	x21, x22, [sp, 32]
.LVL111:
	ldr	x23, [sp, 48]
.LVL112:
	ldp	x29, x30, [sp], 144
	.cfi_restore 30
	.cfi_restore 29
	.cfi_restore 23
	.cfi_restore 21
	.cfi_restore 22
	.cfi_restore 19
	.cfi_restore 20
	.cfi_def_cfa 31, 0
	ret
	.cfi_endproc
.LFE216:
	.size	spl_fit_append_fdt, .-spl_fit_append_fdt
	.section	.text.spl_fit_load_blob,"ax",@progbits
	.align	2
	.type	spl_fit_load_blob, %function
spl_fit_load_blob:
.LFB220:
	.loc 1 411 0
	.cfi_startproc
.LVL113:
	stp	x29, x30, [sp, -32]!
	.cfi_def_cfa_offset 32
	.cfi_offset 29, -32
	.cfi_offset 30, -24
	add	x29, sp, 0
	.cfi_def_cfa_register 29
	ldr	w4, [x2, 4]
.LVL114:
.LBB61:
.LBB62:
	.loc 1 168 0
	ldr	x5, [x0, 24]
.LBE62:
.LBE61:
	.loc 1 423 0
	rev	w4, w4
.LVL115:
	.loc 1 411 0
	str	x19, [sp, 16]
	.cfi_offset 19, -16
	.loc 1 424 0
	add	x4, x4, 511
.LVL116:
	.loc 1 444 0
	mov	x19, 65473
	.loc 1 424 0
	and	x4, x4, -512
.LVL117:
	.loc 1 425 0
	str	w4, [x3]
	.loc 1 444 0
	movk	x19, 0x1f, lsl 16
	ldr	w3, [x0, 16]
.LVL118:
	sub	x19, x19, x3, sxtw
	sub	x19, x19, x4
	.loc 1 445 0
	and	x19, x19, -64
.LVL119:
.LBB64:
.LBB63:
	.loc 1 168 0
	cbnz	x5, .L64
	.loc 1 171 0
	add	w2, w3, w4
.LVL120:
	sub	w2, w2, #1
	sdiv	w2, w2, w3
.L62:
.LVL121:
.LBE63:
.LBE64:
	.loc 1 447 0
	ldr	x4, [x0, 32]
.LVL122:
	mov	x3, x19
	sxtw	x2, w2
	blr	x4
.LVL123:
	.loc 1 451 0
	cmp	x0, 0
	.loc 1 454 0
	csel	x0, x19, xzr, ne
.LVL124:
	ldr	x19, [sp, 16]
.LVL125:
	ldp	x29, x30, [sp], 32
	.cfi_remember_state
	.cfi_restore 30
	.cfi_restore 29
	.cfi_restore 19
	.cfi_def_cfa 31, 0
	ret
.LVL126:
.L64:
	.cfi_restore_state
	mov	w2, w4
.LVL127:
	b	.L62
	.cfi_endproc
.LFE220:
	.size	spl_fit_load_blob, .-spl_fit_load_blob
	.section	.text.fit_config_verify,"ax",@progbits
	.align	2
	.weak	fit_config_verify
	.type	fit_config_verify, %function
fit_config_verify:
.LFB205:
	.loc 1 24 0
	.cfi_startproc
.LVL128:
	.loc 1 26 0
	mov	w0, 0
.LVL129:
	ret
	.cfi_endproc
.LFE205:
	.size	fit_config_verify, .-fit_config_verify
	.section	.text.mtd_part_parse,"ax",@progbits
	.align	2
	.weak	mtd_part_parse
	.type	mtd_part_parse, %function
mtd_part_parse:
.LFB206:
	.loc 1 29 0
	.cfi_startproc
.LVL130:
	.loc 1 31 0
	mov	x0, 0
.LVL131:
	ret
	.cfi_endproc
.LFE206:
	.size	mtd_part_parse, .-mtd_part_parse
	.section	.text.spl_get_current_slot,"ax",@progbits
	.align	2
	.weak	spl_get_current_slot
	.type	spl_get_current_slot, %function
spl_get_current_slot:
.LFB207:
	.loc 1 34 0
	.cfi_startproc
.LVL132:
	.loc 1 36 0
	mov	w0, -1
.LVL133:
	ret
	.cfi_endproc
.LFE207:
	.size	spl_get_current_slot, .-spl_get_current_slot
	.section	.text.fdt_bootargs_append_ab,"ax",@progbits
	.align	2
	.weak	fdt_bootargs_append_ab
	.type	fdt_bootargs_append_ab, %function
fdt_bootargs_append_ab:
.LFB227:
	.cfi_startproc
	mov	w0, -1
	ret
	.cfi_endproc
.LFE227:
	.size	fdt_bootargs_append_ab, .-fdt_bootargs_append_ab
	.section	.text.fdt_bootargs_append,"ax",@progbits
	.align	2
	.weak	fdt_bootargs_append
	.type	fdt_bootargs_append, %function
fdt_bootargs_append:
.LFB209:
	.loc 1 44 0
	.cfi_startproc
.LVL134:
	.loc 1 46 0
	mov	w0, -1
.LVL135:
	ret
	.cfi_endproc
.LFE209:
	.size	fdt_bootargs_append, .-fdt_bootargs_append
	.section	.text.spl_fit_standalone_release,"ax",@progbits
	.align	2
	.weak	spl_fit_standalone_release
	.type	spl_fit_standalone_release, %function
spl_fit_standalone_release:
.LFB219:
	.loc 1 404 0
	.cfi_startproc
.LVL136:
	.loc 1 406 0
	mov	w0, 0
.LVL137:
	ret
	.cfi_endproc
.LFE219:
	.size	spl_fit_standalone_release, .-spl_fit_standalone_release
	.section	.text.spl_kernel_partition,"ax",@progbits
	.align	2
	.weak	spl_kernel_partition
	.type	spl_kernel_partition, %function
spl_kernel_partition:
.LFB221:
	.loc 1 460 0
	.cfi_startproc
.LVL138:
	.loc 1 462 0
	adrp	x0, .LC11
.LVL139:
	add	x0, x0, :lo12:.LC11
	ret
	.cfi_endproc
.LFE221:
	.size	spl_kernel_partition, .-spl_kernel_partition
	.section	.text.spl_load_simple_fit,"ax",@progbits
	.align	2
	.global	spl_load_simple_fit
	.type	spl_load_simple_fit, %function
spl_load_simple_fit:
.LFB224:
	.loc 1 798 0
	.cfi_startproc
.LVL140:
	stp	x29, x30, [sp, -400]!
	.cfi_def_cfa_offset 400
	.cfi_offset 29, -400
	.cfi_offset 30, -392
	add	x29, sp, 0
	.cfi_def_cfa_register 29
	stp	x19, x20, [sp, 16]
	.cfi_offset 19, -384
	.cfi_offset 20, -376
	mov	x19, x0
	stp	x21, x22, [sp, 32]
	mov	x20, x1
	stp	x25, x26, [sp, 64]
	.cfi_offset 21, -368
	.cfi_offset 22, -360
	.cfi_offset 25, -336
	.cfi_offset 26, -328
	mov	x22, x2
.LVL141:
	stp	x27, x28, [sp, 80]
.LBB84:
.LBB85:
	.loc 1 614 0
	adrp	x25, .LC15
	.cfi_offset 27, -320
	.cfi_offset 28, -312
.LBE85:
.LBE84:
	.loc 1 798 0
	mov	x27, x3
.LBB98:
.LBB95:
	.loc 1 614 0
	add	x28, x25, :lo12:.LC15
.LBE95:
.LBE98:
	.loc 1 798 0
	stp	x23, x24, [sp, 48]
	.cfi_offset 23, -352
	.cfi_offset 24, -344
	.loc 1 803 0
	mov	w26, 0
	.loc 1 800 0
	mov	w21, -22
.LVL142:
.L107:
	.loc 1 804 0
	cmp	w26, 1
	bne	.L74
	.loc 1 806 0
	ldr	w1, [x20, 16]
	mov	w0, 2097152
	sdiv	w0, w0, w1
	.loc 1 805 0
	add	x22, x22, x0, sxtw
.LVL143:
	.loc 1 807 0
	adrp	x0, .LC12
	mov	x1, x22
	add	x0, x0, :lo12:.LC12
	bl	printf
.LVL144:
	.loc 1 808 0
	ldr	x4, [x20, 32]
	mov	x3, x27
	mov	x2, 1
	mov	x1, x22
	mov	x0, x20
	blr	x4
.LVL145:
	cmp	x0, 1
	beq	.L74
	.loc 1 809 0
	adrp	x0, .LC13
	add	x0, x0, :lo12:.LC13
.L139:
	.loc 1 815 0
	bl	printf
.LVL146:
.L75:
	.loc 1 803 0 discriminator 2
	add	w26, w26, 1
.LVL147:
	cmp	w26, 2
	beq	.L73
	b	.L107
.L74:
.LVL148:
	ldr	w0, [x27]
	.loc 1 814 0
	mov	w1, 65261
	movk	w1, 0xd00d, lsl 16
	rev	w0, w0
.LVL149:
	cmp	w0, w1
	beq	.L76
	.loc 1 815 0
	adrp	x0, .LC14
	add	x0, x0, :lo12:.LC14
	b	.L139
.L76:
.LVL150:
.LBB99:
.LBB96:
	.loc 1 607 0
	add	x3, x29, 160
	mov	x2, x27
	mov	x1, x22
	mov	x0, x20
	bl	spl_fit_load_blob
.LVL151:
	mov	x21, x0
.LVL152:
	.loc 1 608 0
	cbz	x0, .L77
	.loc 1 614 0
	mov	x1, x28
	bl	fdt_path_offset
.LVL153:
	mov	w24, w0
.LVL154:
	.loc 1 615 0
	tbnz	w0, #31, .L77
	.loc 1 621 0
	bl	fit_board_verify_required_sigs
.LVL155:
	mov	w23, w0
	cbz	w0, .L78
	.loc 1 623 0
	adrp	x0, .LC16
	add	x0, x0, :lo12:.LC16
	bl	printf
.LVL156:
	.loc 1 624 0
	bl	hang
.LVL157:
.L78:
	.loc 1 670 0
	mov	w3, 0
	adrp	x2, .LC17
	mov	w1, w24
	add	x2, x2, :lo12:.LC17
	mov	x0, x21
	bl	spl_fit_get_image_node
.LVL158:
	mov	w6, w0
.LVL159:
	.loc 1 672 0
	cmp	w0, 0
	ble	.L79
	.loc 1 674 0
	ldrsw	x3, [x29, 160]
	mov	w4, w0
	add	x5, x29, 264
	mov	x2, x21
	mov	x1, x22
	mov	x0, x20
.LVL160:
	bl	spl_load_fit_image
.LVL161:
	.loc 1 676 0
	cbnz	w0, .L81
	.loc 1 677 0
	ldr	x0, [x29, 288]
.LVL162:
	cmn	x0, #1
	bne	.L82
	.loc 1 678 0
	ldr	x0, [x29, 280]
	str	x0, [x29, 288]
.L82:
	.loc 1 680 0
	ldr	x1, [x29, 288]
	mov	x0, 0
	bl	spl_fit_standalone_release
.LVL163:
	.loc 1 681 0
	cbz	w0, .L81
	.loc 1 682 0
	mov	w1, w0
	adrp	x0, .LC18
.LVL164:
	add	x0, x0, :lo12:.LC18
	bl	printf
.LVL165:
.L81:
	.loc 1 697 0
	mov	w3, 0
	adrp	x2, .LC19
	mov	w1, w24
	add	x2, x2, :lo12:.LC19
	mov	x0, x21
	bl	spl_fit_get_image_node
.LVL166:
	mov	w6, w0
.LVL167:
	.loc 1 703 0
	tbz	w0, #31, .L84
	.loc 1 705 0
	mov	w3, 0
	adrp	x2, .LC20
	mov	w1, w24
	add	x2, x2, :lo12:.LC20
	mov	x0, x21
.LVL168:
	bl	spl_fit_get_image_node
.LVL169:
	mov	w6, w0
.LVL170:
	.loc 1 712 0
	tbnz	w0, #31, .L77
	.loc 1 710 0
	mov	w23, 1
	b	.L84
.LVL171:
.L79:
	.loc 1 696 0
	bne	.L81
	mov	w23, w0
.LVL172:
.L84:
	.loc 1 719 0
	ldrsw	x3, [x29, 160]
	mov	w4, w6
	str	w6, [x29, 136]
	mov	x5, x19
	mov	x2, x21
	mov	x1, x22
	mov	x0, x20
.LVL173:
	bl	spl_load_fit_image
.LVL174:
	.loc 1 721 0
	ldr	w6, [x29, 136]
	cbnz	w0, .L85
.LVL175:
.LBB86:
.LBB87:
	.loc 1 399 0
	add	x2, x19, 8
.LVL176:
	mov	w1, w6
	mov	x0, x21
.LVL177:
	bl	fit_image_get_os
.LVL178:
.LBE87:
.LBE86:
	.loc 1 728 0
	cbz	w0, .L86
	.loc 1 732 0
	mov	w0, 17
	strb	w0, [x19, 8]
.L86:
	.loc 1 739 0
	ldrb	w0, [x19, 8]
	cmp	w0, 17
	bne	.L87
	.loc 1 740 0
	ldrsw	x5, [x29, 160]
	mov	w4, w24
	mov	x3, x21
	mov	x2, x22
	mov	x1, x20
	mov	x0, x19
	bl	spl_fit_append_fdt
.LVL179:
.L87:
.LBB88:
	.loc 1 747 0
	adrp	x26, .LC20
.LVL180:
.LBB89:
.LBB90:
	.loc 1 379 0
	add	x27, x26, :lo12:.LC20
.LVL181:
.L94:
.LBE90:
.LBE89:
	.loc 1 745 0
	strb	wzr, [x29, 156]
	.loc 1 747 0
	mov	w3, w23
	add	x2, x26, :lo12:.LC20
	mov	w1, w24
	mov	x0, x21
	bl	spl_fit_get_image_node
.LVL182:
	mov	w28, w0
.LVL183:
	.loc 1 748 0
	tbnz	w0, #31, .L88
.LVL184:
.LBB92:
.LBB93:
	.loc 1 399 0
	mov	w1, w0
	add	x2, x29, 156
.LVL185:
	mov	x0, x21
.LVL186:
	bl	fit_image_get_os
.LVL187:
.LBE93:
.LBE92:
	.loc 1 755 0
	ldr	w0, [x19, 60]
	cmp	w0, 2
	bne	.L89
	ldrb	w0, [x29, 156]
	cmp	w0, 17
	beq	.L97
.L89:
	.loc 1 759 0
	ldrsw	x3, [x29, 160]
	add	x5, x29, 264
	mov	w4, w28
	mov	x2, x21
	mov	x1, x22
	mov	x0, x20
	bl	spl_load_fit_image
.LVL188:
	.loc 1 761 0
	tbnz	w0, #31, .L97
	.loc 1 764 0
	ldrb	w0, [x29, 156]
.LVL189:
	cmp	w0, 17
	bne	.L91
	.loc 1 765 0
	ldrsw	x5, [x29, 160]
	mov	w4, w24
	mov	x3, x21
	mov	x2, x22
	mov	x1, x20
	add	x0, x29, 264
	bl	spl_fit_append_fdt
.LVL190:
	.loc 1 767 0
	ldr	x0, [x29, 312]
	str	x0, [x19, 48]
.L91:
	.loc 1 774 0
	ldr	x0, [x19, 24]
	cmn	x0, #1
	bne	.L92
	.loc 1 775 0
	ldr	x0, [x29, 288]
	.loc 1 774 0
	cmn	x0, #1
	beq	.L92
	.loc 1 776 0
	str	x0, [x19, 24]
.L92:
	.loc 1 779 0
	ldr	x28, [x19, 48]
.LVL191:
	cbz	x28, .L97
.LVL192:
.LBB94:
.LBB91:
	.loc 1 379 0
	add	x3, x29, 184
	mov	w2, w23
	mov	x1, x27
	mov	x0, x21
	bl	spl_fit_get_image_name.isra.0
.LVL193:
	.loc 1 381 0
	tbnz	w0, #31, .L97
	.loc 1 384 0
	mov	w3, w23
	mov	x2, x27
	mov	w1, w24
	mov	x0, x21
.LVL194:
	bl	spl_fit_get_image_node
.LVL195:
	mov	w7, w0
.LVL196:
	.loc 1 386 0
	ldp	x10, x5, [x29, 280]
	.loc 1 388 0
	mov	w1, w0
	.loc 1 386 0
	ldr	w4, [x29, 328]
	.loc 1 388 0
	mov	x3, 0
	.loc 1 386 0
	ldr	x8, [x29, 184]
	.loc 1 388 0
	adrp	x2, .LC21
	stp	w4, w7, [x29, 128]
	add	x2, x2, :lo12:.LC21
	.loc 1 386 0
	stp	x8, x10, [x29, 104]
	.loc 1 388 0
	mov	x0, x21
.LVL197:
	.loc 1 386 0
	str	x5, [x29, 120]
	.loc 1 388 0
	bl	fdt_getprop
.LVL198:
	mov	x6, x0
	.loc 1 389 0
	ldr	w7, [x29, 132]
	mov	x3, 0
	.loc 1 388 0
	str	x6, [x29, 136]
	.loc 1 389 0
	adrp	x2, .LC22
	mov	w1, w7
	add	x2, x2, :lo12:.LC22
	mov	x0, x21
	bl	fdt_getprop
.LVL199:
	.loc 1 386 0
	mov	x7, x0
	ldp	x8, x10, [x29, 104]
	mov	w1, w23
	ldr	w4, [x29, 128]
	mov	x0, x28
	ldr	x5, [x29, 120]
	mov	x3, x10
	ldr	x6, [x29, 136]
	mov	x2, x8
	bl	fdt_record_loadable
.LVL200:
.L97:
.LBE91:
.LBE94:
.LBE88:
	.loc 1 744 0
	add	w23, w23, 1
.LVL201:
	b	.L94
.LVL202:
.L88:
	.loc 1 790 0
	ldr	x0, [x19, 24]
.LVL203:
	sub	x0, x0, #1
	cmn	x0, #3
	bls	.L96
	.loc 1 791 0
	ldr	x0, [x19, 16]
	str	x0, [x19, 24]
.L96:
.LVL204:
.LBE96:
.LBE99:
.LBB100:
.LBB101:
	.loc 1 477 0
	adrp	x0, .LC26
	add	x0, x0, :lo12:.LC26
	str	x0, [x29, 176]
.LVL205:
	.loc 1 467 0
	mov	x28, sp
	.loc 1 479 0
	ldrsw	x0, [x20, 16]
.LVL206:
	.loc 1 477 0
	adrp	x22, .LC10
.LVL207:
	adrp	x23, .LC25
	add	x22, x22, :lo12:.LC10
	.loc 1 479 0
	add	x0, x0, 15
.LVL208:
	.loc 1 477 0
	add	x23, x23, :lo12:.LC25
	.loc 1 479 0
	and	x0, x0, -16
.LVL209:
	.loc 1 477 0
	stp	x22, x23, [x29, 160]
	.loc 1 479 0
	sub	sp, sp, x0
.LVL210:
	.loc 1 486 0
	ldr	w0, [x19, 60]
	cmp	w0, 2
	bne	.L108
.LVL211:
	.loc 1 493 0
	mov	x1, x20
	mov	x0, x19
	bl	spl_kernel_partition
.LVL212:
	.loc 1 494 0
	mov	x1, x0
	ldr	x0, [x20]
.LVL213:
	add	x2, x29, 264
	bl	part_get_info_by_name
.LVL214:
	cmp	w0, 0
	bgt	.L98
	.loc 1 495 0
	adrp	x1, .LANCHOR0
	adrp	x0, .LC23
	add	x1, x1, :lo12:.LANCHOR0
	add	x0, x0, :lo12:.LC23
.L138:
	.loc 1 509 0
	mov	w21, -22
	.loc 1 508 0
	bl	printf
.LVL215:
.L99:
	mov	sp, x28
.LVL216:
.L73:
.LBE101:
.LBE100:
	.loc 1 830 0
	add	sp, x29, 0
	mov	w0, w21
	ldp	x19, x20, [sp, 16]
.LVL217:
	ldp	x21, x22, [sp, 32]
	ldp	x23, x24, [sp, 48]
	ldp	x25, x26, [sp, 64]
	ldp	x27, x28, [sp, 80]
	ldp	x29, x30, [sp], 400
	.cfi_remember_state
	.cfi_restore 30
	.cfi_restore 29
	.cfi_restore 27
	.cfi_restore 28
	.cfi_restore 25
	.cfi_restore 26
	.cfi_restore 23
	.cfi_restore 24
	.cfi_restore 21
	.cfi_restore 22
	.cfi_restore 19
	.cfi_restore 20
	.cfi_def_cfa 31, 0
	ret
.LVL218:
.L98:
	.cfi_restore_state
.LBB103:
.LBB102:
	.loc 1 502 0
	ldr	x4, [x20, 32]
	mov	x3, sp
	ldrsw	x24, [x29, 264]
	mov	x2, 1
	mov	x0, x20
	mov	x1, x24
	blr	x4
.LVL219:
	cmp	x0, 1
	bne	.L110
.LVL220:
	ldr	w1, [sp]
	.loc 1 507 0
	mov	w0, 3536
	movk	w0, 0xedfe, lsl 16
	cmp	w1, w0
	beq	.L100
	.loc 1 508 0
	adrp	x1, .LANCHOR0
	adrp	x0, .LC24
	add	x1, x1, :lo12:.LANCHOR0
	add	x0, x0, :lo12:.LC24
	b	.L138
.L100:
	.loc 1 512 0
	add	x3, x29, 156
	mov	x2, sp
	mov	x1, x24
	mov	x0, x20
	bl	spl_fit_load_blob
.LVL221:
	mov	x26, x0
.LVL222:
	.loc 1 513 0
	cbz	x0, .L111
	.loc 1 535 0
	add	x1, x25, :lo12:.LC15
	bl	fdt_path_offset
.LVL223:
	mov	w21, w0
.LVL224:
	.loc 1 536 0
	tbnz	w0, #31, .L99
	mov	x25, 0
.LVL225:
.L105:
	.loc 1 543 0
	add	x0, x29, 160
	mov	w3, 0
	mov	w1, w21
	ldr	x27, [x0, x25]
	mov	x0, x26
	mov	x2, x27
	bl	spl_fit_get_image_node
.LVL226:
	.loc 1 548 0
	tbnz	w0, #31, .L102
	.loc 1 553 0
	ldrsw	x3, [x29, 156]
	mov	w4, w0
	add	x5, x29, 184
	mov	x2, x26
	mov	x1, x24
	mov	x0, x20
.LVL227:
	bl	spl_load_fit_image
.LVL228:
	.loc 1 555 0
	cbnz	w0, .L112
	.loc 1 559 0
	mov	x1, x22
	mov	x0, x27
.LVL229:
	bl	strcmp
.LVL230:
	cbnz	w0, .L103
	.loc 1 560 0
	ldr	x0, [x29, 200]
	str	x0, [x19, 48]
.L102:
	add	x25, x25, 8
	.loc 1 542 0
	cmp	x25, 24
	bne	.L105
.LVL231:
.L108:
	.loc 1 592 0
	mov	w21, 0
	b	.L99
.LVL232:
.L103:
	.loc 1 572 0
	mov	x1, x23
	mov	x0, x27
	bl	strcmp
.LVL233:
	cbnz	w0, .L102
	.loc 1 577 0
	ldr	x0, [x29, 200]
	str	x0, [x19, 40]
	b	.L102
.LVL234:
.L110:
	.loc 1 504 0
	mov	w21, -5
	b	.L99
.LVL235:
.L111:
	.loc 1 515 0
	mov	w21, -19
	b	.L99
.LVL236:
.L112:
	.loc 1 553 0
	mov	w21, w0
.LVL237:
	b	.L99
.LVL238:
.L77:
.LBE102:
.LBE103:
.LBB104:
.LBB97:
	.loc 1 610 0
	mov	w0, -1
.L85:
.LVL239:
	mov	w21, w0
	b	.L75
.LBE97:
.LBE104:
	.cfi_endproc
.LFE224:
	.size	spl_load_simple_fit, .-spl_load_simple_fit
	.section	.rodata.__func__.6932,"a",@progbits
	.align	3
	.set	.LANCHOR0,. + 0
	.type	__func__.6932, %object
	.size	__func__.6932, 20
__func__.6932:
	.string	"spl_load_kernel_fit"
	.section	.rodata.spl_fit_append_fdt.str1.1,"aMS",@progbits,1
.LC10:
	.string	"fdt"
	.section	.rodata.spl_fit_get_image_name.isra.0.str1.1,"aMS",@progbits,1
.LC0:
	.string	"No matching DT out of these options:\n"
.LC1:
	.string	"description"
.LC2:
	.string	"   %s\n"
	.section	.rodata.spl_kernel_partition.str1.1,"aMS",@progbits,1
.LC11:
	.string	"boot"
	.section	.rodata.spl_load_fit_image.str1.1,"aMS",@progbits,1
.LC3:
	.string	"## Preload the image OK.\n"
.LC4:
	.string	"Cannot get image data/size\n"
.LC5:
	.string	"compression"
.LC6:
	.string	"## Checking %s 0x%08lx (%s @0x%08lx) ... "
.LC7:
	.string	"## Checking %s 0x%08lx ... "
.LC8:
	.string	"OK\n"
.LC9:
	.string	"entry"
	.section	.rodata.spl_load_simple_fit.str1.1,"aMS",@progbits,1
.LC12:
	.string	"Trying fit image at 0x%lx sector\n"
.LC13:
	.string	"IO error\n"
.LC14:
	.string	"Not fit magic\n"
.LC15:
	.string	"/images"
.LC16:
	.string	"Verified-boot requires CONFIG_SPL_FIT_SIGNATURE enabled\n"
.LC17:
	.string	"standalone"
.LC18:
	.string	"Start standalone fail, ret = %d\n"
.LC19:
	.string	"firmware"
.LC20:
	.string	"loadables"
.LC21:
	.string	"type"
.LC22:
	.string	"os"
.LC23:
	.string	"%s: no partition\n"
.LC24:
	.string	"%s: Not fit magic\n"
.LC25:
	.string	"kernel"
.LC26:
	.string	"ramdisk"
	.text
.Letext0:
	.file 3 "include/common.h"
	.file 4 "./arch/arm/include/asm/types.h"
	.file 5 "./arch/arm/include/asm/posix_types.h"
	.file 6 "include/linux/types.h"
	.file 7 "include/errno.h"
	.file 8 "include/linux/string.h"
	.file 9 "include/efi.h"
	.file 10 "include/blk.h"
	.file 11 "include/ide.h"
	.file 12 "include/part.h"
	.file 13 "include/flash.h"
	.file 14 "include/lmb.h"
	.file 15 "include/asm-generic/u-boot.h"
	.file 16 "./arch/arm/include/asm/u-boot-arm.h"
	.file 17 "include/linux/libfdt_env.h"
	.file 18 "include/linux/../../scripts/dtc/libfdt/fdt.h"
	.file 19 "include/linux/libfdt.h"
	.file 20 "include/net.h"
	.file 21 "include/malloc.h"
	.file 22 "./arch/arm/include/asm/spl.h"
	.file 23 "include/spl.h"
	.file 24 "include/linux/byteorder/swab.h"
	.file 25 "include/linux/../../scripts/dtc/libfdt/libfdt.h"
	.file 26 "include/fdt_support.h"
	.file 27 "include/stdio.h"
	.section	.note.GNU-stack,"",@progbits
