	.arch armv7-a
	.eabi_attribute 20, 1
	.eabi_attribute 21, 1
	.eabi_attribute 23, 3
	.eabi_attribute 24, 1
	.eabi_attribute 25, 1
	.eabi_attribute 26, 2
	.eabi_attribute 30, 4
	.eabi_attribute 34, 0
	.eabi_attribute 18, 2
	.file	"spl_fit_tb_arm_v7.c"
	.text
.Ltext0:
	.cfi_sections	.debug_frame
	.section	.text.spl_fit_get_image_name.isra.0,"ax",%progbits
	.align	1
	.syntax unified
	.thumb
	.thumb_func
	.fpu softvfp
	.type	spl_fit_get_image_name.isra.0, %function
spl_fit_get_image_name.isra.0:
.LFB227:
	.file 1 "common/spl/spl_fit_tb_arm_v7.c"
	.loc 1 60 0
	.cfi_startproc
	@ args = 0, pretend = 0, frame = 8
	@ frame_needed = 0, uses_anonymous_args = 0
.LVL0:
	push	{r0, r1, r4, r5, r6, r7, r8, lr}
	.cfi_def_cfa_offset 32
	.cfi_offset 4, -24
	.cfi_offset 5, -20
	.cfi_offset 6, -16
	.cfi_offset 7, -12
	.cfi_offset 8, -8
	.cfi_offset 14, -4
	.loc 1 60 0
	mov	r5, r0
	mov	r8, r1
	mov	r7, r2
	mov	r6, r3
	.loc 1 69 0
	bl	fit_find_config_node
.LVL1:
	.loc 1 70 0
	subs	r4, r0, #0
	bge	.L2
	.loc 1 72 0
	ldr	r0, .L11
.LVL2:
	.loc 1 76 0
	ldr	r7, .L11+4
.LVL3:
	.loc 1 77 0
	ldr	r8, .L11+8
.LVL4:
	.loc 1 72 0
	bl	printf
.LVL5:
	.loc 1 73 0
	mov	r1, r4
	mov	r0, r5
	bl	fdt_first_subnode
.LVL6:
	mov	r6, r0
.LVL7:
.L3:
	cmp	r6, #0
	bge	.L4
.LVL8:
.L1:
	.loc 1 100 0
	mov	r0, r4
	add	sp, sp, #8
	.cfi_remember_state
	.cfi_def_cfa_offset 24
	@ sp needed
	pop	{r4, r5, r6, r7, r8, pc}
.LVL9:
.L4:
	.cfi_restore_state
	.loc 1 76 0
	add	r3, sp, #4
	mov	r2, r7
	mov	r1, r6
	mov	r0, r5
.LVL10:
	bl	fdt_getprop
.LVL11:
	.loc 1 77 0
	mov	r1, r0
	mov	r0, r8
.LVL12:
	bl	printf
.LVL13:
	.loc 1 75 0
	mov	r1, r6
	mov	r0, r5
	bl	fdt_next_subnode
.LVL14:
	mov	r6, r0
.LVL15:
	b	.L3
.LVL16:
.L2:
	.loc 1 83 0
	mov	r0, r5
.LVL17:
	add	r3, sp, #4
	mov	r2, r8
	mov	r1, r4
	bl	fdt_getprop
.LVL18:
	.loc 1 84 0
	mov	r5, r0
.LVL19:
	cbz	r0, .L8
	movs	r4, #0
.LVL20:
.L6:
	.loc 1 90 0
	cmp	r4, r7
	blt	.L7
	.loc 1 98 0
	str	r0, [r6]
	.loc 1 99 0
	movs	r4, #0
.LVL21:
	b	.L1
.LVL22:
.L7:
	.loc 1 91 0
	movs	r1, #0
	bl	strchr
.LVL23:
	.loc 1 92 0
	adds	r0, r0, #1
.LVL24:
	beq	.L10
	ldr	r2, [sp, #4]
	subs	r3, r0, r5
	cmp	r3, r2
	bge	.L10
	.loc 1 90 0
	adds	r4, r4, #1
.LVL25:
	b	.L6
.LVL26:
.L8:
	.loc 1 86 0
	mvn	r4, #21
.LVL27:
	b	.L1
.LVL28:
.L10:
	.loc 1 94 0
	mvn	r4, #6
.LVL29:
	b	.L1
.L12:
	.align	2
.L11:
	.word	.LC4
	.word	.LC5
	.word	.LC6
	.cfi_endproc
.LFE227:
	.size	spl_fit_get_image_name.isra.0, .-spl_fit_get_image_name.isra.0
	.section	.text.spl_fit_get_image_node,"ax",%progbits
	.align	1
	.syntax unified
	.thumb
	.thumb_func
	.fpu softvfp
	.type	spl_fit_get_image_node, %function
spl_fit_get_image_node:
.LFB213:
	.loc 1 116 0
	.cfi_startproc
	@ args = 0, pretend = 0, frame = 8
	@ frame_needed = 0, uses_anonymous_args = 0
.LVL30:
	push	{r0, r1, r2, r4, r5, lr}
	.cfi_def_cfa_offset 24
	.cfi_offset 4, -12
	.cfi_offset 5, -8
	.cfi_offset 14, -4
	.loc 1 116 0
	mov	r5, r1
	mov	r1, r2
.LVL31:
	mov	r2, r3
.LVL32:
	.loc 1 121 0
	add	r3, sp, #4
.LVL33:
	.loc 1 116 0
	mov	r4, r0
	.loc 1 121 0
	bl	spl_fit_get_image_name.isra.0
.LVL34:
	.loc 1 122 0
	cbnz	r0, .L13
	.loc 1 127 0
	ldr	r2, [sp, #4]
	mov	r1, r5
	mov	r0, r4
.LVL35:
	bl	fdt_subnode_offset
.LVL36:
	.loc 1 128 0
	cmp	r0, #0
	.loc 1 130 0
	it	lt
	mvnlt	r0, #21
.LVL37:
.L13:
	.loc 1 134 0
	add	sp, sp, #12
	.cfi_def_cfa_offset 12
	@ sp needed
	pop	{r4, r5, pc}
	.cfi_endproc
.LFE213:
	.size	spl_fit_get_image_node, .-spl_fit_get_image_node
	.global	__aeabi_idivmod
	.global	__aeabi_idiv
	.section	.text.spl_load_fit_image,"ax",%progbits
	.align	1
	.syntax unified
	.thumb
	.thumb_func
	.fpu softvfp
	.type	spl_load_fit_image, %function
spl_load_fit_image:
.LFB217:
	.loc 1 194 0
	.cfi_startproc
	@ args = 8, pretend = 0, frame = 48
	@ frame_needed = 0, uses_anonymous_args = 0
.LVL38:
	push	{r4, r5, r6, r7, r8, r10, fp, lr}
	.cfi_def_cfa_offset 32
	.cfi_offset 4, -32
	.cfi_offset 5, -28
	.cfi_offset 6, -24
	.cfi_offset 7, -20
	.cfi_offset 8, -16
	.cfi_offset 10, -12
	.cfi_offset 11, -8
	.cfi_offset 14, -4
	sub	sp, sp, #56
	.cfi_def_cfa_offset 88
	.loc 1 194 0
	mov	r4, r2
	ldr	r5, [sp, #88]
	.loc 1 204 0
	add	r2, sp, #56
.LVL39:
	.loc 1 194 0
	mov	r7, r3
	.loc 1 204 0
	movs	r3, #255
.LVL40:
	.loc 1 194 0
	str	r1, [sp, #20]
	.loc 1 204 0
	strb	r3, [r2, #-29]!
.LVL41:
	.loc 1 221 0
	mov	r1, r5
.LVL42:
	.loc 1 208 0
	ldr	r3, [r0]
	.loc 1 194 0
	mov	r8, r0
	.loc 1 221 0
	mov	r0, r4
.LVL43:
	.loc 1 194 0
	ldr	r6, [sp, #92]
	.loc 1 208 0
	str	r3, [sp, #12]
.LVL44:
	.loc 1 221 0
	bl	fit_image_get_comp
.LVL45:
	.loc 1 224 0
	add	r2, sp, #44
	mov	r1, r5
	mov	r0, r4
	bl	fit_image_get_load
.LVL46:
	cbz	r0, .L17
	.loc 1 225 0
	ldr	r3, [r6, #8]
	str	r3, [sp, #44]
.L17:
	.loc 1 227 0
	ldrb	r3, [sp, #27]	@ zero_extendqisi2
	cmp	r3, #0
	beq	.L18
	.loc 1 227 0 is_stmt 0 discriminator 1
	cmp	r3, #6
	beq	.L18
	.loc 1 229 0 is_stmt 1
	add	r2, sp, #40
	mov	r1, r5
	mov	r0, r4
	bl	fit_image_get_comp_addr
.LVL47:
	cbz	r0, .L19
	.loc 1 230 0
	ldr	r3, [sp, #44]
	add	r3, r3, #1048576
.L70:
	.loc 1 232 0
	str	r3, [sp, #40]
.L19:
	.loc 1 235 0
	add	r2, sp, #28
	mov	r1, r5
	mov	r0, r4
	bl	fit_image_get_data_position
.LVL48:
	cbz	r0, .L20
	.loc 1 237 0
	add	r2, sp, #28
	mov	r1, r5
	mov	r0, r4
	bl	fit_image_get_data_offset
.LVL49:
	cmp	r0, #0
	bne	.L21
	.loc 1 238 0
	ldr	r3, [sp, #28]
	add	r7, r7, r3
.LVL50:
	str	r7, [sp, #28]
.LVL51:
.L20:
	.loc 1 244 0
	add	r2, sp, #36
	mov	r1, r5
	mov	r0, r4
	bl	fit_image_get_data_size
.LVL52:
	cmp	r0, #0
	bne	.L40
	.loc 1 247 0
	ldr	r7, [sp, #40]
	adds	r7, r7, #63
	bic	r3, r7, #63
	.loc 1 249 0
	cmp	r3, #-50331648
	.loc 1 247 0
	str	r3, [sp, #8]
.LVL53:
	.loc 1 249 0
	bcc	.L22
	.loc 1 251 0
	ldr	r1, [sp, #36]
	movs	r0, #64
	bl	memalign_simple
.LVL54:
	str	r0, [sp, #8]
.LVL55:
.L22:
.LBB36:
.LBB37:
	.loc 1 157 0
	ldr	r3, [r8, #12]
.LBE37:
.LBE36:
	.loc 1 253 0
	ldr	r10, [sp, #36]
	.loc 1 255 0
	ldr	r0, [sp, #28]
	.loc 1 253 0
	str	r10, [sp, #32]
.LVL56:
.LBB40:
.LBB38:
	.loc 1 157 0
	cmp	r3, #0
	beq	.L23
	.loc 1 158 0
	and	fp, r0, #63
.LVL57:
.L24:
.LBE38:
.LBE40:
.LBB41:
.LBB42:
	.loc 1 166 0
	add	r10, r10, fp
.LVL58:
	.loc 1 168 0
	cbnz	r3, .L25
	.loc 1 171 0
	ldr	r1, [r8, #8]
	add	r0, r10, r1
	subs	r0, r0, #1
	bl	__aeabi_idiv
.LVL59:
	mov	r10, r0
.LVL60:
.L25:
.LBE42:
.LBE41:
	.loc 1 259 0
	mov	r1, r5
	mov	r0, r4
	bl	fit_image_is_preload
.LVL61:
	.loc 1 261 0
	str	r0, [sp, #16]
	cbz	r0, .L26
	.loc 1 262 0
	ldr	r2, [sp, #12]
	movs	r3, #1
	strb	r3, [r2, #14]
.L26:
	.loc 1 264 0
	ldr	r3, [r8, #16]
	.loc 1 265 0
	ldr	r0, [sp, #28]
.LVL62:
	.loc 1 264 0
	mov	r7, r3
.LBB43:
.LBB44:
	.loc 1 143 0
	ldr	r3, [r8, #12]
	cmp	r3, #0
	beq	.L27
	.loc 1 144 0
	bic	r0, r0, #63
.LVL63:
.L28:
.LBE44:
.LBE43:
	.loc 1 264 0
	ldr	r1, [sp, #20]
	mov	r2, r10
	ldr	r3, [sp, #8]
	add	r1, r1, r0
	mov	r0, r8
	blx	r7
.LVL64:
	cmp	r10, r0
	bne	.L37
	.loc 1 271 0
	ldr	r3, [sp, #8]
	add	r3, r3, fp
	str	r3, [sp, #48]
	.loc 1 272 0
	ldr	r3, [sp, #16]
	cbz	r3, .L30
	.loc 1 273 0
	ldr	r3, [sp, #12]
	ldr	r2, [sp, #12]
	.loc 1 274 0
	ldr	r0, .L72
	.loc 1 273 0
	ldrb	r3, [r3, #14]	@ zero_extendqisi2
	bic	r3, r3, #1
	strb	r3, [r2, #14]
	.loc 1 274 0
	bl	printf
.LVL65:
.L31:
	.loc 1 327 0
	cbz	r6, .L71
	.loc 1 328 0
	ldr	r3, [sp, #44]
	.loc 1 330 0
	mov	r1, r5
	ldr	r2, .L72+4
	mov	r0, r4
	.loc 1 328 0
	str	r3, [r6, #8]
	.loc 1 329 0
	ldr	r3, [sp, #32]
	str	r3, [r6, #32]
	.loc 1 330 0
	bl	fdt_getprop_u32
.LVL66:
	str	r0, [r6, #12]
.L71:
	.loc 1 333 0
	movs	r0, #0
.LVL67:
.L16:
	.loc 1 334 0
	add	sp, sp, #56
	.cfi_remember_state
	.cfi_def_cfa_offset 32
	@ sp needed
	pop	{r4, r5, r6, r7, r8, r10, fp, pc}
.LVL68:
.L18:
	.cfi_restore_state
	.loc 1 232 0
	ldr	r3, [sp, #44]
	b	.L70
.LVL69:
.L23:
.LBB46:
.LBB39:
	.loc 1 160 0
	ldr	r1, [r8, #8]
	str	r3, [sp, #16]
	bl	__aeabi_idivmod
.LVL70:
	ldr	r3, [sp, #16]
	mov	fp, r1
	b	.L24
.LVL71:
.L27:
.LBE39:
.LBE46:
.LBB47:
.LBB45:
	.loc 1 146 0
	ldr	r1, [r8, #8]
	bl	__aeabi_idiv
.LVL72:
	b	.L28
.LVL73:
.L68:
.LBE45:
.LBE47:
	.loc 1 285 0
	ldr	r3, [sp, #52]
	str	r3, [sp, #48]
.LVL74:
.L30:
	.loc 1 289 0
	ldrb	r3, [sp, #27]	@ zero_extendqisi2
.LBB48:
.LBB49:
	.file 2 "include/image.h"
	.loc 2 1005 0
	movs	r2, #0
	mov	r1, r5
	mov	r0, r4
.LBE49:
.LBE48:
	.loc 1 289 0
	cbz	r3, .L32
.LVL75:
	.loc 1 289 0 is_stmt 0 discriminator 1
	cmp	r3, #6
	beq	.L32
.LVL76:
.LBB52:
.LBB50:
	.loc 2 1005 0 is_stmt 1
	bl	fdt_get_name
.LVL77:
.LBE50:
.LBE52:
	.loc 1 292 0
	movs	r3, #0
.LBB53:
.LBB51:
	.loc 2 1005 0
	mov	r7, r0
.LVL78:
.LBE51:
.LBE53:
	.loc 1 292 0
	ldr	r2, .L72+8
	mov	r1, r5
	mov	r0, r4
	.loc 1 290 0
	ldr	r10, [sp, #44]
	.loc 1 292 0
	bl	fdt_getprop
.LVL79:
	.loc 1 290 0
	ldr	r3, [sp, #48]
	mov	r1, r7
	mov	r2, r10
	str	r3, [sp]
	mov	r3, r0
	ldr	r0, .L72+12
	bl	printf
.LVL80:
.L33:
	.loc 1 302 0
	ldr	r3, [sp, #32]
	mov	r1, r5
	ldr	r2, [sp, #48]
	mov	r0, r4
	bl	fit_image_verify_with_data
.LVL81:
	cbz	r0, .L38
	.loc 1 307 0
	add	r3, sp, #32
	add	r2, sp, #44
	mov	r1, r5
	str	r3, [sp]
	mov	r0, r4
	add	r3, sp, #48
	str	r8, [sp, #4]
	bl	board_fit_image_post_process
.LVL82:
	.loc 1 310 0
	ldr	r0, .L72+16
	bl	puts
.LVL83:
	.loc 1 324 0
	ldr	r2, [sp, #32]
	ldr	r1, [sp, #48]
	ldr	r0, [sp, #44]
	bl	memcpy
.LVL84:
	b	.L31
.LVL85:
.L32:
.LBB54:
.LBB55:
	.loc 2 1005 0
	bl	fdt_get_name
.LVL86:
.LBE55:
.LBE54:
	.loc 1 295 0
	ldr	r2, [sp, #44]
	mov	r1, r0
	ldr	r0, .L72+20
	bl	printf
.LVL87:
	b	.L33
.LVL88:
.L37:
	.loc 1 267 0
	mvn	r0, #4
	b	.L16
.LVL89:
.L38:
	.loc 1 304 0
	mov	r0, #-1
	b	.L16
.LVL90:
.L21:
	.loc 1 279 0
	add	r3, sp, #32
	add	r2, sp, #52
	mov	r1, r5
	mov	r0, r4
	bl	fit_image_get_data
.LVL91:
	cmp	r0, #0
	beq	.L68
	.loc 1 280 0
	ldr	r0, .L72+24
	bl	puts
.LVL92:
.L40:
	.loc 1 245 0
	mvn	r0, #1
.LVL93:
	b	.L16
.L73:
	.align	2
.L72:
	.word	.LC7
	.word	.LC13
	.word	.LC9
	.word	.LC10
	.word	.LC12
	.word	.LC11
	.word	.LC8
	.cfi_endproc
.LFE217:
	.size	spl_load_fit_image, .-spl_load_fit_image
	.section	.text.spl_fit_append_fdt,"ax",%progbits
	.align	1
	.syntax unified
	.thumb
	.thumb_func
	.fpu softvfp
	.type	spl_fit_append_fdt, %function
spl_fit_append_fdt:
.LFB218:
	.loc 1 339 0
	.cfi_startproc
	@ args = 8, pretend = 0, frame = 48
	@ frame_needed = 0, uses_anonymous_args = 0
.LVL94:
	push	{r4, r5, r6, r7, lr}
	.cfi_def_cfa_offset 20
	.cfi_offset 4, -20
	.cfi_offset 5, -16
	.cfi_offset 6, -12
	.cfi_offset 7, -8
	.cfi_offset 14, -4
	mov	r5, r3
	sub	sp, sp, #60
	.cfi_def_cfa_offset 80
	.loc 1 339 0
	mov	r4, r0
	mov	r6, r1
	mov	r7, r2
	.loc 1 344 0
	movs	r3, #0
.LVL95:
	ldr	r2, .L76
.LVL96:
	ldr	r1, [sp, #80]
.LVL97:
	mov	r0, r5
.LVL98:
	bl	spl_fit_get_image_node
.LVL99:
	.loc 1 345 0
	cmp	r0, #0
	blt	.L74
	.loc 1 354 0
	ldr	r2, [r4, #32]
	.loc 1 355 0
	mov	r1, r7
	.loc 1 354 0
	ldr	r3, [r4, #8]
	add	r3, r3, r2
	.loc 1 355 0
	mov	r2, r5
	.loc 1 354 0
	str	r3, [sp, #20]
	.loc 1 355 0
	add	r3, sp, #12
	stm	sp, {r0, r3}
	mov	r0, r6
.LVL100:
	ldr	r3, [sp, #84]
	bl	spl_load_fit_image
.LVL101:
	.loc 1 358 0
	cmp	r0, #0
	blt	.L74
	.loc 1 362 0
	ldr	r0, [sp, #20]
.LVL102:
	.loc 1 365 0
	mov	r1, #8192
	.loc 1 362 0
	str	r0, [r4, #20]
	.loc 1 365 0
	bl	fdt_shrink_to_minimum
.LVL103:
.L74:
	.loc 1 369 0
	add	sp, sp, #60
	.cfi_def_cfa_offset 20
	@ sp needed
	pop	{r4, r5, r6, r7, pc}
.LVL104:
.L77:
	.align	2
.L76:
	.word	.LC0
	.cfi_endproc
.LFE218:
	.size	spl_fit_append_fdt, .-spl_fit_append_fdt
	.section	.text.spl_fit_load_blob,"ax",%progbits
	.align	1
	.syntax unified
	.thumb
	.thumb_func
	.fpu softvfp
	.type	spl_fit_load_blob, %function
spl_fit_load_blob:
.LFB222:
	.loc 1 411 0
	.cfi_startproc
	@ args = 0, pretend = 0, frame = 0
	@ frame_needed = 0, uses_anonymous_args = 0
.LVL105:
	ldr	r2, [r2, #4]
.LVL106:
	push	{r3, r4, r5, r6, r7, lr}
	.cfi_def_cfa_offset 24
	.cfi_offset 3, -24
	.cfi_offset 4, -20
	.cfi_offset 5, -16
	.cfi_offset 6, -12
	.cfi_offset 7, -8
	.cfi_offset 14, -4
	.loc 1 411 0
	mov	r4, r0
	mov	r5, r1
	rev	r2, r2
.LVL107:
	.loc 1 424 0
	addw	r2, r2, #511
.LVL108:
	.loc 1 425 0
	bic	r0, r2, #510
.LVL109:
	bic	r0, r0, #1
	str	r0, [r3]
	.loc 1 444 0
	ldr	r3, .L81
.LVL110:
	ldr	r1, [r4, #8]
.LVL111:
	subs	r3, r3, r1
	subs	r3, r3, r0
	.loc 1 445 0
	bic	r6, r3, #63
.LVL112:
.LBB62:
.LBB63:
	.loc 1 168 0
	ldr	r3, [r4, #12]
	cbnz	r3, .L79
	.loc 1 171 0
	add	r0, r0, r1
.LVL113:
	subs	r0, r0, #1
	bl	__aeabi_idiv
.LVL114:
.L79:
.LBE63:
.LBE62:
	.loc 1 447 0
	mov	r2, r0
	ldr	r7, [r4, #16]
	mov	r3, r6
	mov	r1, r5
	mov	r0, r4
	blx	r7
.LVL115:
	.loc 1 450 0
	cmp	r0, #0
	.loc 1 454 0
	ite	ne
	movne	r0, r6
.LVL116:
	moveq	r0, #0
	pop	{r3, r4, r5, r6, r7, pc}
.LVL117:
.L82:
	.align	2
.L81:
	.word	6291393
	.cfi_endproc
.LFE222:
	.size	spl_fit_load_blob, .-spl_fit_load_blob
	.section	.text.fit_config_verify,"ax",%progbits
	.align	1
	.weak	fit_config_verify
	.syntax unified
	.thumb
	.thumb_func
	.fpu softvfp
	.type	fit_config_verify, %function
fit_config_verify:
.LFB207:
	.loc 1 24 0
	.cfi_startproc
	@ args = 0, pretend = 0, frame = 0
	@ frame_needed = 0, uses_anonymous_args = 0
	@ link register save eliminated.
.LVL118:
	.loc 1 26 0
	movs	r0, #0
.LVL119:
	bx	lr
	.cfi_endproc
.LFE207:
	.size	fit_config_verify, .-fit_config_verify
	.section	.text.mtd_part_parse,"ax",%progbits
	.align	1
	.weak	mtd_part_parse
	.syntax unified
	.thumb
	.thumb_func
	.fpu softvfp
	.type	mtd_part_parse, %function
mtd_part_parse:
.LFB208:
	.loc 1 29 0
	.cfi_startproc
	@ args = 0, pretend = 0, frame = 0
	@ frame_needed = 0, uses_anonymous_args = 0
	@ link register save eliminated.
.LVL120:
	.loc 1 31 0
	movs	r0, #0
.LVL121:
	bx	lr
	.cfi_endproc
.LFE208:
	.size	mtd_part_parse, .-mtd_part_parse
	.section	.text.spl_get_current_slot,"ax",%progbits
	.align	1
	.weak	spl_get_current_slot
	.syntax unified
	.thumb
	.thumb_func
	.fpu softvfp
	.type	spl_get_current_slot, %function
spl_get_current_slot:
.LFB209:
	.loc 1 34 0
	.cfi_startproc
	@ args = 0, pretend = 0, frame = 0
	@ frame_needed = 0, uses_anonymous_args = 0
	@ link register save eliminated.
.LVL122:
	.loc 1 36 0
	mov	r0, #-1
.LVL123:
	bx	lr
	.cfi_endproc
.LFE209:
	.size	spl_get_current_slot, .-spl_get_current_slot
	.section	.text.fdt_bootargs_append_ab,"ax",%progbits
	.align	1
	.weak	fdt_bootargs_append_ab
	.syntax unified
	.thumb
	.thumb_func
	.fpu softvfp
	.type	fdt_bootargs_append_ab, %function
fdt_bootargs_append_ab:
.LFB229:
	.cfi_startproc
	@ args = 0, pretend = 0, frame = 0
	@ frame_needed = 0, uses_anonymous_args = 0
	@ link register save eliminated.
	mov	r0, #-1
	bx	lr
	.cfi_endproc
.LFE229:
	.size	fdt_bootargs_append_ab, .-fdt_bootargs_append_ab
	.section	.text.fdt_bootargs_append,"ax",%progbits
	.align	1
	.weak	fdt_bootargs_append
	.syntax unified
	.thumb
	.thumb_func
	.fpu softvfp
	.type	fdt_bootargs_append, %function
fdt_bootargs_append:
.LFB211:
	.loc 1 44 0
	.cfi_startproc
	@ args = 0, pretend = 0, frame = 0
	@ frame_needed = 0, uses_anonymous_args = 0
	@ link register save eliminated.
.LVL124:
	.loc 1 46 0
	mov	r0, #-1
.LVL125:
	bx	lr
	.cfi_endproc
.LFE211:
	.size	fdt_bootargs_append, .-fdt_bootargs_append
	.section	.text.spl_fit_standalone_release,"ax",%progbits
	.align	1
	.weak	spl_fit_standalone_release
	.syntax unified
	.thumb
	.thumb_func
	.fpu softvfp
	.type	spl_fit_standalone_release, %function
spl_fit_standalone_release:
.LFB221:
	.loc 1 404 0
	.cfi_startproc
	@ args = 0, pretend = 0, frame = 0
	@ frame_needed = 0, uses_anonymous_args = 0
	@ link register save eliminated.
.LVL126:
	.loc 1 406 0
	movs	r0, #0
.LVL127:
	bx	lr
	.cfi_endproc
.LFE221:
	.size	spl_fit_standalone_release, .-spl_fit_standalone_release
	.section	.text.spl_kernel_partition,"ax",%progbits
	.align	1
	.weak	spl_kernel_partition
	.syntax unified
	.thumb
	.thumb_func
	.fpu softvfp
	.type	spl_kernel_partition, %function
spl_kernel_partition:
.LFB223:
	.loc 1 460 0
	.cfi_startproc
	@ args = 0, pretend = 0, frame = 0
	@ frame_needed = 0, uses_anonymous_args = 0
	@ link register save eliminated.
.LVL128:
	.loc 1 462 0
	ldr	r0, .L90
.LVL129:
	bx	lr
.L91:
	.align	2
.L90:
	.word	.LC14
	.cfi_endproc
.LFE223:
	.size	spl_kernel_partition, .-spl_kernel_partition
	.section	.text.spl_load_simple_fit,"ax",%progbits
	.align	1
	.global	spl_load_simple_fit
	.syntax unified
	.thumb
	.thumb_func
	.fpu softvfp
	.type	spl_load_simple_fit, %function
spl_load_simple_fit:
.LFB226:
	.loc 1 798 0
	.cfi_startproc
	@ args = 0, pretend = 0, frame = 248
	@ frame_needed = 1, uses_anonymous_args = 0
.LVL130:
	push	{r4, r5, r6, r7, r8, r10, fp, lr}
	.cfi_def_cfa_offset 32
	.cfi_offset 4, -32
	.cfi_offset 5, -28
	.cfi_offset 6, -24
	.cfi_offset 7, -20
	.cfi_offset 8, -16
	.cfi_offset 10, -12
	.cfi_offset 11, -8
	.cfi_offset 14, -4
	sub	sp, sp, #264
	.cfi_def_cfa_offset 296
	add	r7, sp, #16
	.cfi_def_cfa 7, 280
.LVL131:
	.loc 1 798 0
	mov	r6, r1
	mov	r4, r0
	str	r2, [r7, #28]
.LVL132:
	mov	r2, r3
.LVL133:
	ldr	r3, [r3]
.LVL134:
	.loc 1 814 0
	ldr	r1, .L155
.LVL135:
	rev	r3, r3
.LVL136:
	cmp	r3, r1
	str	r1, [r7]
	beq	.L93
	.loc 1 815 0
	ldr	r0, .L155+4
.LVL137:
.L154:
.LBB84:
.LBB85:
	.loc 1 633 0
	bl	printf
.LVL138:
	.loc 1 634 0
	mvn	r0, #21
.LVL139:
.L92:
.LBE85:
.LBE84:
	.loc 1 830 0
	adds	r7, r7, #248
	.cfi_remember_state
	.cfi_def_cfa_offset 32
	mov	sp, r7
	.cfi_def_cfa_register 13
	@ sp needed
	pop	{r4, r5, r6, r7, r8, r10, fp, pc}
.LVL140:
.L93:
	.cfi_restore_state
.LBB95:
.LBB93:
	.loc 1 607 0
	add	r3, r7, #36
	ldr	r1, [r7, #28]
	mov	r0, r6
.LVL141:
	bl	spl_fit_load_blob
.LVL142:
	.loc 1 608 0
	mov	r5, r0
	cmp	r0, #0
	beq	.L95
	.loc 1 614 0
	ldr	r1, .L155+8
	bl	fdt_path_offset
.LVL143:
	.loc 1 615 0
	subs	r10, r0, #0
	blt	.L95
	.loc 1 621 0
	bl	fit_board_verify_required_sigs
.LVL144:
	.loc 1 631 0
	movs	r1, #0
	mov	r0, r5
	bl	fit_conf_get_node
.LVL145:
	.loc 1 632 0
	subs	r1, r0, #0
	bgt	.L96
	.loc 1 633 0
	ldr	r0, .L155+12
.LVL146:
	b	.L154
.LVL147:
.L96:
	.loc 1 637 0
	mov	r0, r5
.LVL148:
	bl	fit_config_verify
.LVL149:
	.loc 1 638 0
	mov	r8, r0
	cbz	r0, .L98
	.loc 1 639 0
	mov	r1, r0
	ldr	r0, .L155+16
.LVL150:
	bl	printf
.LVL151:
	mov	r0, r8
	b	.L92
.L98:
	.loc 1 642 0
	ldr	r0, .L155+20
	bl	printf
.LVL152:
	.loc 1 670 0
	mov	r3, r8
	ldr	r2, .L155+24
	mov	r1, r10
	mov	r0, r5
	bl	spl_fit_get_image_node
.LVL153:
	.loc 1 672 0
	subs	fp, r0, #0
	ble	.L99
	.loc 1 674 0
	add	r3, r7, #92
	str	fp, [sp]
	str	r3, [sp, #4]
	mov	r2, r5
	ldr	r3, [r7, #36]
	mov	r0, r6
.LVL154:
	ldr	r1, [r7, #28]
	bl	spl_load_fit_image
.LVL155:
	.loc 1 676 0
	cbnz	r0, .L101
	.loc 1 677 0
	ldr	r3, [r7, #104]
	.loc 1 680 0
	movs	r0, #0
.LVL156:
	.loc 1 677 0
	adds	r3, r3, #1
	.loc 1 678 0
	itt	eq
	ldreq	r3, [r7, #100]
	streq	r3, [r7, #104]
	.loc 1 680 0
	ldr	r1, [r7, #104]
	bl	spl_fit_standalone_release
.LVL157:
	.loc 1 681 0
	mov	r1, r0
	cbz	r0, .L101
	.loc 1 682 0
	ldr	r0, .L155+28
.LVL158:
	bl	printf
.LVL159:
.L101:
	.loc 1 697 0
	movs	r3, #0
	ldr	r2, .L155+32
	mov	r1, r10
	mov	r0, r5
	bl	spl_fit_get_image_node
.LVL160:
	.loc 1 703 0
	subs	fp, r0, #0
	bge	.L104
	.loc 1 705 0
	movs	r3, #0
	ldr	r2, .L155+36
	mov	r1, r10
	mov	r0, r5
.LVL161:
	bl	spl_fit_get_image_node
.LVL162:
	.loc 1 712 0
	subs	fp, r0, #0
	blt	.L95
	.loc 1 710 0
	mov	r8, #1
	b	.L104
.LVL163:
.L99:
	.loc 1 696 0
	bne	.L101
	mov	r8, fp
.LVL164:
.L104:
	.loc 1 719 0
	str	r4, [sp, #4]
	mov	r2, r5
	str	fp, [sp]
	mov	r0, r6
.LVL165:
	ldr	r3, [r7, #36]
	ldr	r1, [r7, #28]
	bl	spl_load_fit_image
.LVL166:
	.loc 1 721 0
	cmp	r0, #0
	bne	.L92
.LVL167:
.LBB86:
.LBB87:
	.loc 1 399 0
	adds	r2, r4, #4
.LVL168:
	mov	r1, fp
	mov	r0, r5
.LVL169:
	bl	fit_image_get_os
.LVL170:
.LBE87:
.LBE86:
	.loc 1 728 0
	cbz	r0, .L105
	.loc 1 732 0
	movs	r3, #17
	strb	r3, [r4, #4]
.L105:
	.loc 1 739 0
	ldrb	r3, [r4, #4]	@ zero_extendqisi2
	cmp	r3, #17
	bne	.L113
	.loc 1 740 0
	ldr	r3, [r7, #36]
	mov	r1, r6
	str	r10, [sp]
	mov	r0, r4
	str	r3, [sp, #4]
	mov	r3, r5
	ldr	r2, [r7, #28]
	bl	spl_fit_append_fdt
.LVL171:
.L113:
.LBB88:
	.loc 1 745 0
	movs	r3, #0
	.loc 1 747 0
	ldr	r2, .L155+36
	.loc 1 745 0
	strb	r3, [r7, #32]
	.loc 1 747 0
	mov	r1, r10
	mov	r3, r8
	mov	r0, r5
	bl	spl_fit_get_image_node
.LVL172:
	.loc 1 748 0
	subs	r3, r0, #0
	blt	.L107
.LVL173:
.LBB89:
.LBB90:
	.loc 1 399 0
	add	r2, r7, #32
.LVL174:
	mov	r1, r3
	mov	r0, r5
.LVL175:
	str	r3, [r7, #24]
	bl	fit_image_get_os
.LVL176:
.LBE90:
.LBE89:
	.loc 1 755 0
	ldr	r2, [r4, #28]
	ldr	r3, [r7, #24]
	cmp	r2, #2
	bne	.L108
	ldrb	r2, [r7, #32]	@ zero_extendqisi2
	cmp	r2, #17
	beq	.L116
.L108:
	.loc 1 759 0
	add	fp, r7, #92
	mov	r2, r5
	stm	sp, {r3, fp}
	mov	r0, r6
	ldr	r3, [r7, #36]
	ldr	r1, [r7, #28]
	bl	spl_load_fit_image
.LVL177:
	.loc 1 761 0
	cmp	r0, #0
	blt	.L116
	.loc 1 764 0
	ldrb	r3, [r7, #32]	@ zero_extendqisi2
	cmp	r3, #17
	bne	.L110
	.loc 1 765 0
	ldr	r3, [r7, #36]
	mov	r1, r6
	str	r10, [sp]
	mov	r0, fp
.LVL178:
	str	r3, [sp, #4]
	mov	r3, r5
	ldr	r2, [r7, #28]
	bl	spl_fit_append_fdt
.LVL179:
	.loc 1 767 0
	ldr	r3, [r7, #112]
	str	r3, [r4, #20]
.L110:
	.loc 1 774 0
	ldr	r3, [r4, #12]
	adds	r3, r3, #1
	bne	.L111
	.loc 1 775 0
	ldr	r3, [r7, #104]
	.loc 1 774 0
	adds	r2, r3, #1
	.loc 1 776 0
	it	ne
	strne	r3, [r4, #12]
.L111:
	.loc 1 779 0
	ldr	r3, [r4, #20]
	str	r3, [r7, #24]
.LVL180:
	cmp	r3, #0
	beq	.L116
.LVL181:
.LBB91:
.LBB92:
	.loc 1 379 0
	add	r3, r7, #48
.LVL182:
	mov	r2, r8
	ldr	r1, .L155+36
	mov	r0, r5
	bl	spl_fit_get_image_name.isra.0
.LVL183:
	.loc 1 381 0
	cmp	r0, #0
	blt	.L116
	.loc 1 384 0
	mov	r3, r8
	ldr	r2, .L155+36
	mov	r1, r10
	mov	r0, r5
.LVL184:
	bl	spl_fit_get_image_node
.LVL185:
	.loc 1 386 0
	ldr	r3, [r7, #48]
	.loc 1 388 0
	mov	r1, r0
	.loc 1 384 0
	mov	fp, r0
.LVL186:
	.loc 1 388 0
	ldr	r2, .L155+40
	mov	r0, r5
.LVL187:
	.loc 1 386 0
	str	r3, [r7, #20]
	ldr	r3, [r7, #100]
	str	r3, [r7, #16]
	ldr	r3, [r7, #124]
	str	r3, [r7, #12]
	ldr	r3, [r7, #104]
	str	r3, [r7, #8]
	.loc 1 388 0
	movs	r3, #0
	bl	fdt_getprop
.LVL188:
	.loc 1 389 0
	movs	r3, #0
	.loc 1 388 0
	str	r0, [r7, #4]
	.loc 1 389 0
	ldr	r2, .L155+44
	mov	r1, fp
	mov	r0, r5
	bl	fdt_getprop
.LVL189:
	.loc 1 386 0
	str	r0, [sp, #12]
	mov	r1, r8
	ldr	r3, [r7, #4]
	str	r3, [sp, #8]
	ldr	r3, [r7, #8]
	str	r3, [sp, #4]
	ldr	r3, [r7, #12]
	str	r3, [sp]
	ldr	r3, [r7, #16]
	ldr	r2, [r7, #20]
	ldr	r0, [r7, #24]
	bl	fdt_record_loadable
.LVL190:
.L116:
.LBE92:
.LBE91:
.LBE88:
	.loc 1 744 0
	add	r8, r8, #1
.LVL191:
	b	.L113
.LVL192:
.L107:
	.loc 1 790 0
	ldr	r3, [r4, #12]
	subs	r3, r3, #1
	adds	r3, r3, #3
	bls	.L115
	.loc 1 791 0
	ldr	r3, [r4, #8]
	str	r3, [r4, #12]
.L115:
.LVL193:
.LBE93:
.LBE95:
.LBB96:
.LBB97:
	.loc 1 477 0
	ldr	r3, .L155+48
	.loc 1 467 0
	str	sp, [r7, #20]
	.loc 1 477 0
	ldm	r3, {r0, r1, r2}
	add	r3, r7, #36
	stm	r3, {r0, r1, r2}
.LVL194:
	.loc 1 479 0
	ldr	r3, [r6, #8]
	adds	r3, r3, #7
	bic	r3, r3, #7
	sub	sp, sp, r3
.LVL195:
	.loc 1 486 0
	ldr	r3, [r4, #28]
	.loc 1 479 0
	add	r8, sp, #16
.LVL196:
	.loc 1 486 0
	cmp	r3, #2
	bne	.L127
.LVL197:
	.loc 1 493 0
	mov	r1, r6
	mov	r0, r4
	bl	spl_kernel_partition
.LVL198:
	.loc 1 494 0
	add	r2, r7, #92
	mov	r1, r0
	ldr	r0, [r6]
.LVL199:
	bl	part_get_info_by_name
.LVL200:
	cmp	r0, #0
	bgt	.L117
	.loc 1 495 0
	ldr	r1, .L155+52
	ldr	r0, .L155+56
.LVL201:
.L152:
	.loc 1 508 0
	bl	printf
.LVL202:
.L153:
	.loc 1 509 0
	mvn	r3, #21
.L118:
.LBE97:
.LBE96:
	.loc 1 825 0
	mov	r0, r3
.LBB102:
.LBB100:
	ldr	sp, [r7, #20]
.LVL203:
.LBE100:
.LBE102:
	b	.L92
.LVL204:
.L117:
.LBB103:
.LBB101:
	.loc 1 498 0
	ldr	r3, [r7, #92]
	.loc 1 502 0
	movs	r2, #1
	ldr	r5, [r6, #16]
	mov	r0, r6
	.loc 1 498 0
	str	r3, [r7, #28]
.LVL205:
	.loc 1 502 0
	mov	r3, r8
.LVL206:
	ldr	r1, [r7, #28]
	blx	r5
.LVL207:
	cmp	r0, #1
	bne	.L129
.LVL208:
	ldr	r3, [r8]
	.loc 1 507 0
	ldr	r2, [r7]
	rev	r3, r3
.LVL209:
	cmp	r3, r2
	beq	.L119
	.loc 1 508 0
	ldr	r1, .L155+52
	ldr	r0, .L155+60
	b	.L152
.L119:
	.loc 1 512 0
	mov	r2, r8
	add	r3, r7, #32
	ldr	r1, [r7, #28]
	mov	r0, r6
	bl	spl_fit_load_blob
.LVL210:
	.loc 1 513 0
	mov	r8, r0
.LVL211:
	cmp	r0, #0
	beq	.L130
	.loc 1 522 0
	movs	r1, #0
	bl	fit_conf_get_node
.LVL212:
	.loc 1 523 0
	subs	r1, r0, #0
	bgt	.L120
	.loc 1 524 0
	ldr	r0, .L155+12
.LVL213:
	bl	printf
.LVL214:
	b	.L153
.LVL215:
.L120:
	.loc 1 528 0
	mov	r0, r8
.LVL216:
	bl	fit_config_verify
.LVL217:
	.loc 1 529 0
	cbz	r0, .L121
	.loc 1 530 0
	mov	r1, r0
	str	r0, [r7, #28]
.LVL218:
	ldr	r0, .L155+16
.LVL219:
	bl	printf
.LVL220:
	ldr	r3, [r7, #28]
	b	.L118
.L156:
	.align	2
.L155:
	.word	-804389139
	.word	.LC15
	.word	.LC16
	.word	.LC17
	.word	.LC18
	.word	.LC19
	.word	.LC20
	.word	.LC21
	.word	.LC22
	.word	.LC23
	.word	.LC24
	.word	.LC25
	.word	.LANCHOR1
	.word	.LANCHOR0
	.word	.LC26
	.word	.LC27
.LVL221:
.L121:
	str	r0, [r7, #16]
	.loc 1 533 0
	ldr	r0, .L157
.LVL222:
	bl	printf
.LVL223:
	.loc 1 535 0
	ldr	r1, .L157+4
	mov	r0, r8
	bl	fdt_path_offset
.LVL224:
	.loc 1 536 0
	subs	r3, r0, #0
	str	r3, [r7, #24]
	blt	.L131
	ldr	r3, [r7, #16]
	mov	r5, r3
.LVL225:
.L126:
.LBB98:
	.loc 1 543 0
	add	r3, r7, #36
	ldr	r1, [r7, #24]
	ldr	r10, [r3, r5, lsl #2]
	mov	r0, r8
	movs	r3, #0
	mov	r2, r10
	bl	spl_fit_get_image_node
.LVL226:
	.loc 1 548 0
	cmp	r0, #0
	blt	.L123
	.loc 1 553 0
	add	r3, r7, #48
	.loc 1 546 0
	ldr	fp, [r6]
	.loc 1 553 0
	mov	r2, r8
	stm	sp, {r0, r3}
	mov	r0, r6
.LVL227:
	ldr	r3, [r7, #32]
	ldr	r1, [r7, #28]
	bl	spl_load_fit_image
.LVL228:
	.loc 1 555 0
	mov	r3, r0
	cmp	r0, #0
	bne	.L118
	.loc 1 559 0
	ldr	r1, .L157+8
	mov	r0, r10
.LVL229:
	bl	strcmp
.LVL230:
	cbnz	r0, .L124
	.loc 1 569 0
	ldr	r3, [fp, #4]
	.loc 1 560 0
	ldr	r10, [r7, #56]
	.loc 1 569 0
	cmp	r3, #1
	.loc 1 560 0
	str	r10, [r4, #20]
	.loc 1 569 0
	bne	.L123
	.loc 1 570 0
	mov	r0, fp
	bl	mtd_part_parse
.LVL231:
	mov	r1, r0
	mov	r0, r10
	bl	fdt_bootargs_append
.LVL232:
.L123:
.LBE98:
	.loc 1 542 0
	adds	r5, r5, #1
.LVL233:
	cmp	r5, #3
	bne	.L126
.LVL234:
.L127:
	.loc 1 592 0
	movs	r3, #0
	b	.L118
.LVL235:
.L124:
.LBB99:
	.loc 1 572 0
	ldr	r1, .L157+12
	mov	r0, r10
	bl	strcmp
.LVL236:
	cmp	r0, #0
	bne	.L123
	.loc 1 574 0
	ldr	r3, [r7, #56]
	str	r3, [r4, #16]
	b	.L123
.LVL237:
.L129:
.LBE99:
	.loc 1 504 0
	mvn	r3, #4
	b	.L118
.LVL238:
.L130:
	.loc 1 515 0
	mvn	r3, #18
	b	.L118
.LVL239:
.L131:
	.loc 1 536 0
	ldr	r3, [r7, #24]
	b	.L118
.LVL240:
.L95:
.LBE101:
.LBE103:
.LBB104:
.LBB94:
	.loc 1 610 0
	mov	r0, #-1
.LVL241:
	b	.L92
.L158:
	.align	2
.L157:
	.word	.LC19
	.word	.LC16
	.word	.LC0
	.word	.LC1
.LBE94:
.LBE104:
	.cfi_endproc
.LFE226:
	.size	spl_load_simple_fit, .-spl_load_simple_fit
	.section	.rodata
	.align	2
	.set	.LANCHOR1,. + 0
.LC28:
	.word	.LC0
	.word	.LC1
	.word	.LC2
	.section	.rodata.__func__.9395,"a",%progbits
	.set	.LANCHOR0,. + 0
	.type	__func__.9395, %object
	.size	__func__.9395, 20
__func__.9395:
	.ascii	"spl_load_kernel_fit\000"
	.section	.rodata.spl_fit_get_image_name.isra.0.str1.1,"aMS",%progbits,1
.LC4:
	.ascii	"No matching DT out of these options:\012\000"
.LC5:
	.ascii	"description\000"
.LC6:
	.ascii	"   %s\012\000"
	.section	.rodata.spl_kernel_partition.str1.1,"aMS",%progbits,1
.LC14:
	.ascii	"boot\000"
	.section	.rodata.spl_load_fit_image.str1.1,"aMS",%progbits,1
.LC7:
	.ascii	"## Preload the image OK.\012\000"
.LC8:
	.ascii	"Cannot get image data/size\012\000"
.LC9:
	.ascii	"compression\000"
.LC10:
	.ascii	"## Checking %s 0x%08lx (%s @0x%08lx) ... \000"
.LC11:
	.ascii	"## Checking %s 0x%08lx ... \000"
.LC12:
	.ascii	"OK\012\000"
.LC13:
	.ascii	"entry\000"
	.section	.rodata.spl_load_simple_fit.str1.1,"aMS",%progbits,1
.LC15:
	.ascii	"Not fit magic\012\000"
.LC16:
	.ascii	"/images\000"
.LC17:
	.ascii	"No default config node\012\000"
.LC18:
	.ascii	"fit verify configure failed, ret=%d\012\000"
.LC19:
	.ascii	"\012\000"
.LC20:
	.ascii	"standalone\000"
.LC21:
	.ascii	"Start standalone fail, ret = %d\012\000"
.LC22:
	.ascii	"firmware\000"
.LC23:
	.ascii	"loadables\000"
.LC24:
	.ascii	"type\000"
.LC25:
	.ascii	"os\000"
.LC26:
	.ascii	"%s: no partition\012\000"
.LC27:
	.ascii	"%s: Not fit magic\012\000"
	.section	.rodata.str1.1,"aMS",%progbits,1
.LC0:
	.ascii	"fdt\000"
.LC1:
	.ascii	"kernel\000"
.LC2:
	.ascii	"ramdisk\000"
	.text
.Letext0:
	.file 3 "include/common.h"
	.file 4 "./arch/arm/include/asm/types.h"
	.file 5 "./arch/arm/include/asm/posix_types.h"
	.file 6 "include/linux/types.h"
	.file 7 "include/errno.h"
	.file 8 "include/linux/string.h"
	.file 9 "include/efi.h"
	.file 10 "include/blk.h"
	.file 11 "include/ide.h"
	.file 12 "include/part.h"
	.file 13 "include/flash.h"
	.file 14 "include/lmb.h"
	.file 15 "include/asm-generic/u-boot.h"
	.file 16 "./arch/arm/include/asm/u-boot-arm.h"
	.file 17 "include/linux/libfdt_env.h"
	.file 18 "include/linux/../../scripts/dtc/libfdt/fdt.h"
	.file 19 "include/linux/libfdt.h"
	.file 20 "include/u-boot/sha1.h"
	.file 21 "include/u-boot/sha256.h"
	.file 22 "include/net.h"
	.file 23 "include/malloc.h"
	.file 24 "./arch/arm/include/asm/spl.h"
	.file 25 "include/spl.h"
	.file 26 "include/linux/byteorder/swab.h"
	.file 27 "include/linux/../../scripts/dtc/libfdt/libfdt.h"
	.file 28 "include/fdt_support.h"
	.file 29 "include/stdio.h"
	.section	.note.GNU-stack,"",%progbits
