/* SPDX-License-Identifier: GPL-2.0+ OR BSD-3-Clause */
/*
 * Copyright (C) 2019 Rockchip Electronics Co., Ltd.
 */

	.arch armv8-a+nosimd
	.file	"ddr_test_code.c"
	.text
.Ltext0:
	.cfi_sections	.debug_frame
	.section	.text.crosstalk,"ax",@progbits
	.align	2
	.global	crosstalk
	.type	crosstalk, %function
crosstalk:
.LFB201:
	.file 1 "cmd/ddr_tool/crosstalk.c"
	.loc 1 46 0
	.cfi_startproc
.LVL0:
	stp	x29, x30, [sp, -144]!
	.cfi_def_cfa_offset 144
	.cfi_offset 29, -144
	.cfi_offset 30, -136
	add	x29, sp, 0
	.cfi_def_cfa_register 29
	stp	x21, x22, [sp, 32]
	.cfi_offset 21, -112
	.cfi_offset 22, -104
	.loc 1 66 0
	adrp	x22, .LC2
	.loc 1 46 0
	stp	x23, x24, [sp, 48]
	.cfi_offset 23, -96
	.cfi_offset 24, -88
	mov	x23, x0
	stp	x19, x20, [sp, 16]
	mov	x24, x1
	stp	x25, x26, [sp, 64]
	.loc 1 63 0
	adrp	x0, .LC1
.LVL1:
	.loc 1 46 0
	stp	x27, x28, [sp, 80]
	.cfi_offset 19, -128
	.cfi_offset 20, -120
	.cfi_offset 25, -80
	.cfi_offset 26, -72
	.cfi_offset 27, -64
	.cfi_offset 28, -56
	.loc 1 63 0
	add	x0, x0, :lo12:.LC1
	bl	printf
.LVL2:
	.loc 1 71 0
	add	x21, x29, 112
	.loc 1 66 0
	add	x0, x22, :lo12:.LC2
	.loc 1 68 0
	adrp	x25, .LC3
	.loc 1 66 0
	str	x0, [x29, 104]
	.loc 1 64 0
	mov	w20, 0
	.loc 1 68 0
	add	x0, x25, :lo12:.LC3
	str	x0, [x29, 96]
.LVL3:
.L6:
	.loc 1 66 0
	ldr	x0, [x29, 104]
	.loc 1 71 0
	mov	w26, 1
	.loc 1 66 0
	mov	w1, w20
	.loc 1 71 0
	lsl	w26, w26, w20
	.loc 1 65 0
	mov	w28, -1
	.loc 1 67 0
	mov	w27, 0
	.loc 1 66 0
	bl	printf
.LVL4:
.L5:
	.loc 1 68 0
	ldr	x0, [x29, 96]
	mov	w1, w27
	.loc 1 69 0
	mvn	w28, w28
.LVL5:
	mov	x19, 0
	.loc 1 68 0
	bl	printf
.LVL6:
.L2:
	.loc 1 71 0 discriminator 3
	eor	w0, w26, w28
	str	w0, [x19, x21]
	add	x19, x19, 4
	.loc 1 72 0 discriminator 3
	mvn	w28, w28
.LVL7:
	.loc 1 70 0 discriminator 3
	cmp	x19, 32
	bne	.L2
	.loc 1 74 0
	mov	w1, w19
	mov	x0, x21
	bl	data_cpu_2_io
.LVL8:
	.loc 1 75 0
	mov	x3, x24
	mov	x2, x23
	mov	w1, w19
	mov	x0, x21
	bl	write_buf_to_ddr
.LVL9:
	.loc 1 76 0
	mov	w4, 1
	mov	x3, x24
	mov	x2, x23
	mov	w1, w19
	mov	x0, x21
	bl	cmp_buf_data
.LVL10:
	cbz	x0, .L3
.LVL11:
.L11:
	.loc 1 78 0
	mov	w0, -1
.L1:
	.loc 1 111 0
	ldp	x19, x20, [sp, 16]
	ldp	x21, x22, [sp, 32]
	ldp	x23, x24, [sp, 48]
.LVL12:
	ldp	x25, x26, [sp, 64]
	ldp	x27, x28, [sp, 80]
	ldp	x29, x30, [sp], 144
	.cfi_remember_state
	.cfi_restore 30
	.cfi_restore 29
	.cfi_restore 27
	.cfi_restore 28
	.cfi_restore 25
	.cfi_restore 26
	.cfi_restore 23
	.cfi_restore 24
	.cfi_restore 21
	.cfi_restore 22
	.cfi_restore 19
	.cfi_restore 20
	.cfi_def_cfa 31, 0
	ret
.LVL13:
.L3:
	.cfi_restore_state
	.loc 1 67 0 discriminator 2
	add	w27, w27, 1
.LVL14:
	cmp	w27, 2
	bne	.L5
	.loc 1 64 0 discriminator 2
	add	w20, w20, 1
.LVL15:
	cmp	w20, 32
	bne	.L6
	.loc 1 85 0
	adrp	x0, .LC4
	add	x0, x0, :lo12:.LC4
	bl	printf
.LVL16:
	.loc 1 86 0
	mov	x0, 128
	bl	malloc
.LVL17:
	mov	x21, x0
.LVL18:
	.loc 1 87 0
	cbnz	x0, .L7
	.loc 1 88 0
	adrp	x0, .LC5
.LVL19:
	mov	x1, 128
	add	x0, x0, :lo12:.LC5
	bl	printf
.LVL20:
.L7:
	adrp	x26, .LANCHOR0
	.loc 1 91 0
	add	x27, x22, :lo12:.LC2
.LVL21:
	.loc 1 93 0
	add	x25, x25, :lo12:.LC3
	.loc 1 98 0
	add	x26, x26, :lo12:.LANCHOR0
	.loc 1 69 0
	mov	w20, 0
.LVL22:
.L14:
	.loc 1 92 0
	mov	w22, 0
	.loc 1 96 0
	mov	w28, 1
	.loc 1 91 0
	mov	w1, w20
	mov	x0, x27
	bl	printf
.LVL23:
.L13:
	.loc 1 93 0
	mov	w1, w22
	mov	x0, x25
	bl	printf
.LVL24:
	.loc 1 96 0
	mov	x19, 0
	lsl	w1, w28, w22
.LVL25:
.L10:
	ldr	w0, [x19, x26]
	.loc 1 95 0
	cbz	w20, .L8
	.loc 1 96 0
	eor	w0, w0, w1
.L8:
	.loc 1 98 0
	str	w0, [x21, x19]
	add	x19, x19, 4
	.loc 1 94 0
	cmp	x19, 128
	bne	.L10
	.loc 1 100 0
	mov	w1, w19
	mov	x0, x21
	bl	data_cpu_2_io
.LVL26:
	.loc 1 101 0
	mov	x3, x24
	mov	x2, x23
	mov	w1, w19
	mov	x0, x21
	bl	write_buf_to_ddr
.LVL27:
	.loc 1 103 0
	mov	w4, 1
	mov	x3, x24
	mov	x2, x23
	mov	w1, w19
	mov	x0, x21
	bl	cmp_buf_data
.LVL28:
	cbnz	x0, .L11
	.loc 1 106 0
	cbz	w20, .L12
	.loc 1 92 0 discriminator 2
	add	w22, w22, 1
.LVL29:
	cmp	w22, 32
	bne	.L13
.L12:
	.loc 1 90 0 discriminator 2
	add	w20, w20, 1
.LVL30:
	cmp	w20, 2
	bne	.L14
	.loc 1 110 0
	mov	w0, 0
	b	.L1
	.cfi_endproc
.LFE201:
	.size	crosstalk, .-crosstalk
	.section	.text.set_ddr_freq,"ax",@progbits
	.align	2
	.weak	set_ddr_freq
	.type	set_ddr_freq, %function
set_ddr_freq:
.LFB254:
	.file 2 "cmd/ddr_tool/ddr_tool.c"
	.loc 2 45 0
	.cfi_startproc
.LVL31:
	.loc 2 47 0
	mov	w0, 0
.LVL32:
	ret
	.cfi_endproc
.LFE254:
	.size	set_ddr_freq, .-set_ddr_freq
	.section	.text.set_vdd_logic,"ax",@progbits
	.align	2
	.weak	set_vdd_logic
	.type	set_vdd_logic, %function
set_vdd_logic:
.LFB255:
	.loc 2 50 0
	.cfi_startproc
.LVL33:
	.loc 2 52 0
	mov	w0, -1
.LVL34:
	ret
	.cfi_endproc
.LFE255:
	.size	set_vdd_logic, .-set_vdd_logic
	.section	.text.diagonalscan,"ax",@progbits
	.align	2
	.global	diagonalscan
	.type	diagonalscan, %function
diagonalscan:
.LFB269:
	.file 3 "cmd/ddr_tool/diagonalscan.c"
	.loc 3 16 0
	.cfi_startproc
.LVL35:
	stp	x29, x30, [sp, -112]!
	.cfi_def_cfa_offset 112
	.cfi_offset 29, -112
	.cfi_offset 30, -104
	.loc 3 19 0
	mov	x2, 32
	.loc 3 16 0
	add	x29, sp, 0
	.cfi_def_cfa_register 29
	stp	x21, x22, [sp, 32]
	.cfi_offset 21, -80
	.cfi_offset 22, -72
	mov	x22, x1
	stp	x23, x24, [sp, 48]
	.cfi_offset 23, -64
	.cfi_offset 24, -56
	sub	x23, x1, #32
	.loc 3 19 0
	adrp	x1, .LANCHOR1
.LVL36:
	add	x1, x1, :lo12:.LANCHOR1
	.loc 3 16 0
	stp	x19, x20, [sp, 16]
	stp	x25, x26, [sp, 64]
	.cfi_offset 19, -96
	.cfi_offset 20, -88
	.cfi_offset 25, -48
	.cfi_offset 26, -40
	.loc 3 16 0
	mov	x25, x0
	.loc 3 19 0
	add	x0, x29, 80
.LVL37:
	bl	memcpy
.LVL38:
	.loc 3 24 0
	adrp	x0, .LC6
	add	x0, x0, :lo12:.LC6
	bl	printf
.LVL39:
	.loc 3 25 0
	bl	get_page_size
.LVL40:
	sxtw	x19, w0
.LVL41:
	.loc 3 27 0
	tbz	w19, #31, .L28
	.loc 3 28 0
	mov	w1, w19
	adrp	x0, .LC7
	add	x0, x0, :lo12:.LC7
	bl	printf
.LVL42:
	.loc 3 29 0
	mov	w0, -1
.L31:
.LVL43:
.L27:
	.loc 3 64 0
	ldp	x19, x20, [sp, 16]
.LVL44:
	ldp	x21, x22, [sp, 32]
	ldp	x23, x24, [sp, 48]
	ldp	x25, x26, [sp, 64]
.LVL45:
	ldp	x29, x30, [sp], 112
	.cfi_remember_state
	.cfi_restore 30
	.cfi_restore 29
	.cfi_restore 25
	.cfi_restore 26
	.cfi_restore 23
	.cfi_restore 24
	.cfi_restore 21
	.cfi_restore 22
	.cfi_restore 19
	.cfi_restore 20
	.cfi_def_cfa 31, 0
	ret
.LVL46:
.L28:
	.cfi_restore_state
	.loc 3 40 0
	lsr	x22, x22, 1
.LVL47:
	add	x23, x25, x23
.LVL48:
	mov	w21, 0
	mov	x20, 0
	.loc 3 37 0
	mov	w1, 32
	add	x0, x29, 80
	bl	data_cpu_2_io
.LVL49:
	.loc 3 39 0
	mov	x2, 32
	add	x1, x29, 80
	mov	x0, x25
	bl	memcpy
.LVL50:
.L30:
	.loc 3 40 0 discriminator 1
	cmp	x20, x22
	bcc	.L34
	mov	x0, 0
.LVL51:
	.loc 3 63 0
	b	.L27
.LVL52:
.L34:
	.loc 3 41 0
	uxtw	x24, w21
	mov	x2, 32
	sub	x26, x23, x24
	add	x1, x29, 80
	mov	x0, x26
	bl	memcpy
.LVL53:
	.loc 3 44 0
	add	x2, x20, x25
	.loc 3 43 0
	mov	x3, 32
	mov	w4, 1
	add	x2, x2, x24
	mov	w1, w3
	add	x0, x29, 80
	bl	cmp_buf_data
.LVL54:
	.loc 3 45 0
	cbnz	x0, .L27
	.loc 3 48 0
	add	x24, x24, 40
	add	x20, x20, x19
.LVL55:
	cmp	x19, x24
	add	w21, w21, 8
.LVL56:
	csel	w21, w21, wzr, cs
.LVL57:
	.loc 3 50 0
	cmp	x22, x20
	bls	.L33
	.loc 3 51 0
	add	x0, x25, x20
.LVL58:
	mov	x2, 32
	add	x1, x29, 80
	add	x0, x0, x21, uxtw
	bl	memcpy
.LVL59:
.L33:
	.loc 3 53 0
	mov	x3, 32
	mov	w4, 1
	mov	x2, x26
	mov	w1, w3
	add	x0, x29, 80
	sub	x23, x23, x19
	bl	cmp_buf_data
.LVL60:
	.loc 3 56 0
	cbz	x0, .L30
	b	.L27
	.cfi_endproc
.LFE269:
	.size	diagonalscan, .-diagonalscan
	.section	.text.random_test,"ax",@progbits
	.align	2
	.global	random_test
	.type	random_test, %function
random_test:
.LFB272:
	.file 4 "cmd/ddr_tool/random_test.c"
	.loc 4 97 0
	.cfi_startproc
.LVL61:
	stp	x29, x30, [sp, -112]!
	.cfi_def_cfa_offset 112
	.cfi_offset 29, -112
	.cfi_offset 30, -104
.LBB10:
.LBB11:
	.loc 4 19 0
	mov	x2, x1
.LBE11:
.LBE10:
	.loc 4 97 0
	add	x29, sp, 0
	.cfi_def_cfa_register 29
	stp	x19, x20, [sp, 16]
	.cfi_offset 19, -96
	.cfi_offset 20, -88
	mov	x20, x1
	stp	x21, x22, [sp, 32]
	mov	x19, x0
.LVL62:
	stp	x23, x24, [sp, 48]
.LBB16:
.LBB12:
	.loc 4 19 0
	mov	w1, -2139062144
.LVL63:
.LBE12:
.LBE16:
	.loc 4 97 0
	stp	x27, x28, [sp, 80]
	.cfi_offset 21, -80
	.cfi_offset 22, -72
	.cfi_offset 23, -64
	.cfi_offset 24, -56
	.cfi_offset 27, -32
	.cfi_offset 28, -24
.LBB17:
.LBB13:
	.loc 4 24 0
	adrp	x24, .LC8
.LBE13:
.LBE17:
	.loc 4 97 0
	stp	x25, x26, [sp, 64]
	.cfi_offset 25, -48
	.cfi_offset 26, -40
.LBB18:
.LBB14:
	.loc 4 19 0
	bl	memset
.LVL64:
	.loc 4 25 0
	lsr	x0, x20, 2
	.loc 4 24 0
	add	x24, x24, :lo12:.LC8
	.loc 4 25 0
	str	x0, [x29, 104]
	.loc 4 15 0
	mov	w27, 0
	.loc 4 41 0
	adrp	x0, .LC9
	.loc 4 21 0
	mov	w23, 1077952576
	.loc 4 41 0
	add	x0, x0, :lo12:.LC9
	.loc 4 20 0
	mov	w21, -2139062144
	.loc 4 23 0
	mov	w22, 0
	.loc 4 41 0
	str	x0, [x29, 96]
.LVL65:
.L43:
	.loc 4 24 0
	mov	w1, w22
	mov	x0, x24
	bl	printf
.LVL66:
	.loc 4 25 0
	mov	w1, 0
.LVL67:
.L38:
	ldr	x2, [x29, 104]
	uxtw	x0, w1
	cmp	x0, x2
	bcc	.L42
.LVL68:
.L41:
	.loc 4 41 0
	ldr	x0, [x29, 96]
	.loc 4 23 0
	add	w22, w22, 1
.LVL69:
	.loc 4 39 0
	lsr	w23, w23, 1
.LVL70:
	.loc 4 40 0
	lsr	w21, w21, 1
.LVL71:
	.loc 4 41 0
	bl	printf
.LVL72:
	.loc 4 23 0
	cmp	w22, 8
	bne	.L43
	mov	x28, -1
	b	.L40
.LVL73:
.L42:
	.loc 4 26 0
	lsl	x0, x0, 2
	add	x5, x19, x0
	ldr	w26, [x19, x0]
	.loc 4 27 0
	cmp	w26, w21
	beq	.L39
	.loc 4 28 0
	mov	x28, x5
.LVL74:
	.loc 4 29 0
	add	x1, x5, 4
.LVL75:
	mov	x0, x5
	bl	flush_dcache_range
.LVL76:
	.loc 4 37 0
	cmn	x28, #1
	.loc 4 32 0
	ldr	w27, [x28]
	.loc 4 37 0
	beq	.L41
.LVL77:
.L40:
	.loc 4 43 0
	adrp	x0, .LC10
	add	x0, x0, :lo12:.LC10
	bl	printf
.LVL78:
	.loc 4 44 0
	cmn	x28, #1
	beq	.L44
	.loc 4 45 0
	adrp	x0, .LC11
	mov	w4, w21
	mov	w3, w27
	mov	w2, w26
	mov	x1, x28
	add	x0, x0, :lo12:.LC11
	bl	printf
.LVL79:
.L57:
.LBE14:
.LBE18:
.LBB19:
.LBB20:
	.loc 4 91 0
	mov	w0, -1
.L37:
.LBE20:
.LBE19:
	.loc 4 105 0
	ldp	x19, x20, [sp, 16]
.LVL80:
	ldp	x21, x22, [sp, 32]
	ldp	x23, x24, [sp, 48]
	ldp	x25, x26, [sp, 64]
	ldp	x27, x28, [sp, 80]
	ldp	x29, x30, [sp], 112
	.cfi_remember_state
	.cfi_restore 30
	.cfi_restore 29
	.cfi_restore 27
	.cfi_restore 28
	.cfi_restore 25
	.cfi_restore 26
	.cfi_restore 23
	.cfi_restore 24
	.cfi_restore 21
	.cfi_restore 22
	.cfi_restore 19
	.cfi_restore 20
	.cfi_def_cfa 31, 0
	ret
.LVL81:
.L39:
	.cfi_restore_state
.LBB22:
.LBB15:
	.loc 4 35 0
	str	w23, [x19, x0]
	.loc 4 25 0
	add	w1, w1, 1
.LVL82:
	b	.L38
.LVL83:
.L44:
.LBE15:
.LBE22:
.LBB23:
.LBB21:
	.loc 4 64 0
	adrp	x26, .LC12
	.loc 4 84 0
	adrp	x24, .LC13
	.loc 4 72 0
	lsr	x28, x20, 3
	.loc 4 64 0
	add	x26, x26, :lo12:.LC12
	.loc 4 84 0
	add	x24, x24, :lo12:.LC13
	.loc 4 72 0
	mov	x27, 0
	mov	x21, 0
.LVL84:
.L51:
	.loc 4 64 0
	mov	x1, x21
	mov	x0, x26
	bl	printf
.LVL85:
	.loc 4 66 0
	lsl	x22, x21, 24
	lsl	x0, x21, 8
	orr	x22, x22, x21, lsl 32
	orr	x0, x0, x21, lsl 16
	.loc 4 70 0
	mov	x2, x20
	.loc 4 66 0
	orr	x22, x22, x0
	lsl	x0, x21, 40
	orr	x0, x0, x21, lsl 48
	orr	x22, x22, x0
	orr	x0, x21, x21, lsl 56
	orr	x22, x22, x0
.LVL86:
	.loc 4 70 0
	mov	x0, x19
	mov	w1, w22
	bl	memset
.LVL87:
	.loc 4 72 0
	mov	x0, 0
.LVL88:
.L46:
	cmp	x0, x28
	bne	.L50
.LVL89:
.L49:
	.loc 4 84 0
	mov	x0, x24
	.loc 4 63 0
	add	x21, x21, 1
.LVL90:
	.loc 4 84 0
	bl	printf
.LVL91:
	.loc 4 63 0
	cmp	x21, 256
	bne	.L51
	mov	x23, -1
	b	.L48
.LVL92:
.L50:
	lsl	x1, x0, 3
	add	x23, x1, x19
	.loc 4 73 0
	ldr	x25, [x1, x19]
.LVL93:
	.loc 4 74 0
	cmp	x22, x25
	beq	.L47
.LVL94:
	.loc 4 76 0
	add	x1, x23, 4
	mov	x0, x23
.LVL95:
	bl	flush_dcache_range
.LVL96:
	.loc 4 78 0
	ldr	x27, [x23]
.LVL97:
	.loc 4 82 0
	cmn	x23, #1
	beq	.L49
.LVL98:
.L48:
	.loc 4 86 0
	adrp	x0, .LC14
	add	x0, x0, :lo12:.LC14
	bl	printf
.LVL99:
	.loc 4 93 0
	mov	w0, 0
	.loc 4 87 0
	cmn	x23, #1
	beq	.L37
	.loc 4 88 0
	mov	x4, x22
	mov	x3, x27
	mov	x2, x25
	mov	x1, x23
	adrp	x0, .LC15
	add	x0, x0, :lo12:.LC15
	bl	printf
.LVL100:
	b	.L57
.LVL101:
.L47:
	.loc 4 72 0
	add	x0, x0, 1
.LVL102:
	b	.L46
.LBE21:
.LBE23:
	.cfi_endproc
.LFE272:
	.size	random_test, .-random_test
	.section	.text.do_ddr_test,"ax",@progbits
	.align	2
	.type	do_ddr_test, %function
do_ddr_test:
.LFB257:
	.loc 2 100 0
	.cfi_startproc
.LVL103:
	stp	x29, x30, [sp, -224]!
	.cfi_def_cfa_offset 224
	.cfi_offset 29, -224
	.cfi_offset 30, -216
	.loc 2 113 0
	adrp	x0, .LC16
.LVL104:
	add	x0, x0, :lo12:.LC16
	.loc 2 100 0
	add	x29, sp, 0
	.cfi_def_cfa_register 29
	stp	x19, x20, [sp, 16]
	.cfi_offset 19, -208
	.cfi_offset 20, -200
	.loc 2 115 0
	add	x20, x29, 152
	.loc 2 100 0
	stp	x21, x22, [sp, 32]
	.cfi_offset 21, -192
	.cfi_offset 22, -184
	.loc 2 115 0
	add	x21, x29, 120
	.loc 2 100 0
	stp	x25, x26, [sp, 64]
	.cfi_offset 25, -160
	.cfi_offset 26, -152
	mov	w26, w2
	stp	x27, x28, [sp, 80]
	.cfi_offset 27, -144
	.cfi_offset 28, -136
	mov	x27, x3
	stp	x23, x24, [sp, 48]
	.cfi_offset 23, -176
	.cfi_offset 24, -168
	.loc 2 103 0
	stp	xzr, xzr, [x29, 184]
	stp	xzr, xzr, [x29, 200]
	str	xzr, [x29, 216]
.LVL105:
	.loc 2 113 0
	bl	printf
.LVL106:
	.loc 2 115 0
	mov	w2, 1
	mov	x1, x20
	mov	x0, x21
	bl	get_print_available_addr
.LVL107:
	.loc 2 117 0
	cmp	w26, 1
	ble	.L143
	.loc 2 121 0
	adrp	x24, .LANCHOR2
	add	x28, x24, :lo12:.LANCHOR2
	mov	x19, 0
.L61:
	ldr	x1, [x28, x19, lsl 3]
	mov	w25, w19
.LVL108:
	ldr	x0, [x27, 8]
	bl	strcasecmp
.LVL109:
	mov	w23, w0
	cbz	w0, .L60
.LVL110:
	add	x19, x19, 1
.LVL111:
	.loc 2 120 0 discriminator 2
	cmp	x19, 7
	bne	.L61
	.loc 2 128 0
	adrp	x0, .LC25
	add	x0, x0, :lo12:.LC25
	b	.L144
.LVL112:
.L96:
	.loc 2 133 0
	adrp	x0, .LC17
	add	x0, x0, :lo12:.LC17
.LVL113:
.L144:
	.loc 2 128 0
	bl	printf
.LVL114:
.L143:
	.loc 2 129 0
	mov	w23, -1
	b	.L58
.LVL115:
.L64:
	.loc 2 138 0
	add	x0, x27, x28
	add	x1, x29, 184
	add	x2, x1, x28
	mov	w1, 0
	add	x28, x28, 8
	ldr	x0, [x0, 16]
	bl	strict_strtoul
.LVL116:
	tbz	w0, #31, .L63
	.loc 2 139 0
	adrp	x0, .LC18
	add	x0, x0, :lo12:.LC18
	b	.L144
.L65:
	.loc 2 164 0
	cmp	w25, 1
	bne	.L68
	.loc 2 166 0
	ldr	x0, [x29, 208]
	cbz	x0, .L67
	.loc 2 167 0
	bl	set_vdd_logic
.LVL117:
	b	.L67
.L68:
	.loc 2 169 0
	sub	w19, w19, #5
.LVL118:
	cmp	w19, 1
	bhi	.L70
	.loc 2 171 0
	ldr	x0, [x29, 208]
	cbz	x0, .L71
	.loc 2 172 0
	bl	set_vdd_logic
.LVL119:
.L71:
	.loc 2 173 0
	cmp	w25, 5
	bne	.L72
	.loc 2 175 0
	mov	x1, 65535
	mov	x0, 0
	movk	x1, 0x9f, lsl 16
.L75:
.LVL120:
	ldr	x2, [x20, x0, lsl 3]
	cmp	x2, x1
	bls	.L73
	.loc 2 176 0
	mov	w1, w0
.LVL121:
	.loc 2 185 0
	mov	x2, 10485760
	str	x2, [x20, w0, uxtw 3]
.LVL122:
.L74:
	.loc 2 108 0 discriminator 1
	mov	x0, 0
.LVL123:
.L78:
	.loc 2 188 0
	cmp	w1, w0
	beq	.L77
	.loc 2 190 0
	str	xzr, [x21, x0, lsl 3]
	.loc 2 191 0
	str	xzr, [x20, x0, lsl 3]
.L77:
.LVL124:
	add	x0, x0, 1
.LVL125:
	.loc 2 187 0 discriminator 2
	cmp	x0, 4
	bne	.L78
.L72:
	.loc 2 201 0
	adrp	x26, .LC20
	.loc 2 205 0
	adrp	x27, .LC21
.LVL126:
	.loc 2 201 0
	add	x26, x26, :lo12:.LC20
	.loc 2 205 0
	add	x27, x27, :lo12:.LC21
	mov	w25, 0
.LVL127:
.L84:
	.loc 2 199 0
	ldr	x0, [x29, 200]
	cbz	x0, .L85
	.loc 2 199 0 is_stmt 0 discriminator 1
	cmp	x0, x25, uxtw
	bls	.L67
.L85:
	.loc 2 201 0 is_stmt 1
	mov	x28, 0
	.loc 2 200 0
	add	w25, w25, 1
.LVL128:
	.loc 2 201 0
	mov	w1, w25
	mov	x0, x26
	bl	printf
.LVL129:
.L82:
	.loc 2 203 0
	ldr	x3, [x20, x28, lsl 3]
	cbz	x3, .L79
	.loc 2 205 0
	ldr	x2, [x21, x28, lsl 3]
	mov	w1, w28
	mov	x0, x27
	bl	printf
.LVL130:
	.loc 2 207 0
	ldr	x0, [x29, 192]
	bl	set_ddr_freq
.LVL131:
	.loc 2 208 0
	ldr	x1, [x20, x28, lsl 3]
	ldr	x0, [x21, x28, lsl 3]
	bl	random_test
.LVL132:
	mov	w19, w0
.LVL133:
	.loc 2 210 0
	cbnz	w0, .L98
	.loc 2 211 0
	ldr	x1, [x20, x28, lsl 3]
	ldr	x0, [x21, x28, lsl 3]
.LVL134:
	bl	crosstalk
.LVL135:
	mov	w19, w0
.LVL136:
	.loc 2 215 0
	cbnz	w0, .L99
	.loc 2 216 0
	ldr	x1, [x20, x28, lsl 3]
	ldr	x0, [x21, x28, lsl 3]
.LVL137:
	bl	diagonalscan
.LVL138:
	.loc 2 218 0
	cmp	w0, 0
	.loc 2 216 0
	mov	w19, w0
.LVL139:
	.loc 2 218 0
	mov	w0, 4
.LVL140:
	csinc	w22, w0, wzr, ne
.LVL141:
.L80:
	.loc 2 226 0
	ldr	x0, [x29, 184]
	bl	set_ddr_freq
.LVL142:
	.loc 2 227 0
	cbnz	w19, .L101
.LVL143:
	.loc 2 228 0
	ldr	x1, [x20, x28, lsl 3]
	ldr	x0, [x21, x28, lsl 3]
	bl	random_test
.LVL144:
	mov	w2, w0
.LVL145:
	.loc 2 232 0
	cbnz	w0, .L102
	.loc 2 233 0
	ldr	x1, [x20, x28, lsl 3]
	ldr	x0, [x21, x28, lsl 3]
.LVL146:
	str	w2, [x29, 104]
	bl	crosstalk
.LVL147:
	mov	w22, w0
.LVL148:
	.loc 2 237 0
	ldr	w2, [x29, 104]
	cbnz	w0, .L103
	.loc 2 238 0
	ldr	x1, [x20, x28, lsl 3]
	ldr	x0, [x21, x28, lsl 3]
.LVL149:
	bl	diagonalscan
.LVL150:
	mov	w19, w0
.LVL151:
	.loc 2 243 0
	cbnz	w0, .L104
	.loc 2 245 0
	bl	ctrlc
.LVL152:
	cbnz	w0, .L105
	.loc 2 240 0
	mov	w22, 4
.LVL153:
.L79:
	add	x28, x28, 1
.LVL154:
	.loc 2 202 0 discriminator 2
	cmp	x28, 4
	bne	.L82
	mov	w2, 0
	mov	w19, 0
.LVL155:
.L81:
	.loc 2 250 0
	orr	w2, w19, w2
.LVL156:
	cbz	w2, .L84
.LVL157:
.L83:
	.loc 2 302 0
	cbz	w19, .L67
	.loc 2 303 0
	add	x24, x24, :lo12:.LANCHOR2
	adrp	x0, .LC23
	add	x0, x0, :lo12:.LC23
	ldr	x1, [x24, w22, sxtw 3]
	bl	printf
.LVL158:
.L58:
	.loc 2 308 0
	mov	w0, w23
	ldp	x19, x20, [sp, 16]
	ldp	x21, x22, [sp, 32]
	ldp	x23, x24, [sp, 48]
	ldp	x25, x26, [sp, 64]
	ldp	x27, x28, [sp, 80]
	ldp	x29, x30, [sp], 224
	.cfi_remember_state
	.cfi_restore 30
	.cfi_restore 29
	.cfi_restore 27
	.cfi_restore 28
	.cfi_restore 25
	.cfi_restore 26
	.cfi_restore 23
	.cfi_restore 24
	.cfi_restore 21
	.cfi_restore 22
	.cfi_restore 19
	.cfi_restore 20
	.cfi_def_cfa 31, 0
	ret
.LVL159:
.L73:
	.cfi_restore_state
	add	x0, x0, 1
.LVL160:
	.loc 2 174 0 discriminator 2
	cmp	x0, 4
	bne	.L75
	.loc 2 181 0
	ldr	x2, [x29, 152]
	mov	w1, 10
	adrp	x0, .LC26
	add	x0, x0, :lo12:.LC26
	lsr	x2, x2, 20
	bl	printf
.LVL161:
	.loc 2 108 0
	mov	w1, 0
	b	.L74
.LVL162:
.L98:
	.loc 2 209 0
	mov	w22, 2
	b	.L80
.LVL163:
.L99:
	.loc 2 213 0
	mov	w22, 3
	b	.L80
.LVL164:
.L101:
	mov	w2, 0
	b	.L81
.LVL165:
.L102:
	.loc 2 228 0
	mov	w19, w0
	mov	w2, 0
	.loc 2 230 0
	mov	w22, 2
	b	.L81
.LVL166:
.L103:
	.loc 2 233 0
	mov	w19, w0
	.loc 2 235 0
	mov	w22, 3
	b	.L81
.LVL167:
.L104:
	mov	w2, w22
.LVL168:
.L141:
	.loc 2 240 0
	mov	w22, 4
	b	.L81
.L105:
	.loc 2 246 0
	mov	w2, -1
	b	.L141
.LVL169:
.L70:
	.loc 2 259 0
	mov	x2, x20
	mov	x1, x21
	add	x0, x29, 200
	bl	judge_test_addr
.LVL170:
	mov	w28, w0
.LVL171:
	.loc 2 260 0
	cbz	w0, .L106
	.loc 2 263 0
	ldr	x0, [x29, 184]
.LVL172:
	bl	set_ddr_freq
.LVL173:
	.loc 2 265 0
	ldr	x0, [x29, 216]
	cbz	x0, .L86
	.loc 2 266 0
	bl	set_vdd_logic
.LVL174:
.L86:
	.loc 2 270 0
	adrp	x27, .LC22
.LVL175:
	mov	w26, 0
	add	x0, x27, :lo12:.LC22
	str	x0, [x29, 104]
	b	.L94
.LVL176:
.L95:
	ldr	x0, [x29, 104]
	.loc 2 269 0
	add	w26, w26, 1
.LVL177:
	.loc 2 270 0
	mov	w1, w26
	.loc 2 271 0
	mov	x27, 0
	.loc 2 270 0
	bl	printf
.LVL178:
.L87:
	.loc 2 271 0 discriminator 1
	cmp	w28, w27
	bhi	.L93
	mov	w0, 0
	mov	w19, 0
.LVL179:
.L92:
	.loc 2 297 0
	orr	w0, w19, w0
.LVL180:
	cbnz	w0, .L83
.LVL181:
.L94:
	.loc 2 268 0
	ldr	x0, [x29, 192]
	cbz	x0, .L95
	.loc 2 268 0 is_stmt 0 discriminator 1
	cmp	x0, x26, uxtw
	bhi	.L95
	b	.L67
.LVL182:
.L93:
	.loc 2 278 0 is_stmt 1
	ldr	x1, [x20, x27, lsl 3]
	.loc 2 272 0
	cmp	w25, 3
	.loc 2 278 0
	ldr	x0, [x21, x27, lsl 3]
	.loc 2 272 0
	beq	.L89
	cmp	w25, 4
	beq	.L90
	.loc 2 274 0
	bl	random_test
.LVL183:
.L142:
	.loc 2 282 0
	mov	w19, w0
.LVL184:
	.loc 2 290 0
	bl	ctrlc
.LVL185:
	cbnz	w0, .L107
	add	x27, x27, 1
.LVL186:
	mov	w22, w25
	.loc 2 294 0
	cbz	w19, .L87
.LVL187:
	mov	w22, w25
.LVL188:
	b	.L92
.LVL189:
.L89:
	.loc 2 278 0
	bl	crosstalk
.LVL190:
	b	.L142
.L90:
	.loc 2 282 0
	bl	diagonalscan
.LVL191:
	b	.L142
.LVL192:
.L107:
	mov	w22, w25
	.loc 2 291 0
	mov	w0, -1
	b	.L92
.LVL193:
.L106:
	.loc 2 261 0
	mov	w23, 1
	b	.L58
.LVL194:
.L60:
	.loc 2 132 0
	adrp	x0, .LANCHOR3
	add	x0, x0, :lo12:.LANCHOR3
	ldrb	w0, [x0, w19, sxtw]
	cmp	w26, w0
	blt	.L96
	sub	w26, w26, #2
.LVL195:
	.loc 2 132 0 is_stmt 0 discriminator 1
	mov	x28, 0
	lsl	x26, x26, 3
.LVL196:
.L63:
	.loc 2 137 0 is_stmt 1 discriminator 1
	cmp	x26, x28
	bne	.L64
	.loc 2 153 0
	adrp	x0, .LC19
	add	x0, x0, :lo12:.LC19
	bl	printf
.LVL197:
	.loc 2 157 0
	bl	data_cpu_2_io_init
.LVL198:
	.loc 2 159 0
	cbnz	w25, .L65
	.loc 2 161 0
	ldr	x0, [x29, 192]
	cbz	x0, .L66
	.loc 2 162 0
	bl	set_vdd_logic
.LVL199:
.L66:
	.loc 2 163 0
	ldr	x0, [x29, 184]
	bl	set_ddr_freq
.LVL200:
.L67:
	.loc 2 305 0
	adrp	x0, .LC24
	add	x0, x0, :lo12:.LC24
	bl	printf
.LVL201:
	b	.L58
	.cfi_endproc
.LFE257:
	.size	do_ddr_test, .-do_ddr_test
	.global	_u_boot_list_2_cmd_2_ddr_test
	.section	.rodata
	.align	3
	.set	.LANCHOR1,. + 0
.LC0:
	.word	1437226410
	.word	-1437226411
	.word	1515890085
	.word	-1515890086
	.word	-267448336
	.word	267448335
	.word	0
	.word	-1
	.section	.rodata.crosstalk.str1.1,"aMS",@progbits,1
.LC1:
	.string	"\nbitflip:   \n"
.LC2:
	.string	"\b\b\b%3u"
.LC3:
	.string	"%3u\b\b\b"
.LC4:
	.string	"\nISI:\n"
.LC5:
	.string	"malloc %lu byte fail\n"
	.section	.rodata.diagonalscan.str1.1,"aMS",@progbits,1
.LC6:
	.string	"\nDiagonalScan\n"
.LC7:
	.string	"get page size fail:0x%x\n"
	.section	.rodata.do_ddr_test.str1.1,"aMS",@progbits,1
.LC16:
	.string	"ddr tester version 1.0.1\n"
.LC17:
	.string	"test parameters error\n"
.LC18:
	.string	"test pattern error\n"
.LC19:
	.string	"rockchip DMC didn't enable,can't change freq and freq scanning\n"
.LC20:
	.string	"\rtimes:%08u:\n"
.LC21:
	.string	"loop:%d, start:0x%lx, len:0x%lx\n"
.LC22:
	.string	"\rtimes:%08u, "
.LC23:
	.string	"\n%s test fail\n"
.LC24:
	.string	"\ntest pass\n"
.LC25:
	.string	"test pattern unsupported\n"
.LC26:
	.string	"fasttest need %uMB, but actually only %luMB\n"
	.section	.rodata.g_isi_pattern,"a",@progbits
	.align	3
	.set	.LANCHOR0,. + 0
	.type	g_isi_pattern, %object
	.size	g_isi_pattern, 128
g_isi_pattern:
	.word	-1
	.word	0
	.word	-1
	.word	0
	.word	-1
	.word	0
	.word	-1
	.word	-1
	.word	-1
	.word	-1
	.word	0
	.word	-1
	.word	-1
	.word	-1
	.word	-1
	.word	0
	.word	-1
	.word	0
	.word	-1
	.word	0
	.word	-1
	.word	0
	.word	0
	.word	0
	.word	0
	.word	-1
	.word	0
	.word	0
	.word	0
	.word	0
	.word	0
	.word	0
	.section	.rodata.random_test.str1.1,"aMS",@progbits,1
.LC8:
	.string	"%u"
.LC9:
	.string	"\b"
.LC10:
	.string	" "
.LC11:
	.string	"\nrandom test1 fail:address:0x%lx,read:0x%x,reread:0x%x,expect:0x%x\n"
.LC12:
	.string	"%4lu"
.LC13:
	.string	"\b\b\b\b"
.LC14:
	.string	"    "
.LC15:
	.string	"\nrandom test2 fail:address:0x%lx,read:0x%lx,reread:0x%lx,expect:0x%lx\n"
	.section	.rodata.str1.1,"aMS",@progbits,1
.LC27:
	.string	"ddr_test"
.LC28:
	.string	"for dram simple test\n"
.LC29:
	.ascii	"arg1: test pattern include:\n\tchangefreq\n\tscanfreq\n\tran"
	.ascii	"dom\n\tcrosstalk\n\tdiagonalscan\n\tfast_test\n\tfull_test\n"
	.ascii	"for changereq: arg2:freq(Hz),arg3[option]:volt\nfor scanfreq"
	.ascii	": arg2:minfreq(Hz),arg3:maxfreq(Hz),\n\targ4:scanfreq times,"
	.ascii	" arg5[option]:volt\nfor random, crosstalk and diagonalscan:a"
	.ascii	"rg2:freq(Hz), arg3:test times,\n\targ4: start addr, arg5:len"
	.ascii	"gth, arg6[option]:volt\nfor fast_test and full_test:arg2: mi"
	.ascii	"n_freq(Hz), arg3: max_freq(Hz)\n\targ4: test times, arg5[opt"
	.ascii	"ion]:volt\n\nfreq: means dram's target frequency,unit:Hz, if"
	.ascii	" 0:keep current freq\nminfreq, maxfreq: means min and max fr"
	.ascii	"equency for dram test,unit:Hz\ntest times: test loop, if 0: "
	.ascii	"endless loop\nstart_adr: start address of memory space for t"
	.ascii	"esting,unit:physical address\nlength: length of memory space"
	.ascii	" for testing,unit:Byte, if 0: full memory space test\nvolt: "
	.ascii	"means target voltage of vdd_logic\n\nexample:\nddr freq chan"
	.ascii	"ge to:786MHz, vdd_logic:1.05v:\n\t 'ddr_test changefreq 7860"
	.ascii	"00000 1050000'\nddr freq change to:786MHz, with default vdd_"
	.ascii	"logic:\n\t 'ddr_test changefreq 786000000'\nscanning ddr fre"
	.ascii	"quency between 200 and 786MHz for 10 times:\n\t 'ddr_test sc"
	.ascii	"anfreq 200000000 786000000 100'\ndoing random test 10 times "
	.ascii	"start from"
	.string	" physical address 0x200000 and\nlength is 128MB, freq:786MHz, if freq=0 may keep current freq:\n\t 'ddr_test random 786000000 10 0x200000 0x8000000'\ndoing fast test for dram between 200MHz to 786MHz with 10 times:\n\t 'ddr_test fast_test 200000000 786000000 10'"
.LC30:
	.string	"changefreq"
.LC31:
	.string	"scanfreq"
.LC32:
	.string	"random"
.LC33:
	.string	"crosstalk"
.LC34:
	.string	"diagonalscan"
.LC35:
	.string	"fast_test"
.LC36:
	.string	"full_test"
	.section	.rodata.test_pat_param,"a",@progbits
	.align	3
	.set	.LANCHOR3,. + 0
	.type	test_pat_param, %object
	.size	test_pat_param, 7
test_pat_param:
	.byte	3
	.byte	5
	.byte	6
	.byte	6
	.byte	6
	.byte	5
	.byte	5
	.section	.rodata.test_pattern,"a",@progbits
	.align	3
	.set	.LANCHOR2,. + 0
	.type	test_pattern, %object
	.size	test_pattern, 56
test_pattern:
	.xword	.LC30
	.xword	.LC31
	.xword	.LC32
	.xword	.LC33
	.xword	.LC34
	.xword	.LC35
	.xword	.LC36
	.section	.u_boot_list_2_cmd_2_ddr_test,"aw",@progbits
	.align	2
	.type	_u_boot_list_2_cmd_2_ddr_test, %object
	.size	_u_boot_list_2_cmd_2_ddr_test, 48
_u_boot_list_2_cmd_2_ddr_test:
	.8byte	.LC27
	.word	7
	.word	1
	.8byte	do_ddr_test
	.8byte	.LC28
	.8byte	.LC29
	.8byte	0
	.text
.Letext0:
	.file 5 "include/common.h"
	.file 6 "./arch/arm/include/asm/types.h"
	.file 7 "include/linux/types.h"
	.file 8 "include/errno.h"
	.file 9 "include/linux/string.h"
	.file 10 "include/efi.h"
	.file 11 "include/dm/device.h"
	.file 12 "include/ide.h"
	.file 13 "include/linux/list.h"
	.file 14 "include/part.h"
	.file 15 "include/flash.h"
	.file 16 "include/lmb.h"
	.file 17 "include/asm-generic/u-boot.h"
	.file 18 "./arch/arm/include/asm/u-boot-arm.h"
	.file 19 "include/command.h"
	.file 20 "include/linux/libfdt_env.h"
	.file 21 "include/linux/../../scripts/dtc/libfdt/fdt.h"
	.file 22 "include/linux/libfdt.h"
	.file 23 "include/image.h"
	.file 24 "include/dm/uclass-id.h"
	.file 25 "./arch/arm/include/asm/global_data.h"
	.file 26 "include/asm-generic/global_data.h"
	.file 27 "include/dm/of.h"
	.file 28 "include/net.h"
	.file 29 "include/malloc.h"
	.file 30 "include/dm/ofnode.h"
	.file 31 "include/linux/compat.h"
	.file 32 "include/dm/uclass.h"
	.file 33 "include/console.h"
	.file 34 "include/log.h"
	.file 35 "include/stdio.h"
	.file 36 "./arch/arm/include/asm/arch-rockchip/sdram.h"
	.file 37 "cmd/ddr_tool/../memtester/io_map.h"
	.file 38 "cmd/ddr_tool/../memtester/ddr_tester_common.h"
	.file 39 "include/vsprintf.h"
	.section	.note.GNU-stack,"",@progbits
